ARM GAS  /tmp/ccTcPcT8.s 			page 1


   1              		.cpu cortex-m0
   2              		.arch armv6s-m
   3              		.fpu softvfp
   4              		.eabi_attribute 20, 1
   5              		.eabi_attribute 21, 1
   6              		.eabi_attribute 23, 3
   7              		.eabi_attribute 24, 1
   8              		.eabi_attribute 25, 1
   9              		.eabi_attribute 26, 1
  10              		.eabi_attribute 30, 6
  11              		.eabi_attribute 34, 0
  12              		.eabi_attribute 18, 4
  13              		.file	"stm32f0xx_hal_uart.c"
  14              		.text
  15              	.Ltext0:
  16              		.cfi_sections	.debug_frame
  17              		.file 1 "Drivers/STM32F0xx_HAL_Driver/Src/stm32f0xx_hal_uart.c"
  18              		.section	.text.HAL_UART_Init,"ax",%progbits
  19              		.align	1
  20              		.global	HAL_UART_Init
  21              		.syntax unified
  22              		.code	16
  23              		.thumb_func
  25              	HAL_UART_Init:
  26              	.LFB40:
   1:Drivers/STM32F0xx_HAL_Driver/Src/stm32f0xx_hal_uart.c **** /**
   2:Drivers/STM32F0xx_HAL_Driver/Src/stm32f0xx_hal_uart.c ****   ******************************************************************************
   3:Drivers/STM32F0xx_HAL_Driver/Src/stm32f0xx_hal_uart.c ****   * @file    stm32f0xx_hal_uart.c
   4:Drivers/STM32F0xx_HAL_Driver/Src/stm32f0xx_hal_uart.c ****   * @author  MCD Application Team
   5:Drivers/STM32F0xx_HAL_Driver/Src/stm32f0xx_hal_uart.c ****   * @brief   UART HAL module driver.
   6:Drivers/STM32F0xx_HAL_Driver/Src/stm32f0xx_hal_uart.c ****   *          This file provides firmware functions to manage the following
   7:Drivers/STM32F0xx_HAL_Driver/Src/stm32f0xx_hal_uart.c ****   *          functionalities of the Universal Asynchronous Receiver Transmitter Peripheral (UART).
   8:Drivers/STM32F0xx_HAL_Driver/Src/stm32f0xx_hal_uart.c ****   *           + Initialization and de-initialization functions
   9:Drivers/STM32F0xx_HAL_Driver/Src/stm32f0xx_hal_uart.c ****   *           + IO operation functions
  10:Drivers/STM32F0xx_HAL_Driver/Src/stm32f0xx_hal_uart.c ****   *           + Peripheral Control functions
  11:Drivers/STM32F0xx_HAL_Driver/Src/stm32f0xx_hal_uart.c ****   *
  12:Drivers/STM32F0xx_HAL_Driver/Src/stm32f0xx_hal_uart.c ****   *
  13:Drivers/STM32F0xx_HAL_Driver/Src/stm32f0xx_hal_uart.c ****   @verbatim
  14:Drivers/STM32F0xx_HAL_Driver/Src/stm32f0xx_hal_uart.c ****  ===============================================================================
  15:Drivers/STM32F0xx_HAL_Driver/Src/stm32f0xx_hal_uart.c ****                         ##### How to use this driver #####
  16:Drivers/STM32F0xx_HAL_Driver/Src/stm32f0xx_hal_uart.c ****  ===============================================================================
  17:Drivers/STM32F0xx_HAL_Driver/Src/stm32f0xx_hal_uart.c ****   [..]
  18:Drivers/STM32F0xx_HAL_Driver/Src/stm32f0xx_hal_uart.c ****     The UART HAL driver can be used as follows:
  19:Drivers/STM32F0xx_HAL_Driver/Src/stm32f0xx_hal_uart.c **** 
  20:Drivers/STM32F0xx_HAL_Driver/Src/stm32f0xx_hal_uart.c ****     (#) Declare a UART_HandleTypeDef handle structure (eg. UART_HandleTypeDef huart).
  21:Drivers/STM32F0xx_HAL_Driver/Src/stm32f0xx_hal_uart.c ****     (#) Initialize the UART low level resources by implementing the HAL_UART_MspInit() API:
  22:Drivers/STM32F0xx_HAL_Driver/Src/stm32f0xx_hal_uart.c ****         (++) Enable the USARTx interface clock.
  23:Drivers/STM32F0xx_HAL_Driver/Src/stm32f0xx_hal_uart.c ****         (++) UART pins configuration:
  24:Drivers/STM32F0xx_HAL_Driver/Src/stm32f0xx_hal_uart.c ****             (+++) Enable the clock for the UART GPIOs.
  25:Drivers/STM32F0xx_HAL_Driver/Src/stm32f0xx_hal_uart.c ****             (+++) Configure these UART pins as alternate function pull-up.
  26:Drivers/STM32F0xx_HAL_Driver/Src/stm32f0xx_hal_uart.c ****         (++) NVIC configuration if you need to use interrupt process (HAL_UART_Transmit_IT()
  27:Drivers/STM32F0xx_HAL_Driver/Src/stm32f0xx_hal_uart.c ****              and HAL_UART_Receive_IT() APIs):
  28:Drivers/STM32F0xx_HAL_Driver/Src/stm32f0xx_hal_uart.c ****             (+++) Configure the USARTx interrupt priority.
  29:Drivers/STM32F0xx_HAL_Driver/Src/stm32f0xx_hal_uart.c ****             (+++) Enable the NVIC USART IRQ handle.
  30:Drivers/STM32F0xx_HAL_Driver/Src/stm32f0xx_hal_uart.c ****         (++) UART interrupts handling:
  31:Drivers/STM32F0xx_HAL_Driver/Src/stm32f0xx_hal_uart.c ****               -@@-  The specific UART interrupts (Transmission complete interrupt,
  32:Drivers/STM32F0xx_HAL_Driver/Src/stm32f0xx_hal_uart.c ****                 RXNE interrupt, RX/TX FIFOs related interrupts and Error Interrupts)
ARM GAS  /tmp/ccTcPcT8.s 			page 2


  33:Drivers/STM32F0xx_HAL_Driver/Src/stm32f0xx_hal_uart.c ****                 are managed using the macros __HAL_UART_ENABLE_IT() and __HAL_UART_DISABLE_IT()
  34:Drivers/STM32F0xx_HAL_Driver/Src/stm32f0xx_hal_uart.c ****                 inside the transmit and receive processes.
  35:Drivers/STM32F0xx_HAL_Driver/Src/stm32f0xx_hal_uart.c ****         (++) DMA Configuration if you need to use DMA process (HAL_UART_Transmit_DMA()
  36:Drivers/STM32F0xx_HAL_Driver/Src/stm32f0xx_hal_uart.c ****              and HAL_UART_Receive_DMA() APIs):
  37:Drivers/STM32F0xx_HAL_Driver/Src/stm32f0xx_hal_uart.c ****             (+++) Declare a DMA handle structure for the Tx/Rx channel.
  38:Drivers/STM32F0xx_HAL_Driver/Src/stm32f0xx_hal_uart.c ****             (+++) Enable the DMAx interface clock.
  39:Drivers/STM32F0xx_HAL_Driver/Src/stm32f0xx_hal_uart.c ****             (+++) Configure the declared DMA handle structure with the required Tx/Rx parameters.
  40:Drivers/STM32F0xx_HAL_Driver/Src/stm32f0xx_hal_uart.c ****             (+++) Configure the DMA Tx/Rx channel.
  41:Drivers/STM32F0xx_HAL_Driver/Src/stm32f0xx_hal_uart.c ****             (+++) Associate the initialized DMA handle to the UART DMA Tx/Rx handle.
  42:Drivers/STM32F0xx_HAL_Driver/Src/stm32f0xx_hal_uart.c ****             (+++) Configure the priority and enable the NVIC for the transfer complete interrupt on
  43:Drivers/STM32F0xx_HAL_Driver/Src/stm32f0xx_hal_uart.c **** 
  44:Drivers/STM32F0xx_HAL_Driver/Src/stm32f0xx_hal_uart.c ****     (#) Program the Baud Rate, Word Length, Stop Bit, Parity, Hardware
  45:Drivers/STM32F0xx_HAL_Driver/Src/stm32f0xx_hal_uart.c ****         flow control and Mode (Receiver/Transmitter) in the huart handle Init structure.
  46:Drivers/STM32F0xx_HAL_Driver/Src/stm32f0xx_hal_uart.c **** 
  47:Drivers/STM32F0xx_HAL_Driver/Src/stm32f0xx_hal_uart.c ****     (#) If required, program UART advanced features (TX/RX pins swap, auto Baud rate detection,...)
  48:Drivers/STM32F0xx_HAL_Driver/Src/stm32f0xx_hal_uart.c ****         in the huart handle AdvancedInit structure.
  49:Drivers/STM32F0xx_HAL_Driver/Src/stm32f0xx_hal_uart.c **** 
  50:Drivers/STM32F0xx_HAL_Driver/Src/stm32f0xx_hal_uart.c ****     (#) For the UART asynchronous mode, initialize the UART registers by calling
  51:Drivers/STM32F0xx_HAL_Driver/Src/stm32f0xx_hal_uart.c ****         the HAL_UART_Init() API.
  52:Drivers/STM32F0xx_HAL_Driver/Src/stm32f0xx_hal_uart.c **** 
  53:Drivers/STM32F0xx_HAL_Driver/Src/stm32f0xx_hal_uart.c ****     (#) For the UART Half duplex mode, initialize the UART registers by calling
  54:Drivers/STM32F0xx_HAL_Driver/Src/stm32f0xx_hal_uart.c ****         the HAL_HalfDuplex_Init() API.
  55:Drivers/STM32F0xx_HAL_Driver/Src/stm32f0xx_hal_uart.c **** 
  56:Drivers/STM32F0xx_HAL_Driver/Src/stm32f0xx_hal_uart.c ****     (#) For the UART LIN (Local Interconnection Network) mode, initialize the UART registers
  57:Drivers/STM32F0xx_HAL_Driver/Src/stm32f0xx_hal_uart.c ****         by calling the HAL_LIN_Init() API.
  58:Drivers/STM32F0xx_HAL_Driver/Src/stm32f0xx_hal_uart.c **** 
  59:Drivers/STM32F0xx_HAL_Driver/Src/stm32f0xx_hal_uart.c ****     (#) For the UART Multiprocessor mode, initialize the UART registers
  60:Drivers/STM32F0xx_HAL_Driver/Src/stm32f0xx_hal_uart.c ****         by calling the HAL_MultiProcessor_Init() API.
  61:Drivers/STM32F0xx_HAL_Driver/Src/stm32f0xx_hal_uart.c **** 
  62:Drivers/STM32F0xx_HAL_Driver/Src/stm32f0xx_hal_uart.c ****     (#) For the UART RS485 Driver Enabled mode, initialize the UART registers
  63:Drivers/STM32F0xx_HAL_Driver/Src/stm32f0xx_hal_uart.c ****         by calling the HAL_RS485Ex_Init() API.
  64:Drivers/STM32F0xx_HAL_Driver/Src/stm32f0xx_hal_uart.c **** 
  65:Drivers/STM32F0xx_HAL_Driver/Src/stm32f0xx_hal_uart.c ****     [..]
  66:Drivers/STM32F0xx_HAL_Driver/Src/stm32f0xx_hal_uart.c ****     (@) These API's (HAL_UART_Init(), HAL_HalfDuplex_Init(), HAL_LIN_Init(), HAL_MultiProcessor_Ini
  67:Drivers/STM32F0xx_HAL_Driver/Src/stm32f0xx_hal_uart.c ****         also configure the low level Hardware GPIO, CLOCK, CORTEX...etc) by
  68:Drivers/STM32F0xx_HAL_Driver/Src/stm32f0xx_hal_uart.c ****         calling the customized HAL_UART_MspInit() API.
  69:Drivers/STM32F0xx_HAL_Driver/Src/stm32f0xx_hal_uart.c **** 
  70:Drivers/STM32F0xx_HAL_Driver/Src/stm32f0xx_hal_uart.c ****     ##### Callback registration #####
  71:Drivers/STM32F0xx_HAL_Driver/Src/stm32f0xx_hal_uart.c ****     ==================================
  72:Drivers/STM32F0xx_HAL_Driver/Src/stm32f0xx_hal_uart.c **** 
  73:Drivers/STM32F0xx_HAL_Driver/Src/stm32f0xx_hal_uart.c ****     [..]
  74:Drivers/STM32F0xx_HAL_Driver/Src/stm32f0xx_hal_uart.c ****     The compilation define USE_HAL_UART_REGISTER_CALLBACKS when set to 1
  75:Drivers/STM32F0xx_HAL_Driver/Src/stm32f0xx_hal_uart.c ****     allows the user to configure dynamically the driver callbacks.
  76:Drivers/STM32F0xx_HAL_Driver/Src/stm32f0xx_hal_uart.c **** 
  77:Drivers/STM32F0xx_HAL_Driver/Src/stm32f0xx_hal_uart.c ****     [..]
  78:Drivers/STM32F0xx_HAL_Driver/Src/stm32f0xx_hal_uart.c ****     Use Function @ref HAL_UART_RegisterCallback() to register a user callback.
  79:Drivers/STM32F0xx_HAL_Driver/Src/stm32f0xx_hal_uart.c ****     Function @ref HAL_UART_RegisterCallback() allows to register following callbacks:
  80:Drivers/STM32F0xx_HAL_Driver/Src/stm32f0xx_hal_uart.c ****     (+) TxHalfCpltCallback        : Tx Half Complete Callback.
  81:Drivers/STM32F0xx_HAL_Driver/Src/stm32f0xx_hal_uart.c ****     (+) TxCpltCallback            : Tx Complete Callback.
  82:Drivers/STM32F0xx_HAL_Driver/Src/stm32f0xx_hal_uart.c ****     (+) RxHalfCpltCallback        : Rx Half Complete Callback.
  83:Drivers/STM32F0xx_HAL_Driver/Src/stm32f0xx_hal_uart.c ****     (+) RxCpltCallback            : Rx Complete Callback.
  84:Drivers/STM32F0xx_HAL_Driver/Src/stm32f0xx_hal_uart.c ****     (+) ErrorCallback             : Error Callback.
  85:Drivers/STM32F0xx_HAL_Driver/Src/stm32f0xx_hal_uart.c ****     (+) AbortCpltCallback         : Abort Complete Callback.
  86:Drivers/STM32F0xx_HAL_Driver/Src/stm32f0xx_hal_uart.c ****     (+) AbortTransmitCpltCallback : Abort Transmit Complete Callback.
  87:Drivers/STM32F0xx_HAL_Driver/Src/stm32f0xx_hal_uart.c ****     (+) AbortReceiveCpltCallback  : Abort Receive Complete Callback.
  88:Drivers/STM32F0xx_HAL_Driver/Src/stm32f0xx_hal_uart.c ****     (+) WakeupCallback            : Wakeup Callback.
  89:Drivers/STM32F0xx_HAL_Driver/Src/stm32f0xx_hal_uart.c ****     (+) RxFifoFullCallback        : Rx Fifo Full Callback.
ARM GAS  /tmp/ccTcPcT8.s 			page 3


  90:Drivers/STM32F0xx_HAL_Driver/Src/stm32f0xx_hal_uart.c ****     (+) TxFifoEmptyCallback       : Tx Fifo Empty Callback.
  91:Drivers/STM32F0xx_HAL_Driver/Src/stm32f0xx_hal_uart.c ****     (+) MspInitCallback           : UART MspInit.
  92:Drivers/STM32F0xx_HAL_Driver/Src/stm32f0xx_hal_uart.c ****     (+) MspDeInitCallback         : UART MspDeInit.
  93:Drivers/STM32F0xx_HAL_Driver/Src/stm32f0xx_hal_uart.c ****     This function takes as parameters the HAL peripheral handle, the Callback ID
  94:Drivers/STM32F0xx_HAL_Driver/Src/stm32f0xx_hal_uart.c ****     and a pointer to the user callback function.
  95:Drivers/STM32F0xx_HAL_Driver/Src/stm32f0xx_hal_uart.c **** 
  96:Drivers/STM32F0xx_HAL_Driver/Src/stm32f0xx_hal_uart.c ****     [..]
  97:Drivers/STM32F0xx_HAL_Driver/Src/stm32f0xx_hal_uart.c ****     Use function @ref HAL_UART_UnRegisterCallback() to reset a callback to the default
  98:Drivers/STM32F0xx_HAL_Driver/Src/stm32f0xx_hal_uart.c ****     weak (surcharged) function.
  99:Drivers/STM32F0xx_HAL_Driver/Src/stm32f0xx_hal_uart.c ****     @ref HAL_UART_UnRegisterCallback() takes as parameters the HAL peripheral handle,
 100:Drivers/STM32F0xx_HAL_Driver/Src/stm32f0xx_hal_uart.c ****     and the Callback ID.
 101:Drivers/STM32F0xx_HAL_Driver/Src/stm32f0xx_hal_uart.c ****     This function allows to reset following callbacks:
 102:Drivers/STM32F0xx_HAL_Driver/Src/stm32f0xx_hal_uart.c ****     (+) TxHalfCpltCallback        : Tx Half Complete Callback.
 103:Drivers/STM32F0xx_HAL_Driver/Src/stm32f0xx_hal_uart.c ****     (+) TxCpltCallback            : Tx Complete Callback.
 104:Drivers/STM32F0xx_HAL_Driver/Src/stm32f0xx_hal_uart.c ****     (+) RxHalfCpltCallback        : Rx Half Complete Callback.
 105:Drivers/STM32F0xx_HAL_Driver/Src/stm32f0xx_hal_uart.c ****     (+) RxCpltCallback            : Rx Complete Callback.
 106:Drivers/STM32F0xx_HAL_Driver/Src/stm32f0xx_hal_uart.c ****     (+) ErrorCallback             : Error Callback.
 107:Drivers/STM32F0xx_HAL_Driver/Src/stm32f0xx_hal_uart.c ****     (+) AbortCpltCallback         : Abort Complete Callback.
 108:Drivers/STM32F0xx_HAL_Driver/Src/stm32f0xx_hal_uart.c ****     (+) AbortTransmitCpltCallback : Abort Transmit Complete Callback.
 109:Drivers/STM32F0xx_HAL_Driver/Src/stm32f0xx_hal_uart.c ****     (+) AbortReceiveCpltCallback  : Abort Receive Complete Callback.
 110:Drivers/STM32F0xx_HAL_Driver/Src/stm32f0xx_hal_uart.c ****     (+) WakeupCallback            : Wakeup Callback.
 111:Drivers/STM32F0xx_HAL_Driver/Src/stm32f0xx_hal_uart.c ****     (+) RxFifoFullCallback        : Rx Fifo Full Callback.
 112:Drivers/STM32F0xx_HAL_Driver/Src/stm32f0xx_hal_uart.c ****     (+) TxFifoEmptyCallback       : Tx Fifo Empty Callback.
 113:Drivers/STM32F0xx_HAL_Driver/Src/stm32f0xx_hal_uart.c ****     (+) MspInitCallback           : UART MspInit.
 114:Drivers/STM32F0xx_HAL_Driver/Src/stm32f0xx_hal_uart.c ****     (+) MspDeInitCallback         : UART MspDeInit.
 115:Drivers/STM32F0xx_HAL_Driver/Src/stm32f0xx_hal_uart.c **** 
 116:Drivers/STM32F0xx_HAL_Driver/Src/stm32f0xx_hal_uart.c ****     [..]
 117:Drivers/STM32F0xx_HAL_Driver/Src/stm32f0xx_hal_uart.c ****     By default, after the @ref HAL_UART_Init() and when the state is HAL_UART_STATE_RESET
 118:Drivers/STM32F0xx_HAL_Driver/Src/stm32f0xx_hal_uart.c ****     all callbacks are set to the corresponding weak (surcharged) functions:
 119:Drivers/STM32F0xx_HAL_Driver/Src/stm32f0xx_hal_uart.c ****     examples @ref HAL_UART_TxCpltCallback(), @ref HAL_UART_RxHalfCpltCallback().
 120:Drivers/STM32F0xx_HAL_Driver/Src/stm32f0xx_hal_uart.c ****     Exception done for MspInit and MspDeInit functions that are respectively
 121:Drivers/STM32F0xx_HAL_Driver/Src/stm32f0xx_hal_uart.c ****     reset to the legacy weak (surcharged) functions in the @ref HAL_UART_Init()
 122:Drivers/STM32F0xx_HAL_Driver/Src/stm32f0xx_hal_uart.c ****     and @ref HAL_UART_DeInit() only when these callbacks are null (not registered beforehand).
 123:Drivers/STM32F0xx_HAL_Driver/Src/stm32f0xx_hal_uart.c ****     If not, MspInit or MspDeInit are not null, the @ref HAL_UART_Init() and @ref HAL_UART_DeInit()
 124:Drivers/STM32F0xx_HAL_Driver/Src/stm32f0xx_hal_uart.c ****     keep and use the user MspInit/MspDeInit callbacks (registered beforehand).
 125:Drivers/STM32F0xx_HAL_Driver/Src/stm32f0xx_hal_uart.c **** 
 126:Drivers/STM32F0xx_HAL_Driver/Src/stm32f0xx_hal_uart.c ****     [..]
 127:Drivers/STM32F0xx_HAL_Driver/Src/stm32f0xx_hal_uart.c ****     Callbacks can be registered/unregistered in HAL_UART_STATE_READY state only.
 128:Drivers/STM32F0xx_HAL_Driver/Src/stm32f0xx_hal_uart.c ****     Exception done MspInit/MspDeInit that can be registered/unregistered
 129:Drivers/STM32F0xx_HAL_Driver/Src/stm32f0xx_hal_uart.c ****     in HAL_UART_STATE_READY or HAL_UART_STATE_RESET state, thus registered (user)
 130:Drivers/STM32F0xx_HAL_Driver/Src/stm32f0xx_hal_uart.c ****     MspInit/DeInit callbacks can be used during the Init/DeInit.
 131:Drivers/STM32F0xx_HAL_Driver/Src/stm32f0xx_hal_uart.c ****     In that case first register the MspInit/MspDeInit user callbacks
 132:Drivers/STM32F0xx_HAL_Driver/Src/stm32f0xx_hal_uart.c ****     using @ref HAL_UART_RegisterCallback() before calling @ref HAL_UART_DeInit()
 133:Drivers/STM32F0xx_HAL_Driver/Src/stm32f0xx_hal_uart.c ****     or @ref HAL_UART_Init() function.
 134:Drivers/STM32F0xx_HAL_Driver/Src/stm32f0xx_hal_uart.c **** 
 135:Drivers/STM32F0xx_HAL_Driver/Src/stm32f0xx_hal_uart.c ****     [..]
 136:Drivers/STM32F0xx_HAL_Driver/Src/stm32f0xx_hal_uart.c ****     When The compilation define USE_HAL_UART_REGISTER_CALLBACKS is set to 0 or
 137:Drivers/STM32F0xx_HAL_Driver/Src/stm32f0xx_hal_uart.c ****     not defined, the callback registration feature is not available
 138:Drivers/STM32F0xx_HAL_Driver/Src/stm32f0xx_hal_uart.c ****     and weak (surcharged) callbacks are used.
 139:Drivers/STM32F0xx_HAL_Driver/Src/stm32f0xx_hal_uart.c **** 
 140:Drivers/STM32F0xx_HAL_Driver/Src/stm32f0xx_hal_uart.c **** 
 141:Drivers/STM32F0xx_HAL_Driver/Src/stm32f0xx_hal_uart.c ****   @endverbatim
 142:Drivers/STM32F0xx_HAL_Driver/Src/stm32f0xx_hal_uart.c ****   ******************************************************************************
 143:Drivers/STM32F0xx_HAL_Driver/Src/stm32f0xx_hal_uart.c ****   * @attention
 144:Drivers/STM32F0xx_HAL_Driver/Src/stm32f0xx_hal_uart.c ****   *
 145:Drivers/STM32F0xx_HAL_Driver/Src/stm32f0xx_hal_uart.c ****   * <h2><center>&copy; Copyright (c) 2016 STMicroelectronics.
 146:Drivers/STM32F0xx_HAL_Driver/Src/stm32f0xx_hal_uart.c ****   * All rights reserved.</center></h2>
ARM GAS  /tmp/ccTcPcT8.s 			page 4


 147:Drivers/STM32F0xx_HAL_Driver/Src/stm32f0xx_hal_uart.c ****   *
 148:Drivers/STM32F0xx_HAL_Driver/Src/stm32f0xx_hal_uart.c ****   * This software component is licensed by ST under BSD 3-Clause license,
 149:Drivers/STM32F0xx_HAL_Driver/Src/stm32f0xx_hal_uart.c ****   * the "License"; You may not use this file except in compliance with the
 150:Drivers/STM32F0xx_HAL_Driver/Src/stm32f0xx_hal_uart.c ****   * License. You may obtain a copy of the License at:
 151:Drivers/STM32F0xx_HAL_Driver/Src/stm32f0xx_hal_uart.c ****   *                        opensource.org/licenses/BSD-3-Clause
 152:Drivers/STM32F0xx_HAL_Driver/Src/stm32f0xx_hal_uart.c ****   *
 153:Drivers/STM32F0xx_HAL_Driver/Src/stm32f0xx_hal_uart.c ****   ******************************************************************************
 154:Drivers/STM32F0xx_HAL_Driver/Src/stm32f0xx_hal_uart.c ****   */
 155:Drivers/STM32F0xx_HAL_Driver/Src/stm32f0xx_hal_uart.c **** 
 156:Drivers/STM32F0xx_HAL_Driver/Src/stm32f0xx_hal_uart.c **** /* Includes ------------------------------------------------------------------*/
 157:Drivers/STM32F0xx_HAL_Driver/Src/stm32f0xx_hal_uart.c **** #include "stm32f0xx_hal.h"
 158:Drivers/STM32F0xx_HAL_Driver/Src/stm32f0xx_hal_uart.c **** 
 159:Drivers/STM32F0xx_HAL_Driver/Src/stm32f0xx_hal_uart.c **** /** @addtogroup STM32F0xx_HAL_Driver
 160:Drivers/STM32F0xx_HAL_Driver/Src/stm32f0xx_hal_uart.c ****   * @{
 161:Drivers/STM32F0xx_HAL_Driver/Src/stm32f0xx_hal_uart.c ****   */
 162:Drivers/STM32F0xx_HAL_Driver/Src/stm32f0xx_hal_uart.c **** 
 163:Drivers/STM32F0xx_HAL_Driver/Src/stm32f0xx_hal_uart.c **** /** @defgroup UART UART
 164:Drivers/STM32F0xx_HAL_Driver/Src/stm32f0xx_hal_uart.c ****   * @brief HAL UART module driver
 165:Drivers/STM32F0xx_HAL_Driver/Src/stm32f0xx_hal_uart.c ****   * @{
 166:Drivers/STM32F0xx_HAL_Driver/Src/stm32f0xx_hal_uart.c ****   */
 167:Drivers/STM32F0xx_HAL_Driver/Src/stm32f0xx_hal_uart.c **** 
 168:Drivers/STM32F0xx_HAL_Driver/Src/stm32f0xx_hal_uart.c **** #ifdef HAL_UART_MODULE_ENABLED
 169:Drivers/STM32F0xx_HAL_Driver/Src/stm32f0xx_hal_uart.c **** 
 170:Drivers/STM32F0xx_HAL_Driver/Src/stm32f0xx_hal_uart.c **** /* Private typedef -----------------------------------------------------------*/
 171:Drivers/STM32F0xx_HAL_Driver/Src/stm32f0xx_hal_uart.c **** /* Private define ------------------------------------------------------------*/
 172:Drivers/STM32F0xx_HAL_Driver/Src/stm32f0xx_hal_uart.c **** /** @defgroup UART_Private_Constants UART Private Constants
 173:Drivers/STM32F0xx_HAL_Driver/Src/stm32f0xx_hal_uart.c ****   * @{
 174:Drivers/STM32F0xx_HAL_Driver/Src/stm32f0xx_hal_uart.c ****   */
 175:Drivers/STM32F0xx_HAL_Driver/Src/stm32f0xx_hal_uart.c **** #define USART_CR1_FIELDS  ((uint32_t)(USART_CR1_M | USART_CR1_PCE | USART_CR1_PS | \
 176:Drivers/STM32F0xx_HAL_Driver/Src/stm32f0xx_hal_uart.c ****                                       USART_CR1_TE | USART_CR1_RE | USART_CR1_OVER8 )) /*!< UART or
 177:Drivers/STM32F0xx_HAL_Driver/Src/stm32f0xx_hal_uart.c **** 
 178:Drivers/STM32F0xx_HAL_Driver/Src/stm32f0xx_hal_uart.c **** #define USART_CR3_FIELDS  ((uint32_t)(USART_CR3_RTSE | USART_CR3_CTSE | USART_CR3_ONEBIT))  /*!< UA
 179:Drivers/STM32F0xx_HAL_Driver/Src/stm32f0xx_hal_uart.c **** 
 180:Drivers/STM32F0xx_HAL_Driver/Src/stm32f0xx_hal_uart.c **** 
 181:Drivers/STM32F0xx_HAL_Driver/Src/stm32f0xx_hal_uart.c **** #define UART_BRR_MIN    0x10U        /* UART BRR minimum authorized value */
 182:Drivers/STM32F0xx_HAL_Driver/Src/stm32f0xx_hal_uart.c **** #define UART_BRR_MAX    0x0000FFFFU  /* UART BRR maximum authorized value */
 183:Drivers/STM32F0xx_HAL_Driver/Src/stm32f0xx_hal_uart.c **** 
 184:Drivers/STM32F0xx_HAL_Driver/Src/stm32f0xx_hal_uart.c **** /**
 185:Drivers/STM32F0xx_HAL_Driver/Src/stm32f0xx_hal_uart.c ****   * @}
 186:Drivers/STM32F0xx_HAL_Driver/Src/stm32f0xx_hal_uart.c ****   */
 187:Drivers/STM32F0xx_HAL_Driver/Src/stm32f0xx_hal_uart.c **** 
 188:Drivers/STM32F0xx_HAL_Driver/Src/stm32f0xx_hal_uart.c **** /* Private macros ------------------------------------------------------------*/
 189:Drivers/STM32F0xx_HAL_Driver/Src/stm32f0xx_hal_uart.c **** /* Private variables ---------------------------------------------------------*/
 190:Drivers/STM32F0xx_HAL_Driver/Src/stm32f0xx_hal_uart.c **** /* Private function prototypes -----------------------------------------------*/
 191:Drivers/STM32F0xx_HAL_Driver/Src/stm32f0xx_hal_uart.c **** /** @addtogroup UART_Private_Functions
 192:Drivers/STM32F0xx_HAL_Driver/Src/stm32f0xx_hal_uart.c ****   * @{
 193:Drivers/STM32F0xx_HAL_Driver/Src/stm32f0xx_hal_uart.c ****   */
 194:Drivers/STM32F0xx_HAL_Driver/Src/stm32f0xx_hal_uart.c **** static void UART_EndTxTransfer(UART_HandleTypeDef *huart);
 195:Drivers/STM32F0xx_HAL_Driver/Src/stm32f0xx_hal_uart.c **** static void UART_EndRxTransfer(UART_HandleTypeDef *huart);
 196:Drivers/STM32F0xx_HAL_Driver/Src/stm32f0xx_hal_uart.c **** static void UART_DMATransmitCplt(DMA_HandleTypeDef *hdma);
 197:Drivers/STM32F0xx_HAL_Driver/Src/stm32f0xx_hal_uart.c **** static void UART_DMAReceiveCplt(DMA_HandleTypeDef *hdma);
 198:Drivers/STM32F0xx_HAL_Driver/Src/stm32f0xx_hal_uart.c **** static void UART_DMARxHalfCplt(DMA_HandleTypeDef *hdma);
 199:Drivers/STM32F0xx_HAL_Driver/Src/stm32f0xx_hal_uart.c **** static void UART_DMATxHalfCplt(DMA_HandleTypeDef *hdma);
 200:Drivers/STM32F0xx_HAL_Driver/Src/stm32f0xx_hal_uart.c **** static void UART_DMAError(DMA_HandleTypeDef *hdma);
 201:Drivers/STM32F0xx_HAL_Driver/Src/stm32f0xx_hal_uart.c **** static void UART_DMAAbortOnError(DMA_HandleTypeDef *hdma);
 202:Drivers/STM32F0xx_HAL_Driver/Src/stm32f0xx_hal_uart.c **** static void UART_DMATxAbortCallback(DMA_HandleTypeDef *hdma);
 203:Drivers/STM32F0xx_HAL_Driver/Src/stm32f0xx_hal_uart.c **** static void UART_DMARxAbortCallback(DMA_HandleTypeDef *hdma);
ARM GAS  /tmp/ccTcPcT8.s 			page 5


 204:Drivers/STM32F0xx_HAL_Driver/Src/stm32f0xx_hal_uart.c **** static void UART_DMATxOnlyAbortCallback(DMA_HandleTypeDef *hdma);
 205:Drivers/STM32F0xx_HAL_Driver/Src/stm32f0xx_hal_uart.c **** static void UART_DMARxOnlyAbortCallback(DMA_HandleTypeDef *hdma);
 206:Drivers/STM32F0xx_HAL_Driver/Src/stm32f0xx_hal_uart.c **** static void UART_TxISR_8BIT(UART_HandleTypeDef *huart);
 207:Drivers/STM32F0xx_HAL_Driver/Src/stm32f0xx_hal_uart.c **** static void UART_TxISR_16BIT(UART_HandleTypeDef *huart);
 208:Drivers/STM32F0xx_HAL_Driver/Src/stm32f0xx_hal_uart.c **** static void UART_EndTransmit_IT(UART_HandleTypeDef *huart);
 209:Drivers/STM32F0xx_HAL_Driver/Src/stm32f0xx_hal_uart.c **** static void UART_RxISR_8BIT(UART_HandleTypeDef *huart);
 210:Drivers/STM32F0xx_HAL_Driver/Src/stm32f0xx_hal_uart.c **** static void UART_RxISR_16BIT(UART_HandleTypeDef *huart);
 211:Drivers/STM32F0xx_HAL_Driver/Src/stm32f0xx_hal_uart.c **** /**
 212:Drivers/STM32F0xx_HAL_Driver/Src/stm32f0xx_hal_uart.c ****   * @}
 213:Drivers/STM32F0xx_HAL_Driver/Src/stm32f0xx_hal_uart.c ****   */
 214:Drivers/STM32F0xx_HAL_Driver/Src/stm32f0xx_hal_uart.c **** 
 215:Drivers/STM32F0xx_HAL_Driver/Src/stm32f0xx_hal_uart.c **** /* Exported functions --------------------------------------------------------*/
 216:Drivers/STM32F0xx_HAL_Driver/Src/stm32f0xx_hal_uart.c **** 
 217:Drivers/STM32F0xx_HAL_Driver/Src/stm32f0xx_hal_uart.c **** /** @defgroup UART_Exported_Functions UART Exported Functions
 218:Drivers/STM32F0xx_HAL_Driver/Src/stm32f0xx_hal_uart.c ****   * @{
 219:Drivers/STM32F0xx_HAL_Driver/Src/stm32f0xx_hal_uart.c ****   */
 220:Drivers/STM32F0xx_HAL_Driver/Src/stm32f0xx_hal_uart.c **** 
 221:Drivers/STM32F0xx_HAL_Driver/Src/stm32f0xx_hal_uart.c **** /** @defgroup UART_Exported_Functions_Group1 Initialization and de-initialization functions
 222:Drivers/STM32F0xx_HAL_Driver/Src/stm32f0xx_hal_uart.c ****   *  @brief    Initialization and Configuration functions
 223:Drivers/STM32F0xx_HAL_Driver/Src/stm32f0xx_hal_uart.c ****   *
 224:Drivers/STM32F0xx_HAL_Driver/Src/stm32f0xx_hal_uart.c **** @verbatim
 225:Drivers/STM32F0xx_HAL_Driver/Src/stm32f0xx_hal_uart.c **** ===============================================================================
 226:Drivers/STM32F0xx_HAL_Driver/Src/stm32f0xx_hal_uart.c ****             ##### Initialization and Configuration functions #####
 227:Drivers/STM32F0xx_HAL_Driver/Src/stm32f0xx_hal_uart.c ****  ===============================================================================
 228:Drivers/STM32F0xx_HAL_Driver/Src/stm32f0xx_hal_uart.c ****     [..]
 229:Drivers/STM32F0xx_HAL_Driver/Src/stm32f0xx_hal_uart.c ****     This subsection provides a set of functions allowing to initialize the USARTx or the UARTy
 230:Drivers/STM32F0xx_HAL_Driver/Src/stm32f0xx_hal_uart.c ****     in asynchronous mode.
 231:Drivers/STM32F0xx_HAL_Driver/Src/stm32f0xx_hal_uart.c ****       (+) For the asynchronous mode the parameters below can be configured:
 232:Drivers/STM32F0xx_HAL_Driver/Src/stm32f0xx_hal_uart.c ****         (++) Baud Rate
 233:Drivers/STM32F0xx_HAL_Driver/Src/stm32f0xx_hal_uart.c ****         (++) Word Length
 234:Drivers/STM32F0xx_HAL_Driver/Src/stm32f0xx_hal_uart.c ****         (++) Stop Bit
 235:Drivers/STM32F0xx_HAL_Driver/Src/stm32f0xx_hal_uart.c ****         (++) Parity: If the parity is enabled, then the MSB bit of the data written
 236:Drivers/STM32F0xx_HAL_Driver/Src/stm32f0xx_hal_uart.c ****              in the data register is transmitted but is changed by the parity bit.
 237:Drivers/STM32F0xx_HAL_Driver/Src/stm32f0xx_hal_uart.c ****         (++) Hardware flow control
 238:Drivers/STM32F0xx_HAL_Driver/Src/stm32f0xx_hal_uart.c ****         (++) Receiver/transmitter modes
 239:Drivers/STM32F0xx_HAL_Driver/Src/stm32f0xx_hal_uart.c ****         (++) Over Sampling Method
 240:Drivers/STM32F0xx_HAL_Driver/Src/stm32f0xx_hal_uart.c ****         (++) One-Bit Sampling Method
 241:Drivers/STM32F0xx_HAL_Driver/Src/stm32f0xx_hal_uart.c ****       (+) For the asynchronous mode, the following advanced features can be configured as well:
 242:Drivers/STM32F0xx_HAL_Driver/Src/stm32f0xx_hal_uart.c ****         (++) TX and/or RX pin level inversion
 243:Drivers/STM32F0xx_HAL_Driver/Src/stm32f0xx_hal_uart.c ****         (++) data logical level inversion
 244:Drivers/STM32F0xx_HAL_Driver/Src/stm32f0xx_hal_uart.c ****         (++) RX and TX pins swap
 245:Drivers/STM32F0xx_HAL_Driver/Src/stm32f0xx_hal_uart.c ****         (++) RX overrun detection disabling
 246:Drivers/STM32F0xx_HAL_Driver/Src/stm32f0xx_hal_uart.c ****         (++) DMA disabling on RX error
 247:Drivers/STM32F0xx_HAL_Driver/Src/stm32f0xx_hal_uart.c ****         (++) MSB first on communication line
 248:Drivers/STM32F0xx_HAL_Driver/Src/stm32f0xx_hal_uart.c ****         (++) auto Baud rate detection
 249:Drivers/STM32F0xx_HAL_Driver/Src/stm32f0xx_hal_uart.c ****     [..]
 250:Drivers/STM32F0xx_HAL_Driver/Src/stm32f0xx_hal_uart.c ****     The HAL_UART_Init(), HAL_HalfDuplex_Init(), HAL_LIN_Init()and HAL_MultiProcessor_Init()API
 251:Drivers/STM32F0xx_HAL_Driver/Src/stm32f0xx_hal_uart.c ****     follow respectively the UART asynchronous, UART Half duplex, UART LIN mode
 252:Drivers/STM32F0xx_HAL_Driver/Src/stm32f0xx_hal_uart.c ****     and UART multiprocessor mode configuration procedures (details for the procedures
 253:Drivers/STM32F0xx_HAL_Driver/Src/stm32f0xx_hal_uart.c ****     are available in reference manual).
 254:Drivers/STM32F0xx_HAL_Driver/Src/stm32f0xx_hal_uart.c **** 
 255:Drivers/STM32F0xx_HAL_Driver/Src/stm32f0xx_hal_uart.c **** @endverbatim
 256:Drivers/STM32F0xx_HAL_Driver/Src/stm32f0xx_hal_uart.c **** 
 257:Drivers/STM32F0xx_HAL_Driver/Src/stm32f0xx_hal_uart.c ****   Depending on the frame length defined by the M1 and M0 bits (7-bit,
 258:Drivers/STM32F0xx_HAL_Driver/Src/stm32f0xx_hal_uart.c ****   8-bit or 9-bit), the possible UART formats are listed in the
 259:Drivers/STM32F0xx_HAL_Driver/Src/stm32f0xx_hal_uart.c ****   following table.
 260:Drivers/STM32F0xx_HAL_Driver/Src/stm32f0xx_hal_uart.c **** 
ARM GAS  /tmp/ccTcPcT8.s 			page 6


 261:Drivers/STM32F0xx_HAL_Driver/Src/stm32f0xx_hal_uart.c ****   Table 1. UART frame format.
 262:Drivers/STM32F0xx_HAL_Driver/Src/stm32f0xx_hal_uart.c ****     +-----------------------------------------------------------------------+
 263:Drivers/STM32F0xx_HAL_Driver/Src/stm32f0xx_hal_uart.c ****     |  M1 bit |  M0 bit |  PCE bit  |             UART frame                |
 264:Drivers/STM32F0xx_HAL_Driver/Src/stm32f0xx_hal_uart.c ****     |---------|---------|-----------|---------------------------------------|
 265:Drivers/STM32F0xx_HAL_Driver/Src/stm32f0xx_hal_uart.c ****     |    0    |    0    |    0      |    | SB |    8 bit data   | STB |     |
 266:Drivers/STM32F0xx_HAL_Driver/Src/stm32f0xx_hal_uart.c ****     |---------|---------|-----------|---------------------------------------|
 267:Drivers/STM32F0xx_HAL_Driver/Src/stm32f0xx_hal_uart.c ****     |    0    |    0    |    1      |    | SB | 7 bit data | PB | STB |     |
 268:Drivers/STM32F0xx_HAL_Driver/Src/stm32f0xx_hal_uart.c ****     |---------|---------|-----------|---------------------------------------|
 269:Drivers/STM32F0xx_HAL_Driver/Src/stm32f0xx_hal_uart.c ****     |    0    |    1    |    0      |    | SB |    9 bit data   | STB |     |
 270:Drivers/STM32F0xx_HAL_Driver/Src/stm32f0xx_hal_uart.c ****     |---------|---------|-----------|---------------------------------------|
 271:Drivers/STM32F0xx_HAL_Driver/Src/stm32f0xx_hal_uart.c ****     |    0    |    1    |    1      |    | SB | 8 bit data | PB | STB |     |
 272:Drivers/STM32F0xx_HAL_Driver/Src/stm32f0xx_hal_uart.c ****     |---------|---------|-----------|---------------------------------------|
 273:Drivers/STM32F0xx_HAL_Driver/Src/stm32f0xx_hal_uart.c ****     |    1    |    0    |    0      |    | SB |    7 bit data   | STB |     |
 274:Drivers/STM32F0xx_HAL_Driver/Src/stm32f0xx_hal_uart.c ****     |---------|---------|-----------|---------------------------------------|
 275:Drivers/STM32F0xx_HAL_Driver/Src/stm32f0xx_hal_uart.c ****     |    1    |    0    |    1      |    | SB | 6 bit data | PB | STB |     |
 276:Drivers/STM32F0xx_HAL_Driver/Src/stm32f0xx_hal_uart.c ****     +-----------------------------------------------------------------------+
 277:Drivers/STM32F0xx_HAL_Driver/Src/stm32f0xx_hal_uart.c **** 
 278:Drivers/STM32F0xx_HAL_Driver/Src/stm32f0xx_hal_uart.c ****   * @{
 279:Drivers/STM32F0xx_HAL_Driver/Src/stm32f0xx_hal_uart.c ****   */
 280:Drivers/STM32F0xx_HAL_Driver/Src/stm32f0xx_hal_uart.c **** 
 281:Drivers/STM32F0xx_HAL_Driver/Src/stm32f0xx_hal_uart.c **** /**
 282:Drivers/STM32F0xx_HAL_Driver/Src/stm32f0xx_hal_uart.c ****   * @brief Initialize the UART mode according to the specified
 283:Drivers/STM32F0xx_HAL_Driver/Src/stm32f0xx_hal_uart.c ****   *        parameters in the UART_InitTypeDef and initialize the associated handle.
 284:Drivers/STM32F0xx_HAL_Driver/Src/stm32f0xx_hal_uart.c ****   * @param huart UART handle.
 285:Drivers/STM32F0xx_HAL_Driver/Src/stm32f0xx_hal_uart.c ****   * @retval HAL status
 286:Drivers/STM32F0xx_HAL_Driver/Src/stm32f0xx_hal_uart.c ****   */
 287:Drivers/STM32F0xx_HAL_Driver/Src/stm32f0xx_hal_uart.c **** HAL_StatusTypeDef HAL_UART_Init(UART_HandleTypeDef *huart)
 288:Drivers/STM32F0xx_HAL_Driver/Src/stm32f0xx_hal_uart.c **** {
  27              		.loc 1 288 1
  28              		.cfi_startproc
  29              		@ args = 0, pretend = 0, frame = 8
  30              		@ frame_needed = 1, uses_anonymous_args = 0
  31 0000 80B5     		push	{r7, lr}
  32              	.LCFI0:
  33              		.cfi_def_cfa_offset 8
  34              		.cfi_offset 7, -8
  35              		.cfi_offset 14, -4
  36 0002 82B0     		sub	sp, sp, #8
  37              	.LCFI1:
  38              		.cfi_def_cfa_offset 16
  39 0004 00AF     		add	r7, sp, #0
  40              	.LCFI2:
  41              		.cfi_def_cfa_register 7
  42 0006 7860     		str	r0, [r7, #4]
 289:Drivers/STM32F0xx_HAL_Driver/Src/stm32f0xx_hal_uart.c ****   /* Check the UART handle allocation */
 290:Drivers/STM32F0xx_HAL_Driver/Src/stm32f0xx_hal_uart.c ****   if (huart == NULL)
  43              		.loc 1 290 6
  44 0008 7B68     		ldr	r3, [r7, #4]
  45 000a 002B     		cmp	r3, #0
  46 000c 01D1     		bne	.L2
 291:Drivers/STM32F0xx_HAL_Driver/Src/stm32f0xx_hal_uart.c ****   {
 292:Drivers/STM32F0xx_HAL_Driver/Src/stm32f0xx_hal_uart.c ****     return HAL_ERROR;
  47              		.loc 1 292 12
  48 000e 0123     		movs	r3, #1
  49 0010 44E0     		b	.L3
  50              	.L2:
 293:Drivers/STM32F0xx_HAL_Driver/Src/stm32f0xx_hal_uart.c ****   }
ARM GAS  /tmp/ccTcPcT8.s 			page 7


 294:Drivers/STM32F0xx_HAL_Driver/Src/stm32f0xx_hal_uart.c **** 
 295:Drivers/STM32F0xx_HAL_Driver/Src/stm32f0xx_hal_uart.c ****   if (huart->Init.HwFlowCtl != UART_HWCONTROL_NONE)
 296:Drivers/STM32F0xx_HAL_Driver/Src/stm32f0xx_hal_uart.c ****   {
 297:Drivers/STM32F0xx_HAL_Driver/Src/stm32f0xx_hal_uart.c ****     /* Check the parameters */
 298:Drivers/STM32F0xx_HAL_Driver/Src/stm32f0xx_hal_uart.c ****     assert_param(IS_UART_HWFLOW_INSTANCE(huart->Instance));
 299:Drivers/STM32F0xx_HAL_Driver/Src/stm32f0xx_hal_uart.c ****   }
 300:Drivers/STM32F0xx_HAL_Driver/Src/stm32f0xx_hal_uart.c ****   else
 301:Drivers/STM32F0xx_HAL_Driver/Src/stm32f0xx_hal_uart.c ****   {
 302:Drivers/STM32F0xx_HAL_Driver/Src/stm32f0xx_hal_uart.c ****     /* Check the parameters */
 303:Drivers/STM32F0xx_HAL_Driver/Src/stm32f0xx_hal_uart.c ****     assert_param(IS_UART_INSTANCE(huart->Instance));
 304:Drivers/STM32F0xx_HAL_Driver/Src/stm32f0xx_hal_uart.c ****   }
 305:Drivers/STM32F0xx_HAL_Driver/Src/stm32f0xx_hal_uart.c **** 
 306:Drivers/STM32F0xx_HAL_Driver/Src/stm32f0xx_hal_uart.c ****   if (huart->gState == HAL_UART_STATE_RESET)
  51              		.loc 1 306 12
  52 0012 7B68     		ldr	r3, [r7, #4]
  53 0014 5B6F     		ldr	r3, [r3, #116]
  54              		.loc 1 306 6
  55 0016 002B     		cmp	r3, #0
  56 0018 07D1     		bne	.L4
 307:Drivers/STM32F0xx_HAL_Driver/Src/stm32f0xx_hal_uart.c ****   {
 308:Drivers/STM32F0xx_HAL_Driver/Src/stm32f0xx_hal_uart.c ****     /* Allocate lock resource and initialize it */
 309:Drivers/STM32F0xx_HAL_Driver/Src/stm32f0xx_hal_uart.c ****     huart->Lock = HAL_UNLOCKED;
  57              		.loc 1 309 17
  58 001a 7B68     		ldr	r3, [r7, #4]
  59 001c 7022     		movs	r2, #112
  60 001e 0021     		movs	r1, #0
  61 0020 9954     		strb	r1, [r3, r2]
 310:Drivers/STM32F0xx_HAL_Driver/Src/stm32f0xx_hal_uart.c **** 
 311:Drivers/STM32F0xx_HAL_Driver/Src/stm32f0xx_hal_uart.c **** #if (USE_HAL_UART_REGISTER_CALLBACKS == 1)
 312:Drivers/STM32F0xx_HAL_Driver/Src/stm32f0xx_hal_uart.c ****     UART_InitCallbacksToDefault(huart);
 313:Drivers/STM32F0xx_HAL_Driver/Src/stm32f0xx_hal_uart.c **** 
 314:Drivers/STM32F0xx_HAL_Driver/Src/stm32f0xx_hal_uart.c ****     if (huart->MspInitCallback == NULL)
 315:Drivers/STM32F0xx_HAL_Driver/Src/stm32f0xx_hal_uart.c ****     {
 316:Drivers/STM32F0xx_HAL_Driver/Src/stm32f0xx_hal_uart.c ****       huart->MspInitCallback = HAL_UART_MspInit;
 317:Drivers/STM32F0xx_HAL_Driver/Src/stm32f0xx_hal_uart.c ****     }
 318:Drivers/STM32F0xx_HAL_Driver/Src/stm32f0xx_hal_uart.c **** 
 319:Drivers/STM32F0xx_HAL_Driver/Src/stm32f0xx_hal_uart.c ****     /* Init the low level hardware */
 320:Drivers/STM32F0xx_HAL_Driver/Src/stm32f0xx_hal_uart.c ****     huart->MspInitCallback(huart);
 321:Drivers/STM32F0xx_HAL_Driver/Src/stm32f0xx_hal_uart.c **** #else
 322:Drivers/STM32F0xx_HAL_Driver/Src/stm32f0xx_hal_uart.c ****     /* Init the low level hardware : GPIO, CLOCK */
 323:Drivers/STM32F0xx_HAL_Driver/Src/stm32f0xx_hal_uart.c ****     HAL_UART_MspInit(huart);
  62              		.loc 1 323 5
  63 0022 7B68     		ldr	r3, [r7, #4]
  64 0024 1800     		movs	r0, r3
  65 0026 FFF7FEFF 		bl	HAL_UART_MspInit
  66              	.L4:
 324:Drivers/STM32F0xx_HAL_Driver/Src/stm32f0xx_hal_uart.c **** #endif /* (USE_HAL_UART_REGISTER_CALLBACKS) */
 325:Drivers/STM32F0xx_HAL_Driver/Src/stm32f0xx_hal_uart.c ****   }
 326:Drivers/STM32F0xx_HAL_Driver/Src/stm32f0xx_hal_uart.c **** 
 327:Drivers/STM32F0xx_HAL_Driver/Src/stm32f0xx_hal_uart.c ****   huart->gState = HAL_UART_STATE_BUSY;
  67              		.loc 1 327 17
  68 002a 7B68     		ldr	r3, [r7, #4]
  69 002c 2422     		movs	r2, #36
  70 002e 5A67     		str	r2, [r3, #116]
 328:Drivers/STM32F0xx_HAL_Driver/Src/stm32f0xx_hal_uart.c **** 
 329:Drivers/STM32F0xx_HAL_Driver/Src/stm32f0xx_hal_uart.c ****   __HAL_UART_DISABLE(huart);
  71              		.loc 1 329 3
ARM GAS  /tmp/ccTcPcT8.s 			page 8


  72 0030 7B68     		ldr	r3, [r7, #4]
  73 0032 1B68     		ldr	r3, [r3]
  74 0034 1A68     		ldr	r2, [r3]
  75 0036 7B68     		ldr	r3, [r7, #4]
  76 0038 1B68     		ldr	r3, [r3]
  77 003a 0121     		movs	r1, #1
  78 003c 8A43     		bics	r2, r1
  79 003e 1A60     		str	r2, [r3]
 330:Drivers/STM32F0xx_HAL_Driver/Src/stm32f0xx_hal_uart.c **** 
 331:Drivers/STM32F0xx_HAL_Driver/Src/stm32f0xx_hal_uart.c ****   /* Set the UART Communication parameters */
 332:Drivers/STM32F0xx_HAL_Driver/Src/stm32f0xx_hal_uart.c ****   if (UART_SetConfig(huart) == HAL_ERROR)
  80              		.loc 1 332 7
  81 0040 7B68     		ldr	r3, [r7, #4]
  82 0042 1800     		movs	r0, r3
  83 0044 FFF7FEFF 		bl	UART_SetConfig
  84 0048 0300     		movs	r3, r0
  85              		.loc 1 332 6 discriminator 1
  86 004a 012B     		cmp	r3, #1
  87 004c 01D1     		bne	.L5
 333:Drivers/STM32F0xx_HAL_Driver/Src/stm32f0xx_hal_uart.c ****   {
 334:Drivers/STM32F0xx_HAL_Driver/Src/stm32f0xx_hal_uart.c ****     return HAL_ERROR;
  88              		.loc 1 334 12
  89 004e 0123     		movs	r3, #1
  90 0050 24E0     		b	.L3
  91              	.L5:
 335:Drivers/STM32F0xx_HAL_Driver/Src/stm32f0xx_hal_uart.c ****   }
 336:Drivers/STM32F0xx_HAL_Driver/Src/stm32f0xx_hal_uart.c **** 
 337:Drivers/STM32F0xx_HAL_Driver/Src/stm32f0xx_hal_uart.c ****   if (huart->AdvancedInit.AdvFeatureInit != UART_ADVFEATURE_NO_INIT)
  92              		.loc 1 337 26
  93 0052 7B68     		ldr	r3, [r7, #4]
  94 0054 5B6A     		ldr	r3, [r3, #36]
  95              		.loc 1 337 6
  96 0056 002B     		cmp	r3, #0
  97 0058 03D0     		beq	.L6
 338:Drivers/STM32F0xx_HAL_Driver/Src/stm32f0xx_hal_uart.c ****   {
 339:Drivers/STM32F0xx_HAL_Driver/Src/stm32f0xx_hal_uart.c ****     UART_AdvFeatureConfig(huart);
  98              		.loc 1 339 5
  99 005a 7B68     		ldr	r3, [r7, #4]
 100 005c 1800     		movs	r0, r3
 101 005e FFF7FEFF 		bl	UART_AdvFeatureConfig
 102              	.L6:
 340:Drivers/STM32F0xx_HAL_Driver/Src/stm32f0xx_hal_uart.c ****   }
 341:Drivers/STM32F0xx_HAL_Driver/Src/stm32f0xx_hal_uart.c **** 
 342:Drivers/STM32F0xx_HAL_Driver/Src/stm32f0xx_hal_uart.c ****   /* In asynchronous mode, the following bits must be kept cleared:
 343:Drivers/STM32F0xx_HAL_Driver/Src/stm32f0xx_hal_uart.c ****   - LINEN (if LIN is supported) and CLKEN bits in the USART_CR2 register,
 344:Drivers/STM32F0xx_HAL_Driver/Src/stm32f0xx_hal_uart.c ****   - SCEN (if Smartcard is supported), HDSEL and IREN (if IrDA is supported)  bits in the USART_CR3 
 345:Drivers/STM32F0xx_HAL_Driver/Src/stm32f0xx_hal_uart.c **** #if defined (USART_CR2_LINEN)
 346:Drivers/STM32F0xx_HAL_Driver/Src/stm32f0xx_hal_uart.c ****   CLEAR_BIT(huart->Instance->CR2, (USART_CR2_LINEN | USART_CR2_CLKEN));
 347:Drivers/STM32F0xx_HAL_Driver/Src/stm32f0xx_hal_uart.c **** #else
 348:Drivers/STM32F0xx_HAL_Driver/Src/stm32f0xx_hal_uart.c ****   CLEAR_BIT(huart->Instance->CR2, USART_CR2_CLKEN);
 103              		.loc 1 348 3
 104 0062 7B68     		ldr	r3, [r7, #4]
 105 0064 1B68     		ldr	r3, [r3]
 106 0066 5A68     		ldr	r2, [r3, #4]
 107 0068 7B68     		ldr	r3, [r7, #4]
 108 006a 1B68     		ldr	r3, [r3]
 109 006c 0D49     		ldr	r1, .L7
ARM GAS  /tmp/ccTcPcT8.s 			page 9


 110 006e 0A40     		ands	r2, r1
 111 0070 5A60     		str	r2, [r3, #4]
 349:Drivers/STM32F0xx_HAL_Driver/Src/stm32f0xx_hal_uart.c **** #endif /* USART_CR2_LINEN */
 350:Drivers/STM32F0xx_HAL_Driver/Src/stm32f0xx_hal_uart.c **** #if defined (USART_CR3_SCEN)
 351:Drivers/STM32F0xx_HAL_Driver/Src/stm32f0xx_hal_uart.c **** #if defined (USART_CR3_IREN)
 352:Drivers/STM32F0xx_HAL_Driver/Src/stm32f0xx_hal_uart.c ****   CLEAR_BIT(huart->Instance->CR3, (USART_CR3_SCEN | USART_CR3_HDSEL | USART_CR3_IREN));
 353:Drivers/STM32F0xx_HAL_Driver/Src/stm32f0xx_hal_uart.c **** #else
 354:Drivers/STM32F0xx_HAL_Driver/Src/stm32f0xx_hal_uart.c ****   CLEAR_BIT(huart->Instance->CR3, (USART_CR3_SCEN | USART_CR3_HDSEL));
 355:Drivers/STM32F0xx_HAL_Driver/Src/stm32f0xx_hal_uart.c **** #endif /* USART_CR3_IREN */
 356:Drivers/STM32F0xx_HAL_Driver/Src/stm32f0xx_hal_uart.c **** #else
 357:Drivers/STM32F0xx_HAL_Driver/Src/stm32f0xx_hal_uart.c **** #if defined (USART_CR3_IREN)
 358:Drivers/STM32F0xx_HAL_Driver/Src/stm32f0xx_hal_uart.c ****   CLEAR_BIT(huart->Instance->CR3, (USART_CR3_HDSEL | USART_CR3_IREN));
 359:Drivers/STM32F0xx_HAL_Driver/Src/stm32f0xx_hal_uart.c **** #else
 360:Drivers/STM32F0xx_HAL_Driver/Src/stm32f0xx_hal_uart.c ****   CLEAR_BIT(huart->Instance->CR3, USART_CR3_HDSEL);
 112              		.loc 1 360 3
 113 0072 7B68     		ldr	r3, [r7, #4]
 114 0074 1B68     		ldr	r3, [r3]
 115 0076 9A68     		ldr	r2, [r3, #8]
 116 0078 7B68     		ldr	r3, [r7, #4]
 117 007a 1B68     		ldr	r3, [r3]
 118 007c 0821     		movs	r1, #8
 119 007e 8A43     		bics	r2, r1
 120 0080 9A60     		str	r2, [r3, #8]
 361:Drivers/STM32F0xx_HAL_Driver/Src/stm32f0xx_hal_uart.c **** #endif /* USART_CR3_IREN*/
 362:Drivers/STM32F0xx_HAL_Driver/Src/stm32f0xx_hal_uart.c **** #endif /* USART_CR3_SCEN */
 363:Drivers/STM32F0xx_HAL_Driver/Src/stm32f0xx_hal_uart.c **** 
 364:Drivers/STM32F0xx_HAL_Driver/Src/stm32f0xx_hal_uart.c ****   __HAL_UART_ENABLE(huart);
 121              		.loc 1 364 3
 122 0082 7B68     		ldr	r3, [r7, #4]
 123 0084 1B68     		ldr	r3, [r3]
 124 0086 1A68     		ldr	r2, [r3]
 125 0088 7B68     		ldr	r3, [r7, #4]
 126 008a 1B68     		ldr	r3, [r3]
 127 008c 0121     		movs	r1, #1
 128 008e 0A43     		orrs	r2, r1
 129 0090 1A60     		str	r2, [r3]
 365:Drivers/STM32F0xx_HAL_Driver/Src/stm32f0xx_hal_uart.c **** 
 366:Drivers/STM32F0xx_HAL_Driver/Src/stm32f0xx_hal_uart.c ****   /* TEACK and/or REACK to check before moving huart->gState and huart->RxState to Ready */
 367:Drivers/STM32F0xx_HAL_Driver/Src/stm32f0xx_hal_uart.c ****   return (UART_CheckIdleState(huart));
 130              		.loc 1 367 11
 131 0092 7B68     		ldr	r3, [r7, #4]
 132 0094 1800     		movs	r0, r3
 133 0096 FFF7FEFF 		bl	UART_CheckIdleState
 134 009a 0300     		movs	r3, r0
 135              	.L3:
 368:Drivers/STM32F0xx_HAL_Driver/Src/stm32f0xx_hal_uart.c **** }
 136              		.loc 1 368 1
 137 009c 1800     		movs	r0, r3
 138 009e BD46     		mov	sp, r7
 139 00a0 02B0     		add	sp, sp, #8
 140              		@ sp needed
 141 00a2 80BD     		pop	{r7, pc}
 142              	.L8:
 143              		.align	2
 144              	.L7:
 145 00a4 FFF7FFFF 		.word	-2049
 146              		.cfi_endproc
ARM GAS  /tmp/ccTcPcT8.s 			page 10


 147              	.LFE40:
 149              		.section	.text.HAL_HalfDuplex_Init,"ax",%progbits
 150              		.align	1
 151              		.global	HAL_HalfDuplex_Init
 152              		.syntax unified
 153              		.code	16
 154              		.thumb_func
 156              	HAL_HalfDuplex_Init:
 157              	.LFB41:
 369:Drivers/STM32F0xx_HAL_Driver/Src/stm32f0xx_hal_uart.c **** 
 370:Drivers/STM32F0xx_HAL_Driver/Src/stm32f0xx_hal_uart.c **** /**
 371:Drivers/STM32F0xx_HAL_Driver/Src/stm32f0xx_hal_uart.c ****   * @brief Initialize the half-duplex mode according to the specified
 372:Drivers/STM32F0xx_HAL_Driver/Src/stm32f0xx_hal_uart.c ****   *        parameters in the UART_InitTypeDef and creates the associated handle.
 373:Drivers/STM32F0xx_HAL_Driver/Src/stm32f0xx_hal_uart.c ****   * @param huart UART handle.
 374:Drivers/STM32F0xx_HAL_Driver/Src/stm32f0xx_hal_uart.c ****   * @retval HAL status
 375:Drivers/STM32F0xx_HAL_Driver/Src/stm32f0xx_hal_uart.c ****   */
 376:Drivers/STM32F0xx_HAL_Driver/Src/stm32f0xx_hal_uart.c **** HAL_StatusTypeDef HAL_HalfDuplex_Init(UART_HandleTypeDef *huart)
 377:Drivers/STM32F0xx_HAL_Driver/Src/stm32f0xx_hal_uart.c **** {
 158              		.loc 1 377 1
 159              		.cfi_startproc
 160              		@ args = 0, pretend = 0, frame = 8
 161              		@ frame_needed = 1, uses_anonymous_args = 0
 162 0000 80B5     		push	{r7, lr}
 163              	.LCFI3:
 164              		.cfi_def_cfa_offset 8
 165              		.cfi_offset 7, -8
 166              		.cfi_offset 14, -4
 167 0002 82B0     		sub	sp, sp, #8
 168              	.LCFI4:
 169              		.cfi_def_cfa_offset 16
 170 0004 00AF     		add	r7, sp, #0
 171              	.LCFI5:
 172              		.cfi_def_cfa_register 7
 173 0006 7860     		str	r0, [r7, #4]
 378:Drivers/STM32F0xx_HAL_Driver/Src/stm32f0xx_hal_uart.c ****   /* Check the UART handle allocation */
 379:Drivers/STM32F0xx_HAL_Driver/Src/stm32f0xx_hal_uart.c ****   if (huart == NULL)
 174              		.loc 1 379 6
 175 0008 7B68     		ldr	r3, [r7, #4]
 176 000a 002B     		cmp	r3, #0
 177 000c 01D1     		bne	.L10
 380:Drivers/STM32F0xx_HAL_Driver/Src/stm32f0xx_hal_uart.c ****   {
 381:Drivers/STM32F0xx_HAL_Driver/Src/stm32f0xx_hal_uart.c ****     return HAL_ERROR;
 178              		.loc 1 381 12
 179 000e 0123     		movs	r3, #1
 180 0010 44E0     		b	.L11
 181              	.L10:
 382:Drivers/STM32F0xx_HAL_Driver/Src/stm32f0xx_hal_uart.c ****   }
 383:Drivers/STM32F0xx_HAL_Driver/Src/stm32f0xx_hal_uart.c **** 
 384:Drivers/STM32F0xx_HAL_Driver/Src/stm32f0xx_hal_uart.c ****   /* Check UART instance */
 385:Drivers/STM32F0xx_HAL_Driver/Src/stm32f0xx_hal_uart.c ****   assert_param(IS_UART_HALFDUPLEX_INSTANCE(huart->Instance));
 386:Drivers/STM32F0xx_HAL_Driver/Src/stm32f0xx_hal_uart.c **** 
 387:Drivers/STM32F0xx_HAL_Driver/Src/stm32f0xx_hal_uart.c ****   if (huart->gState == HAL_UART_STATE_RESET)
 182              		.loc 1 387 12
 183 0012 7B68     		ldr	r3, [r7, #4]
 184 0014 5B6F     		ldr	r3, [r3, #116]
 185              		.loc 1 387 6
 186 0016 002B     		cmp	r3, #0
ARM GAS  /tmp/ccTcPcT8.s 			page 11


 187 0018 07D1     		bne	.L12
 388:Drivers/STM32F0xx_HAL_Driver/Src/stm32f0xx_hal_uart.c ****   {
 389:Drivers/STM32F0xx_HAL_Driver/Src/stm32f0xx_hal_uart.c ****     /* Allocate lock resource and initialize it */
 390:Drivers/STM32F0xx_HAL_Driver/Src/stm32f0xx_hal_uart.c ****     huart->Lock = HAL_UNLOCKED;
 188              		.loc 1 390 17
 189 001a 7B68     		ldr	r3, [r7, #4]
 190 001c 7022     		movs	r2, #112
 191 001e 0021     		movs	r1, #0
 192 0020 9954     		strb	r1, [r3, r2]
 391:Drivers/STM32F0xx_HAL_Driver/Src/stm32f0xx_hal_uart.c **** 
 392:Drivers/STM32F0xx_HAL_Driver/Src/stm32f0xx_hal_uart.c **** #if (USE_HAL_UART_REGISTER_CALLBACKS == 1)
 393:Drivers/STM32F0xx_HAL_Driver/Src/stm32f0xx_hal_uart.c ****     UART_InitCallbacksToDefault(huart);
 394:Drivers/STM32F0xx_HAL_Driver/Src/stm32f0xx_hal_uart.c **** 
 395:Drivers/STM32F0xx_HAL_Driver/Src/stm32f0xx_hal_uart.c ****     if (huart->MspInitCallback == NULL)
 396:Drivers/STM32F0xx_HAL_Driver/Src/stm32f0xx_hal_uart.c ****     {
 397:Drivers/STM32F0xx_HAL_Driver/Src/stm32f0xx_hal_uart.c ****       huart->MspInitCallback = HAL_UART_MspInit;
 398:Drivers/STM32F0xx_HAL_Driver/Src/stm32f0xx_hal_uart.c ****     }
 399:Drivers/STM32F0xx_HAL_Driver/Src/stm32f0xx_hal_uart.c **** 
 400:Drivers/STM32F0xx_HAL_Driver/Src/stm32f0xx_hal_uart.c ****     /* Init the low level hardware */
 401:Drivers/STM32F0xx_HAL_Driver/Src/stm32f0xx_hal_uart.c ****     huart->MspInitCallback(huart);
 402:Drivers/STM32F0xx_HAL_Driver/Src/stm32f0xx_hal_uart.c **** #else
 403:Drivers/STM32F0xx_HAL_Driver/Src/stm32f0xx_hal_uart.c ****     /* Init the low level hardware : GPIO, CLOCK */
 404:Drivers/STM32F0xx_HAL_Driver/Src/stm32f0xx_hal_uart.c ****     HAL_UART_MspInit(huart);
 193              		.loc 1 404 5
 194 0022 7B68     		ldr	r3, [r7, #4]
 195 0024 1800     		movs	r0, r3
 196 0026 FFF7FEFF 		bl	HAL_UART_MspInit
 197              	.L12:
 405:Drivers/STM32F0xx_HAL_Driver/Src/stm32f0xx_hal_uart.c **** #endif /* (USE_HAL_UART_REGISTER_CALLBACKS) */
 406:Drivers/STM32F0xx_HAL_Driver/Src/stm32f0xx_hal_uart.c ****   }
 407:Drivers/STM32F0xx_HAL_Driver/Src/stm32f0xx_hal_uart.c **** 
 408:Drivers/STM32F0xx_HAL_Driver/Src/stm32f0xx_hal_uart.c ****   huart->gState = HAL_UART_STATE_BUSY;
 198              		.loc 1 408 17
 199 002a 7B68     		ldr	r3, [r7, #4]
 200 002c 2422     		movs	r2, #36
 201 002e 5A67     		str	r2, [r3, #116]
 409:Drivers/STM32F0xx_HAL_Driver/Src/stm32f0xx_hal_uart.c **** 
 410:Drivers/STM32F0xx_HAL_Driver/Src/stm32f0xx_hal_uart.c ****   __HAL_UART_DISABLE(huart);
 202              		.loc 1 410 3
 203 0030 7B68     		ldr	r3, [r7, #4]
 204 0032 1B68     		ldr	r3, [r3]
 205 0034 1A68     		ldr	r2, [r3]
 206 0036 7B68     		ldr	r3, [r7, #4]
 207 0038 1B68     		ldr	r3, [r3]
 208 003a 0121     		movs	r1, #1
 209 003c 8A43     		bics	r2, r1
 210 003e 1A60     		str	r2, [r3]
 411:Drivers/STM32F0xx_HAL_Driver/Src/stm32f0xx_hal_uart.c **** 
 412:Drivers/STM32F0xx_HAL_Driver/Src/stm32f0xx_hal_uart.c ****   /* Set the UART Communication parameters */
 413:Drivers/STM32F0xx_HAL_Driver/Src/stm32f0xx_hal_uart.c ****   if (UART_SetConfig(huart) == HAL_ERROR)
 211              		.loc 1 413 7
 212 0040 7B68     		ldr	r3, [r7, #4]
 213 0042 1800     		movs	r0, r3
 214 0044 FFF7FEFF 		bl	UART_SetConfig
 215 0048 0300     		movs	r3, r0
 216              		.loc 1 413 6 discriminator 1
 217 004a 012B     		cmp	r3, #1
ARM GAS  /tmp/ccTcPcT8.s 			page 12


 218 004c 01D1     		bne	.L13
 414:Drivers/STM32F0xx_HAL_Driver/Src/stm32f0xx_hal_uart.c ****   {
 415:Drivers/STM32F0xx_HAL_Driver/Src/stm32f0xx_hal_uart.c ****     return HAL_ERROR;
 219              		.loc 1 415 12
 220 004e 0123     		movs	r3, #1
 221 0050 24E0     		b	.L11
 222              	.L13:
 416:Drivers/STM32F0xx_HAL_Driver/Src/stm32f0xx_hal_uart.c ****   }
 417:Drivers/STM32F0xx_HAL_Driver/Src/stm32f0xx_hal_uart.c **** 
 418:Drivers/STM32F0xx_HAL_Driver/Src/stm32f0xx_hal_uart.c ****   if (huart->AdvancedInit.AdvFeatureInit != UART_ADVFEATURE_NO_INIT)
 223              		.loc 1 418 26
 224 0052 7B68     		ldr	r3, [r7, #4]
 225 0054 5B6A     		ldr	r3, [r3, #36]
 226              		.loc 1 418 6
 227 0056 002B     		cmp	r3, #0
 228 0058 03D0     		beq	.L14
 419:Drivers/STM32F0xx_HAL_Driver/Src/stm32f0xx_hal_uart.c ****   {
 420:Drivers/STM32F0xx_HAL_Driver/Src/stm32f0xx_hal_uart.c ****     UART_AdvFeatureConfig(huart);
 229              		.loc 1 420 5
 230 005a 7B68     		ldr	r3, [r7, #4]
 231 005c 1800     		movs	r0, r3
 232 005e FFF7FEFF 		bl	UART_AdvFeatureConfig
 233              	.L14:
 421:Drivers/STM32F0xx_HAL_Driver/Src/stm32f0xx_hal_uart.c ****   }
 422:Drivers/STM32F0xx_HAL_Driver/Src/stm32f0xx_hal_uart.c **** 
 423:Drivers/STM32F0xx_HAL_Driver/Src/stm32f0xx_hal_uart.c ****   /* In half-duplex mode, the following bits must be kept cleared:
 424:Drivers/STM32F0xx_HAL_Driver/Src/stm32f0xx_hal_uart.c ****   - LINEN (if LIN is supported) and CLKEN bits in the USART_CR2 register,
 425:Drivers/STM32F0xx_HAL_Driver/Src/stm32f0xx_hal_uart.c ****   - SCEN (if Smartcard is supported) and IREN (if IrDA is supported) bits in the USART_CR3 register
 426:Drivers/STM32F0xx_HAL_Driver/Src/stm32f0xx_hal_uart.c **** #if defined (USART_CR2_LINEN)
 427:Drivers/STM32F0xx_HAL_Driver/Src/stm32f0xx_hal_uart.c ****   CLEAR_BIT(huart->Instance->CR2, (USART_CR2_LINEN | USART_CR2_CLKEN));
 428:Drivers/STM32F0xx_HAL_Driver/Src/stm32f0xx_hal_uart.c **** #else
 429:Drivers/STM32F0xx_HAL_Driver/Src/stm32f0xx_hal_uart.c ****   CLEAR_BIT(huart->Instance->CR2, USART_CR2_CLKEN);
 234              		.loc 1 429 3
 235 0062 7B68     		ldr	r3, [r7, #4]
 236 0064 1B68     		ldr	r3, [r3]
 237 0066 5A68     		ldr	r2, [r3, #4]
 238 0068 7B68     		ldr	r3, [r7, #4]
 239 006a 1B68     		ldr	r3, [r3]
 240 006c 0D49     		ldr	r1, .L15
 241 006e 0A40     		ands	r2, r1
 242 0070 5A60     		str	r2, [r3, #4]
 430:Drivers/STM32F0xx_HAL_Driver/Src/stm32f0xx_hal_uart.c **** #endif /* USART_CR2_LINEN */
 431:Drivers/STM32F0xx_HAL_Driver/Src/stm32f0xx_hal_uart.c **** #if defined (USART_CR3_SCEN)
 432:Drivers/STM32F0xx_HAL_Driver/Src/stm32f0xx_hal_uart.c **** #if defined (USART_CR3_IREN)
 433:Drivers/STM32F0xx_HAL_Driver/Src/stm32f0xx_hal_uart.c ****   CLEAR_BIT(huart->Instance->CR3, (USART_CR3_IREN | USART_CR3_SCEN));
 434:Drivers/STM32F0xx_HAL_Driver/Src/stm32f0xx_hal_uart.c **** #else
 435:Drivers/STM32F0xx_HAL_Driver/Src/stm32f0xx_hal_uart.c ****   CLEAR_BIT(huart->Instance->CR3, USART_CR3_SCEN);
 436:Drivers/STM32F0xx_HAL_Driver/Src/stm32f0xx_hal_uart.c **** #endif /* USART_CR3_IREN */
 437:Drivers/STM32F0xx_HAL_Driver/Src/stm32f0xx_hal_uart.c **** #else
 438:Drivers/STM32F0xx_HAL_Driver/Src/stm32f0xx_hal_uart.c **** #if defined (USART_CR3_IREN)
 439:Drivers/STM32F0xx_HAL_Driver/Src/stm32f0xx_hal_uart.c ****   CLEAR_BIT(huart->Instance->CR3, USART_CR3_IREN);
 440:Drivers/STM32F0xx_HAL_Driver/Src/stm32f0xx_hal_uart.c **** #endif /* USART_CR3_IREN */
 441:Drivers/STM32F0xx_HAL_Driver/Src/stm32f0xx_hal_uart.c **** #endif /* USART_CR3_SCEN */
 442:Drivers/STM32F0xx_HAL_Driver/Src/stm32f0xx_hal_uart.c **** 
 443:Drivers/STM32F0xx_HAL_Driver/Src/stm32f0xx_hal_uart.c ****   /* Enable the Half-Duplex mode by setting the HDSEL bit in the CR3 register */
 444:Drivers/STM32F0xx_HAL_Driver/Src/stm32f0xx_hal_uart.c ****   SET_BIT(huart->Instance->CR3, USART_CR3_HDSEL);
 243              		.loc 1 444 3
ARM GAS  /tmp/ccTcPcT8.s 			page 13


 244 0072 7B68     		ldr	r3, [r7, #4]
 245 0074 1B68     		ldr	r3, [r3]
 246 0076 9A68     		ldr	r2, [r3, #8]
 247 0078 7B68     		ldr	r3, [r7, #4]
 248 007a 1B68     		ldr	r3, [r3]
 249 007c 0821     		movs	r1, #8
 250 007e 0A43     		orrs	r2, r1
 251 0080 9A60     		str	r2, [r3, #8]
 445:Drivers/STM32F0xx_HAL_Driver/Src/stm32f0xx_hal_uart.c **** 
 446:Drivers/STM32F0xx_HAL_Driver/Src/stm32f0xx_hal_uart.c ****   __HAL_UART_ENABLE(huart);
 252              		.loc 1 446 3
 253 0082 7B68     		ldr	r3, [r7, #4]
 254 0084 1B68     		ldr	r3, [r3]
 255 0086 1A68     		ldr	r2, [r3]
 256 0088 7B68     		ldr	r3, [r7, #4]
 257 008a 1B68     		ldr	r3, [r3]
 258 008c 0121     		movs	r1, #1
 259 008e 0A43     		orrs	r2, r1
 260 0090 1A60     		str	r2, [r3]
 447:Drivers/STM32F0xx_HAL_Driver/Src/stm32f0xx_hal_uart.c **** 
 448:Drivers/STM32F0xx_HAL_Driver/Src/stm32f0xx_hal_uart.c ****   /* TEACK and/or REACK to check before moving huart->gState and huart->RxState to Ready */
 449:Drivers/STM32F0xx_HAL_Driver/Src/stm32f0xx_hal_uart.c ****   return (UART_CheckIdleState(huart));
 261              		.loc 1 449 11
 262 0092 7B68     		ldr	r3, [r7, #4]
 263 0094 1800     		movs	r0, r3
 264 0096 FFF7FEFF 		bl	UART_CheckIdleState
 265 009a 0300     		movs	r3, r0
 266              	.L11:
 450:Drivers/STM32F0xx_HAL_Driver/Src/stm32f0xx_hal_uart.c **** }
 267              		.loc 1 450 1
 268 009c 1800     		movs	r0, r3
 269 009e BD46     		mov	sp, r7
 270 00a0 02B0     		add	sp, sp, #8
 271              		@ sp needed
 272 00a2 80BD     		pop	{r7, pc}
 273              	.L16:
 274              		.align	2
 275              	.L15:
 276 00a4 FFF7FFFF 		.word	-2049
 277              		.cfi_endproc
 278              	.LFE41:
 280              		.section	.text.HAL_MultiProcessor_Init,"ax",%progbits
 281              		.align	1
 282              		.global	HAL_MultiProcessor_Init
 283              		.syntax unified
 284              		.code	16
 285              		.thumb_func
 287              	HAL_MultiProcessor_Init:
 288              	.LFB42:
 451:Drivers/STM32F0xx_HAL_Driver/Src/stm32f0xx_hal_uart.c **** 
 452:Drivers/STM32F0xx_HAL_Driver/Src/stm32f0xx_hal_uart.c **** 
 453:Drivers/STM32F0xx_HAL_Driver/Src/stm32f0xx_hal_uart.c **** #if   defined(USART_CR2_LINEN)
 454:Drivers/STM32F0xx_HAL_Driver/Src/stm32f0xx_hal_uart.c **** /**
 455:Drivers/STM32F0xx_HAL_Driver/Src/stm32f0xx_hal_uart.c ****   * @brief Initialize the LIN mode according to the specified
 456:Drivers/STM32F0xx_HAL_Driver/Src/stm32f0xx_hal_uart.c ****   *        parameters in the UART_InitTypeDef and creates the associated handle.
 457:Drivers/STM32F0xx_HAL_Driver/Src/stm32f0xx_hal_uart.c ****   * @param huart             UART handle.
 458:Drivers/STM32F0xx_HAL_Driver/Src/stm32f0xx_hal_uart.c ****   * @param BreakDetectLength Specifies the LIN break detection length.
ARM GAS  /tmp/ccTcPcT8.s 			page 14


 459:Drivers/STM32F0xx_HAL_Driver/Src/stm32f0xx_hal_uart.c ****   *        This parameter can be one of the following values:
 460:Drivers/STM32F0xx_HAL_Driver/Src/stm32f0xx_hal_uart.c ****   *          @arg @ref UART_LINBREAKDETECTLENGTH_10B 10-bit break detection
 461:Drivers/STM32F0xx_HAL_Driver/Src/stm32f0xx_hal_uart.c ****   *          @arg @ref UART_LINBREAKDETECTLENGTH_11B 11-bit break detection
 462:Drivers/STM32F0xx_HAL_Driver/Src/stm32f0xx_hal_uart.c ****   * @retval HAL status
 463:Drivers/STM32F0xx_HAL_Driver/Src/stm32f0xx_hal_uart.c ****   */
 464:Drivers/STM32F0xx_HAL_Driver/Src/stm32f0xx_hal_uart.c **** HAL_StatusTypeDef HAL_LIN_Init(UART_HandleTypeDef *huart, uint32_t BreakDetectLength)
 465:Drivers/STM32F0xx_HAL_Driver/Src/stm32f0xx_hal_uart.c **** {
 466:Drivers/STM32F0xx_HAL_Driver/Src/stm32f0xx_hal_uart.c ****   /* Check the UART handle allocation */
 467:Drivers/STM32F0xx_HAL_Driver/Src/stm32f0xx_hal_uart.c ****   if (huart == NULL)
 468:Drivers/STM32F0xx_HAL_Driver/Src/stm32f0xx_hal_uart.c ****   {
 469:Drivers/STM32F0xx_HAL_Driver/Src/stm32f0xx_hal_uart.c ****     return HAL_ERROR;
 470:Drivers/STM32F0xx_HAL_Driver/Src/stm32f0xx_hal_uart.c ****   }
 471:Drivers/STM32F0xx_HAL_Driver/Src/stm32f0xx_hal_uart.c **** 
 472:Drivers/STM32F0xx_HAL_Driver/Src/stm32f0xx_hal_uart.c ****   /* Check the LIN UART instance */
 473:Drivers/STM32F0xx_HAL_Driver/Src/stm32f0xx_hal_uart.c ****   assert_param(IS_UART_LIN_INSTANCE(huart->Instance));
 474:Drivers/STM32F0xx_HAL_Driver/Src/stm32f0xx_hal_uart.c ****   /* Check the Break detection length parameter */
 475:Drivers/STM32F0xx_HAL_Driver/Src/stm32f0xx_hal_uart.c ****   assert_param(IS_UART_LIN_BREAK_DETECT_LENGTH(BreakDetectLength));
 476:Drivers/STM32F0xx_HAL_Driver/Src/stm32f0xx_hal_uart.c **** 
 477:Drivers/STM32F0xx_HAL_Driver/Src/stm32f0xx_hal_uart.c ****   /* LIN mode limited to 16-bit oversampling only */
 478:Drivers/STM32F0xx_HAL_Driver/Src/stm32f0xx_hal_uart.c ****   if (huart->Init.OverSampling == UART_OVERSAMPLING_8)
 479:Drivers/STM32F0xx_HAL_Driver/Src/stm32f0xx_hal_uart.c ****   {
 480:Drivers/STM32F0xx_HAL_Driver/Src/stm32f0xx_hal_uart.c ****     return HAL_ERROR;
 481:Drivers/STM32F0xx_HAL_Driver/Src/stm32f0xx_hal_uart.c ****   }
 482:Drivers/STM32F0xx_HAL_Driver/Src/stm32f0xx_hal_uart.c ****   /* LIN mode limited to 8-bit data length */
 483:Drivers/STM32F0xx_HAL_Driver/Src/stm32f0xx_hal_uart.c ****   if (huart->Init.WordLength != UART_WORDLENGTH_8B)
 484:Drivers/STM32F0xx_HAL_Driver/Src/stm32f0xx_hal_uart.c ****   {
 485:Drivers/STM32F0xx_HAL_Driver/Src/stm32f0xx_hal_uart.c ****     return HAL_ERROR;
 486:Drivers/STM32F0xx_HAL_Driver/Src/stm32f0xx_hal_uart.c ****   }
 487:Drivers/STM32F0xx_HAL_Driver/Src/stm32f0xx_hal_uart.c **** 
 488:Drivers/STM32F0xx_HAL_Driver/Src/stm32f0xx_hal_uart.c ****   if (huart->gState == HAL_UART_STATE_RESET)
 489:Drivers/STM32F0xx_HAL_Driver/Src/stm32f0xx_hal_uart.c ****   {
 490:Drivers/STM32F0xx_HAL_Driver/Src/stm32f0xx_hal_uart.c ****     /* Allocate lock resource and initialize it */
 491:Drivers/STM32F0xx_HAL_Driver/Src/stm32f0xx_hal_uart.c ****     huart->Lock = HAL_UNLOCKED;
 492:Drivers/STM32F0xx_HAL_Driver/Src/stm32f0xx_hal_uart.c **** 
 493:Drivers/STM32F0xx_HAL_Driver/Src/stm32f0xx_hal_uart.c **** #if (USE_HAL_UART_REGISTER_CALLBACKS == 1)
 494:Drivers/STM32F0xx_HAL_Driver/Src/stm32f0xx_hal_uart.c ****     UART_InitCallbacksToDefault(huart);
 495:Drivers/STM32F0xx_HAL_Driver/Src/stm32f0xx_hal_uart.c **** 
 496:Drivers/STM32F0xx_HAL_Driver/Src/stm32f0xx_hal_uart.c ****     if (huart->MspInitCallback == NULL)
 497:Drivers/STM32F0xx_HAL_Driver/Src/stm32f0xx_hal_uart.c ****     {
 498:Drivers/STM32F0xx_HAL_Driver/Src/stm32f0xx_hal_uart.c ****       huart->MspInitCallback = HAL_UART_MspInit;
 499:Drivers/STM32F0xx_HAL_Driver/Src/stm32f0xx_hal_uart.c ****     }
 500:Drivers/STM32F0xx_HAL_Driver/Src/stm32f0xx_hal_uart.c **** 
 501:Drivers/STM32F0xx_HAL_Driver/Src/stm32f0xx_hal_uart.c ****     /* Init the low level hardware */
 502:Drivers/STM32F0xx_HAL_Driver/Src/stm32f0xx_hal_uart.c ****     huart->MspInitCallback(huart);
 503:Drivers/STM32F0xx_HAL_Driver/Src/stm32f0xx_hal_uart.c **** #else
 504:Drivers/STM32F0xx_HAL_Driver/Src/stm32f0xx_hal_uart.c ****     /* Init the low level hardware : GPIO, CLOCK */
 505:Drivers/STM32F0xx_HAL_Driver/Src/stm32f0xx_hal_uart.c ****     HAL_UART_MspInit(huart);
 506:Drivers/STM32F0xx_HAL_Driver/Src/stm32f0xx_hal_uart.c **** #endif /* (USE_HAL_UART_REGISTER_CALLBACKS) */
 507:Drivers/STM32F0xx_HAL_Driver/Src/stm32f0xx_hal_uart.c ****   }
 508:Drivers/STM32F0xx_HAL_Driver/Src/stm32f0xx_hal_uart.c **** 
 509:Drivers/STM32F0xx_HAL_Driver/Src/stm32f0xx_hal_uart.c ****   huart->gState = HAL_UART_STATE_BUSY;
 510:Drivers/STM32F0xx_HAL_Driver/Src/stm32f0xx_hal_uart.c **** 
 511:Drivers/STM32F0xx_HAL_Driver/Src/stm32f0xx_hal_uart.c ****   __HAL_UART_DISABLE(huart);
 512:Drivers/STM32F0xx_HAL_Driver/Src/stm32f0xx_hal_uart.c **** 
 513:Drivers/STM32F0xx_HAL_Driver/Src/stm32f0xx_hal_uart.c ****   /* Set the UART Communication parameters */
 514:Drivers/STM32F0xx_HAL_Driver/Src/stm32f0xx_hal_uart.c ****   if (UART_SetConfig(huart) == HAL_ERROR)
 515:Drivers/STM32F0xx_HAL_Driver/Src/stm32f0xx_hal_uart.c ****   {
ARM GAS  /tmp/ccTcPcT8.s 			page 15


 516:Drivers/STM32F0xx_HAL_Driver/Src/stm32f0xx_hal_uart.c ****     return HAL_ERROR;
 517:Drivers/STM32F0xx_HAL_Driver/Src/stm32f0xx_hal_uart.c ****   }
 518:Drivers/STM32F0xx_HAL_Driver/Src/stm32f0xx_hal_uart.c **** 
 519:Drivers/STM32F0xx_HAL_Driver/Src/stm32f0xx_hal_uart.c ****   if (huart->AdvancedInit.AdvFeatureInit != UART_ADVFEATURE_NO_INIT)
 520:Drivers/STM32F0xx_HAL_Driver/Src/stm32f0xx_hal_uart.c ****   {
 521:Drivers/STM32F0xx_HAL_Driver/Src/stm32f0xx_hal_uart.c ****     UART_AdvFeatureConfig(huart);
 522:Drivers/STM32F0xx_HAL_Driver/Src/stm32f0xx_hal_uart.c ****   }
 523:Drivers/STM32F0xx_HAL_Driver/Src/stm32f0xx_hal_uart.c **** 
 524:Drivers/STM32F0xx_HAL_Driver/Src/stm32f0xx_hal_uart.c ****   /* In LIN mode, the following bits must be kept cleared:
 525:Drivers/STM32F0xx_HAL_Driver/Src/stm32f0xx_hal_uart.c ****   - LINEN and CLKEN bits in the USART_CR2 register,
 526:Drivers/STM32F0xx_HAL_Driver/Src/stm32f0xx_hal_uart.c ****   - SCEN(if Smartcard is supported) and IREN(if IrDA is supported) bits in the USART_CR3 register.*
 527:Drivers/STM32F0xx_HAL_Driver/Src/stm32f0xx_hal_uart.c ****   CLEAR_BIT(huart->Instance->CR2, (USART_CR2_LINEN | USART_CR2_CLKEN));
 528:Drivers/STM32F0xx_HAL_Driver/Src/stm32f0xx_hal_uart.c **** #if defined (USART_CR3_SCEN)
 529:Drivers/STM32F0xx_HAL_Driver/Src/stm32f0xx_hal_uart.c **** #if defined (USART_CR3_IREN)
 530:Drivers/STM32F0xx_HAL_Driver/Src/stm32f0xx_hal_uart.c ****   CLEAR_BIT(huart->Instance->CR3, (USART_CR3_SCEN | USART_CR3_HDSEL | USART_CR3_IREN));
 531:Drivers/STM32F0xx_HAL_Driver/Src/stm32f0xx_hal_uart.c **** #else
 532:Drivers/STM32F0xx_HAL_Driver/Src/stm32f0xx_hal_uart.c ****   CLEAR_BIT(huart->Instance->CR3, (USART_CR3_SCEN | USART_CR3_HDSEL));
 533:Drivers/STM32F0xx_HAL_Driver/Src/stm32f0xx_hal_uart.c **** #endif /* USART_CR3_IREN */
 534:Drivers/STM32F0xx_HAL_Driver/Src/stm32f0xx_hal_uart.c **** #else
 535:Drivers/STM32F0xx_HAL_Driver/Src/stm32f0xx_hal_uart.c **** #if defined (USART_CR3_IREN)
 536:Drivers/STM32F0xx_HAL_Driver/Src/stm32f0xx_hal_uart.c ****   CLEAR_BIT(huart->Instance->CR3, (USART_CR3_HDSEL | USART_CR3_IREN));
 537:Drivers/STM32F0xx_HAL_Driver/Src/stm32f0xx_hal_uart.c **** #else
 538:Drivers/STM32F0xx_HAL_Driver/Src/stm32f0xx_hal_uart.c ****   CLEAR_BIT(huart->Instance->CR3, USART_CR3_HDSEL);
 539:Drivers/STM32F0xx_HAL_Driver/Src/stm32f0xx_hal_uart.c **** #endif /* USART_CR3_IREN*/
 540:Drivers/STM32F0xx_HAL_Driver/Src/stm32f0xx_hal_uart.c **** #endif /* USART_CR3_SCEN */
 541:Drivers/STM32F0xx_HAL_Driver/Src/stm32f0xx_hal_uart.c **** 
 542:Drivers/STM32F0xx_HAL_Driver/Src/stm32f0xx_hal_uart.c ****   /* Enable the LIN mode by setting the LINEN bit in the CR2 register */
 543:Drivers/STM32F0xx_HAL_Driver/Src/stm32f0xx_hal_uart.c ****   SET_BIT(huart->Instance->CR2, USART_CR2_LINEN);
 544:Drivers/STM32F0xx_HAL_Driver/Src/stm32f0xx_hal_uart.c **** 
 545:Drivers/STM32F0xx_HAL_Driver/Src/stm32f0xx_hal_uart.c ****   /* Set the USART LIN Break detection length. */
 546:Drivers/STM32F0xx_HAL_Driver/Src/stm32f0xx_hal_uart.c ****   MODIFY_REG(huart->Instance->CR2, USART_CR2_LBDL, BreakDetectLength);
 547:Drivers/STM32F0xx_HAL_Driver/Src/stm32f0xx_hal_uart.c **** 
 548:Drivers/STM32F0xx_HAL_Driver/Src/stm32f0xx_hal_uart.c ****   __HAL_UART_ENABLE(huart);
 549:Drivers/STM32F0xx_HAL_Driver/Src/stm32f0xx_hal_uart.c **** 
 550:Drivers/STM32F0xx_HAL_Driver/Src/stm32f0xx_hal_uart.c ****   /* TEACK and/or REACK to check before moving huart->gState and huart->RxState to Ready */
 551:Drivers/STM32F0xx_HAL_Driver/Src/stm32f0xx_hal_uart.c ****   return (UART_CheckIdleState(huart));
 552:Drivers/STM32F0xx_HAL_Driver/Src/stm32f0xx_hal_uart.c **** }
 553:Drivers/STM32F0xx_HAL_Driver/Src/stm32f0xx_hal_uart.c **** #endif /* USART_CR2_LINEN */
 554:Drivers/STM32F0xx_HAL_Driver/Src/stm32f0xx_hal_uart.c **** 
 555:Drivers/STM32F0xx_HAL_Driver/Src/stm32f0xx_hal_uart.c **** 
 556:Drivers/STM32F0xx_HAL_Driver/Src/stm32f0xx_hal_uart.c **** /**
 557:Drivers/STM32F0xx_HAL_Driver/Src/stm32f0xx_hal_uart.c ****   * @brief Initialize the multiprocessor mode according to the specified
 558:Drivers/STM32F0xx_HAL_Driver/Src/stm32f0xx_hal_uart.c ****   *        parameters in the UART_InitTypeDef and initialize the associated handle.
 559:Drivers/STM32F0xx_HAL_Driver/Src/stm32f0xx_hal_uart.c ****   * @param huart        UART handle.
 560:Drivers/STM32F0xx_HAL_Driver/Src/stm32f0xx_hal_uart.c ****   * @param Address      UART node address (4-, 6-, 7- or 8-bit long).
 561:Drivers/STM32F0xx_HAL_Driver/Src/stm32f0xx_hal_uart.c ****   * @param WakeUpMethod Specifies the UART wakeup method.
 562:Drivers/STM32F0xx_HAL_Driver/Src/stm32f0xx_hal_uart.c ****   *        This parameter can be one of the following values:
 563:Drivers/STM32F0xx_HAL_Driver/Src/stm32f0xx_hal_uart.c ****   *          @arg @ref UART_WAKEUPMETHOD_IDLELINE WakeUp by an idle line detection
 564:Drivers/STM32F0xx_HAL_Driver/Src/stm32f0xx_hal_uart.c ****   *          @arg @ref UART_WAKEUPMETHOD_ADDRESSMARK WakeUp by an address mark
 565:Drivers/STM32F0xx_HAL_Driver/Src/stm32f0xx_hal_uart.c ****   * @note  If the user resorts to idle line detection wake up, the Address parameter
 566:Drivers/STM32F0xx_HAL_Driver/Src/stm32f0xx_hal_uart.c ****   *        is useless and ignored by the initialization function.
 567:Drivers/STM32F0xx_HAL_Driver/Src/stm32f0xx_hal_uart.c ****   * @note  If the user resorts to address mark wake up, the address length detection
 568:Drivers/STM32F0xx_HAL_Driver/Src/stm32f0xx_hal_uart.c ****   *        is configured by default to 4 bits only. For the UART to be able to
 569:Drivers/STM32F0xx_HAL_Driver/Src/stm32f0xx_hal_uart.c ****   *        manage 6-, 7- or 8-bit long addresses detection, the API
 570:Drivers/STM32F0xx_HAL_Driver/Src/stm32f0xx_hal_uart.c ****   *        HAL_MultiProcessorEx_AddressLength_Set() must be called after
 571:Drivers/STM32F0xx_HAL_Driver/Src/stm32f0xx_hal_uart.c ****   *        HAL_MultiProcessor_Init().
 572:Drivers/STM32F0xx_HAL_Driver/Src/stm32f0xx_hal_uart.c ****   * @retval HAL status
ARM GAS  /tmp/ccTcPcT8.s 			page 16


 573:Drivers/STM32F0xx_HAL_Driver/Src/stm32f0xx_hal_uart.c ****   */
 574:Drivers/STM32F0xx_HAL_Driver/Src/stm32f0xx_hal_uart.c **** HAL_StatusTypeDef HAL_MultiProcessor_Init(UART_HandleTypeDef *huart, uint8_t Address, uint32_t Wake
 575:Drivers/STM32F0xx_HAL_Driver/Src/stm32f0xx_hal_uart.c **** {
 289              		.loc 1 575 1
 290              		.cfi_startproc
 291              		@ args = 0, pretend = 0, frame = 16
 292              		@ frame_needed = 1, uses_anonymous_args = 0
 293 0000 80B5     		push	{r7, lr}
 294              	.LCFI6:
 295              		.cfi_def_cfa_offset 8
 296              		.cfi_offset 7, -8
 297              		.cfi_offset 14, -4
 298 0002 84B0     		sub	sp, sp, #16
 299              	.LCFI7:
 300              		.cfi_def_cfa_offset 24
 301 0004 00AF     		add	r7, sp, #0
 302              	.LCFI8:
 303              		.cfi_def_cfa_register 7
 304 0006 F860     		str	r0, [r7, #12]
 305 0008 7A60     		str	r2, [r7, #4]
 306 000a 0B23     		movs	r3, #11
 307 000c FB18     		adds	r3, r7, r3
 308 000e 0A1C     		adds	r2, r1, #0
 309 0010 1A70     		strb	r2, [r3]
 576:Drivers/STM32F0xx_HAL_Driver/Src/stm32f0xx_hal_uart.c ****   /* Check the UART handle allocation */
 577:Drivers/STM32F0xx_HAL_Driver/Src/stm32f0xx_hal_uart.c ****   if (huart == NULL)
 310              		.loc 1 577 6
 311 0012 FB68     		ldr	r3, [r7, #12]
 312 0014 002B     		cmp	r3, #0
 313 0016 01D1     		bne	.L18
 578:Drivers/STM32F0xx_HAL_Driver/Src/stm32f0xx_hal_uart.c ****   {
 579:Drivers/STM32F0xx_HAL_Driver/Src/stm32f0xx_hal_uart.c ****     return HAL_ERROR;
 314              		.loc 1 579 12
 315 0018 0123     		movs	r3, #1
 316 001a 61E0     		b	.L19
 317              	.L18:
 580:Drivers/STM32F0xx_HAL_Driver/Src/stm32f0xx_hal_uart.c ****   }
 581:Drivers/STM32F0xx_HAL_Driver/Src/stm32f0xx_hal_uart.c **** 
 582:Drivers/STM32F0xx_HAL_Driver/Src/stm32f0xx_hal_uart.c ****   /* Check the wake up method parameter */
 583:Drivers/STM32F0xx_HAL_Driver/Src/stm32f0xx_hal_uart.c ****   assert_param(IS_UART_WAKEUPMETHOD(WakeUpMethod));
 584:Drivers/STM32F0xx_HAL_Driver/Src/stm32f0xx_hal_uart.c **** 
 585:Drivers/STM32F0xx_HAL_Driver/Src/stm32f0xx_hal_uart.c ****   if (huart->gState == HAL_UART_STATE_RESET)
 318              		.loc 1 585 12
 319 001c FB68     		ldr	r3, [r7, #12]
 320 001e 5B6F     		ldr	r3, [r3, #116]
 321              		.loc 1 585 6
 322 0020 002B     		cmp	r3, #0
 323 0022 07D1     		bne	.L20
 586:Drivers/STM32F0xx_HAL_Driver/Src/stm32f0xx_hal_uart.c ****   {
 587:Drivers/STM32F0xx_HAL_Driver/Src/stm32f0xx_hal_uart.c ****     /* Allocate lock resource and initialize it */
 588:Drivers/STM32F0xx_HAL_Driver/Src/stm32f0xx_hal_uart.c ****     huart->Lock = HAL_UNLOCKED;
 324              		.loc 1 588 17
 325 0024 FB68     		ldr	r3, [r7, #12]
 326 0026 7022     		movs	r2, #112
 327 0028 0021     		movs	r1, #0
 328 002a 9954     		strb	r1, [r3, r2]
 589:Drivers/STM32F0xx_HAL_Driver/Src/stm32f0xx_hal_uart.c **** 
ARM GAS  /tmp/ccTcPcT8.s 			page 17


 590:Drivers/STM32F0xx_HAL_Driver/Src/stm32f0xx_hal_uart.c **** #if (USE_HAL_UART_REGISTER_CALLBACKS == 1)
 591:Drivers/STM32F0xx_HAL_Driver/Src/stm32f0xx_hal_uart.c ****     UART_InitCallbacksToDefault(huart);
 592:Drivers/STM32F0xx_HAL_Driver/Src/stm32f0xx_hal_uart.c **** 
 593:Drivers/STM32F0xx_HAL_Driver/Src/stm32f0xx_hal_uart.c ****     if (huart->MspInitCallback == NULL)
 594:Drivers/STM32F0xx_HAL_Driver/Src/stm32f0xx_hal_uart.c ****     {
 595:Drivers/STM32F0xx_HAL_Driver/Src/stm32f0xx_hal_uart.c ****       huart->MspInitCallback = HAL_UART_MspInit;
 596:Drivers/STM32F0xx_HAL_Driver/Src/stm32f0xx_hal_uart.c ****     }
 597:Drivers/STM32F0xx_HAL_Driver/Src/stm32f0xx_hal_uart.c **** 
 598:Drivers/STM32F0xx_HAL_Driver/Src/stm32f0xx_hal_uart.c ****     /* Init the low level hardware */
 599:Drivers/STM32F0xx_HAL_Driver/Src/stm32f0xx_hal_uart.c ****     huart->MspInitCallback(huart);
 600:Drivers/STM32F0xx_HAL_Driver/Src/stm32f0xx_hal_uart.c **** #else
 601:Drivers/STM32F0xx_HAL_Driver/Src/stm32f0xx_hal_uart.c ****     /* Init the low level hardware : GPIO, CLOCK */
 602:Drivers/STM32F0xx_HAL_Driver/Src/stm32f0xx_hal_uart.c ****     HAL_UART_MspInit(huart);
 329              		.loc 1 602 5
 330 002c FB68     		ldr	r3, [r7, #12]
 331 002e 1800     		movs	r0, r3
 332 0030 FFF7FEFF 		bl	HAL_UART_MspInit
 333              	.L20:
 603:Drivers/STM32F0xx_HAL_Driver/Src/stm32f0xx_hal_uart.c **** #endif /* (USE_HAL_UART_REGISTER_CALLBACKS) */
 604:Drivers/STM32F0xx_HAL_Driver/Src/stm32f0xx_hal_uart.c ****   }
 605:Drivers/STM32F0xx_HAL_Driver/Src/stm32f0xx_hal_uart.c **** 
 606:Drivers/STM32F0xx_HAL_Driver/Src/stm32f0xx_hal_uart.c ****   huart->gState = HAL_UART_STATE_BUSY;
 334              		.loc 1 606 17
 335 0034 FB68     		ldr	r3, [r7, #12]
 336 0036 2422     		movs	r2, #36
 337 0038 5A67     		str	r2, [r3, #116]
 607:Drivers/STM32F0xx_HAL_Driver/Src/stm32f0xx_hal_uart.c **** 
 608:Drivers/STM32F0xx_HAL_Driver/Src/stm32f0xx_hal_uart.c ****   __HAL_UART_DISABLE(huart);
 338              		.loc 1 608 3
 339 003a FB68     		ldr	r3, [r7, #12]
 340 003c 1B68     		ldr	r3, [r3]
 341 003e 1A68     		ldr	r2, [r3]
 342 0040 FB68     		ldr	r3, [r7, #12]
 343 0042 1B68     		ldr	r3, [r3]
 344 0044 0121     		movs	r1, #1
 345 0046 8A43     		bics	r2, r1
 346 0048 1A60     		str	r2, [r3]
 609:Drivers/STM32F0xx_HAL_Driver/Src/stm32f0xx_hal_uart.c **** 
 610:Drivers/STM32F0xx_HAL_Driver/Src/stm32f0xx_hal_uart.c ****   /* Set the UART Communication parameters */
 611:Drivers/STM32F0xx_HAL_Driver/Src/stm32f0xx_hal_uart.c ****   if (UART_SetConfig(huart) == HAL_ERROR)
 347              		.loc 1 611 7
 348 004a FB68     		ldr	r3, [r7, #12]
 349 004c 1800     		movs	r0, r3
 350 004e FFF7FEFF 		bl	UART_SetConfig
 351 0052 0300     		movs	r3, r0
 352              		.loc 1 611 6 discriminator 1
 353 0054 012B     		cmp	r3, #1
 354 0056 01D1     		bne	.L21
 612:Drivers/STM32F0xx_HAL_Driver/Src/stm32f0xx_hal_uart.c ****   {
 613:Drivers/STM32F0xx_HAL_Driver/Src/stm32f0xx_hal_uart.c ****     return HAL_ERROR;
 355              		.loc 1 613 12
 356 0058 0123     		movs	r3, #1
 357 005a 41E0     		b	.L19
 358              	.L21:
 614:Drivers/STM32F0xx_HAL_Driver/Src/stm32f0xx_hal_uart.c ****   }
 615:Drivers/STM32F0xx_HAL_Driver/Src/stm32f0xx_hal_uart.c **** 
 616:Drivers/STM32F0xx_HAL_Driver/Src/stm32f0xx_hal_uart.c ****   if (huart->AdvancedInit.AdvFeatureInit != UART_ADVFEATURE_NO_INIT)
ARM GAS  /tmp/ccTcPcT8.s 			page 18


 359              		.loc 1 616 26
 360 005c FB68     		ldr	r3, [r7, #12]
 361 005e 5B6A     		ldr	r3, [r3, #36]
 362              		.loc 1 616 6
 363 0060 002B     		cmp	r3, #0
 364 0062 03D0     		beq	.L22
 617:Drivers/STM32F0xx_HAL_Driver/Src/stm32f0xx_hal_uart.c ****   {
 618:Drivers/STM32F0xx_HAL_Driver/Src/stm32f0xx_hal_uart.c ****     UART_AdvFeatureConfig(huart);
 365              		.loc 1 618 5
 366 0064 FB68     		ldr	r3, [r7, #12]
 367 0066 1800     		movs	r0, r3
 368 0068 FFF7FEFF 		bl	UART_AdvFeatureConfig
 369              	.L22:
 619:Drivers/STM32F0xx_HAL_Driver/Src/stm32f0xx_hal_uart.c ****   }
 620:Drivers/STM32F0xx_HAL_Driver/Src/stm32f0xx_hal_uart.c **** 
 621:Drivers/STM32F0xx_HAL_Driver/Src/stm32f0xx_hal_uart.c ****   /* In multiprocessor mode, the following bits must be kept cleared:
 622:Drivers/STM32F0xx_HAL_Driver/Src/stm32f0xx_hal_uart.c ****   - LINEN (if LIN is supported) and CLKEN bits in the USART_CR2 register,
 623:Drivers/STM32F0xx_HAL_Driver/Src/stm32f0xx_hal_uart.c ****   - SCEN (if Smartcard is supported), HDSEL and IREN (if IrDA is supported) bits in the USART_CR3 r
 624:Drivers/STM32F0xx_HAL_Driver/Src/stm32f0xx_hal_uart.c **** #if defined (USART_CR2_LINEN)
 625:Drivers/STM32F0xx_HAL_Driver/Src/stm32f0xx_hal_uart.c ****   CLEAR_BIT(huart->Instance->CR2, (USART_CR2_LINEN | USART_CR2_CLKEN));
 626:Drivers/STM32F0xx_HAL_Driver/Src/stm32f0xx_hal_uart.c **** #else
 627:Drivers/STM32F0xx_HAL_Driver/Src/stm32f0xx_hal_uart.c ****   CLEAR_BIT(huart->Instance->CR2, USART_CR2_CLKEN);
 370              		.loc 1 627 3
 371 006c FB68     		ldr	r3, [r7, #12]
 372 006e 1B68     		ldr	r3, [r3]
 373 0070 5A68     		ldr	r2, [r3, #4]
 374 0072 FB68     		ldr	r3, [r7, #12]
 375 0074 1B68     		ldr	r3, [r3]
 376 0076 1C49     		ldr	r1, .L24
 377 0078 0A40     		ands	r2, r1
 378 007a 5A60     		str	r2, [r3, #4]
 628:Drivers/STM32F0xx_HAL_Driver/Src/stm32f0xx_hal_uart.c **** #endif /* USART_CR2_LINEN */
 629:Drivers/STM32F0xx_HAL_Driver/Src/stm32f0xx_hal_uart.c **** #if defined (USART_CR3_SCEN)
 630:Drivers/STM32F0xx_HAL_Driver/Src/stm32f0xx_hal_uart.c **** #if defined (USART_CR3_IREN)
 631:Drivers/STM32F0xx_HAL_Driver/Src/stm32f0xx_hal_uart.c ****   CLEAR_BIT(huart->Instance->CR3, (USART_CR3_SCEN | USART_CR3_HDSEL | USART_CR3_IREN));
 632:Drivers/STM32F0xx_HAL_Driver/Src/stm32f0xx_hal_uart.c **** #else
 633:Drivers/STM32F0xx_HAL_Driver/Src/stm32f0xx_hal_uart.c ****   CLEAR_BIT(huart->Instance->CR3, (USART_CR3_SCEN | USART_CR3_HDSEL));
 634:Drivers/STM32F0xx_HAL_Driver/Src/stm32f0xx_hal_uart.c **** #endif /* USART_CR3_IREN */
 635:Drivers/STM32F0xx_HAL_Driver/Src/stm32f0xx_hal_uart.c **** #else
 636:Drivers/STM32F0xx_HAL_Driver/Src/stm32f0xx_hal_uart.c **** #if defined (USART_CR3_IREN)
 637:Drivers/STM32F0xx_HAL_Driver/Src/stm32f0xx_hal_uart.c ****   CLEAR_BIT(huart->Instance->CR3, (USART_CR3_HDSEL | USART_CR3_IREN));
 638:Drivers/STM32F0xx_HAL_Driver/Src/stm32f0xx_hal_uart.c **** #else
 639:Drivers/STM32F0xx_HAL_Driver/Src/stm32f0xx_hal_uart.c ****   CLEAR_BIT(huart->Instance->CR3, USART_CR3_HDSEL);
 379              		.loc 1 639 3
 380 007c FB68     		ldr	r3, [r7, #12]
 381 007e 1B68     		ldr	r3, [r3]
 382 0080 9A68     		ldr	r2, [r3, #8]
 383 0082 FB68     		ldr	r3, [r7, #12]
 384 0084 1B68     		ldr	r3, [r3]
 385 0086 0821     		movs	r1, #8
 386 0088 8A43     		bics	r2, r1
 387 008a 9A60     		str	r2, [r3, #8]
 640:Drivers/STM32F0xx_HAL_Driver/Src/stm32f0xx_hal_uart.c **** #endif /* USART_CR3_IREN */
 641:Drivers/STM32F0xx_HAL_Driver/Src/stm32f0xx_hal_uart.c **** #endif /* USART_CR3_SCEN */
 642:Drivers/STM32F0xx_HAL_Driver/Src/stm32f0xx_hal_uart.c **** 
 643:Drivers/STM32F0xx_HAL_Driver/Src/stm32f0xx_hal_uart.c ****   if (WakeUpMethod == UART_WAKEUPMETHOD_ADDRESSMARK)
 388              		.loc 1 643 6
ARM GAS  /tmp/ccTcPcT8.s 			page 19


 389 008c 7A68     		ldr	r2, [r7, #4]
 390 008e 8023     		movs	r3, #128
 391 0090 1B01     		lsls	r3, r3, #4
 392 0092 9A42     		cmp	r2, r3
 393 0094 0CD1     		bne	.L23
 644:Drivers/STM32F0xx_HAL_Driver/Src/stm32f0xx_hal_uart.c ****   {
 645:Drivers/STM32F0xx_HAL_Driver/Src/stm32f0xx_hal_uart.c ****     /* If address mark wake up method is chosen, set the USART address node */
 646:Drivers/STM32F0xx_HAL_Driver/Src/stm32f0xx_hal_uart.c ****     MODIFY_REG(huart->Instance->CR2, USART_CR2_ADD, ((uint32_t)Address << UART_CR2_ADDRESS_LSB_POS)
 394              		.loc 1 646 5
 395 0096 FB68     		ldr	r3, [r7, #12]
 396 0098 1B68     		ldr	r3, [r3]
 397 009a 5B68     		ldr	r3, [r3, #4]
 398 009c 1B02     		lsls	r3, r3, #8
 399 009e 190A     		lsrs	r1, r3, #8
 400 00a0 0B23     		movs	r3, #11
 401 00a2 FB18     		adds	r3, r7, r3
 402 00a4 1B78     		ldrb	r3, [r3]
 403 00a6 1A06     		lsls	r2, r3, #24
 404 00a8 FB68     		ldr	r3, [r7, #12]
 405 00aa 1B68     		ldr	r3, [r3]
 406 00ac 0A43     		orrs	r2, r1
 407 00ae 5A60     		str	r2, [r3, #4]
 408              	.L23:
 647:Drivers/STM32F0xx_HAL_Driver/Src/stm32f0xx_hal_uart.c ****   }
 648:Drivers/STM32F0xx_HAL_Driver/Src/stm32f0xx_hal_uart.c **** 
 649:Drivers/STM32F0xx_HAL_Driver/Src/stm32f0xx_hal_uart.c ****   /* Set the wake up method by setting the WAKE bit in the CR1 register */
 650:Drivers/STM32F0xx_HAL_Driver/Src/stm32f0xx_hal_uart.c ****   MODIFY_REG(huart->Instance->CR1, USART_CR1_WAKE, WakeUpMethod);
 409              		.loc 1 650 3
 410 00b0 FB68     		ldr	r3, [r7, #12]
 411 00b2 1B68     		ldr	r3, [r3]
 412 00b4 1B68     		ldr	r3, [r3]
 413 00b6 0C4A     		ldr	r2, .L24
 414 00b8 1340     		ands	r3, r2
 415 00ba 1900     		movs	r1, r3
 416 00bc FB68     		ldr	r3, [r7, #12]
 417 00be 1B68     		ldr	r3, [r3]
 418 00c0 7A68     		ldr	r2, [r7, #4]
 419 00c2 0A43     		orrs	r2, r1
 420 00c4 1A60     		str	r2, [r3]
 651:Drivers/STM32F0xx_HAL_Driver/Src/stm32f0xx_hal_uart.c **** 
 652:Drivers/STM32F0xx_HAL_Driver/Src/stm32f0xx_hal_uart.c ****   __HAL_UART_ENABLE(huart);
 421              		.loc 1 652 3
 422 00c6 FB68     		ldr	r3, [r7, #12]
 423 00c8 1B68     		ldr	r3, [r3]
 424 00ca 1A68     		ldr	r2, [r3]
 425 00cc FB68     		ldr	r3, [r7, #12]
 426 00ce 1B68     		ldr	r3, [r3]
 427 00d0 0121     		movs	r1, #1
 428 00d2 0A43     		orrs	r2, r1
 429 00d4 1A60     		str	r2, [r3]
 653:Drivers/STM32F0xx_HAL_Driver/Src/stm32f0xx_hal_uart.c **** 
 654:Drivers/STM32F0xx_HAL_Driver/Src/stm32f0xx_hal_uart.c ****   /* TEACK and/or REACK to check before moving huart->gState and huart->RxState to Ready */
 655:Drivers/STM32F0xx_HAL_Driver/Src/stm32f0xx_hal_uart.c ****   return (UART_CheckIdleState(huart));
 430              		.loc 1 655 11
 431 00d6 FB68     		ldr	r3, [r7, #12]
 432 00d8 1800     		movs	r0, r3
 433 00da FFF7FEFF 		bl	UART_CheckIdleState
ARM GAS  /tmp/ccTcPcT8.s 			page 20


 434 00de 0300     		movs	r3, r0
 435              	.L19:
 656:Drivers/STM32F0xx_HAL_Driver/Src/stm32f0xx_hal_uart.c **** }
 436              		.loc 1 656 1
 437 00e0 1800     		movs	r0, r3
 438 00e2 BD46     		mov	sp, r7
 439 00e4 04B0     		add	sp, sp, #16
 440              		@ sp needed
 441 00e6 80BD     		pop	{r7, pc}
 442              	.L25:
 443              		.align	2
 444              	.L24:
 445 00e8 FFF7FFFF 		.word	-2049
 446              		.cfi_endproc
 447              	.LFE42:
 449              		.section	.text.HAL_UART_DeInit,"ax",%progbits
 450              		.align	1
 451              		.global	HAL_UART_DeInit
 452              		.syntax unified
 453              		.code	16
 454              		.thumb_func
 456              	HAL_UART_DeInit:
 457              	.LFB43:
 657:Drivers/STM32F0xx_HAL_Driver/Src/stm32f0xx_hal_uart.c **** 
 658:Drivers/STM32F0xx_HAL_Driver/Src/stm32f0xx_hal_uart.c **** 
 659:Drivers/STM32F0xx_HAL_Driver/Src/stm32f0xx_hal_uart.c **** /**
 660:Drivers/STM32F0xx_HAL_Driver/Src/stm32f0xx_hal_uart.c ****   * @brief DeInitialize the UART peripheral.
 661:Drivers/STM32F0xx_HAL_Driver/Src/stm32f0xx_hal_uart.c ****   * @param huart UART handle.
 662:Drivers/STM32F0xx_HAL_Driver/Src/stm32f0xx_hal_uart.c ****   * @retval HAL status
 663:Drivers/STM32F0xx_HAL_Driver/Src/stm32f0xx_hal_uart.c ****   */
 664:Drivers/STM32F0xx_HAL_Driver/Src/stm32f0xx_hal_uart.c **** HAL_StatusTypeDef HAL_UART_DeInit(UART_HandleTypeDef *huart)
 665:Drivers/STM32F0xx_HAL_Driver/Src/stm32f0xx_hal_uart.c **** {
 458              		.loc 1 665 1
 459              		.cfi_startproc
 460              		@ args = 0, pretend = 0, frame = 8
 461              		@ frame_needed = 1, uses_anonymous_args = 0
 462 0000 80B5     		push	{r7, lr}
 463              	.LCFI9:
 464              		.cfi_def_cfa_offset 8
 465              		.cfi_offset 7, -8
 466              		.cfi_offset 14, -4
 467 0002 82B0     		sub	sp, sp, #8
 468              	.LCFI10:
 469              		.cfi_def_cfa_offset 16
 470 0004 00AF     		add	r7, sp, #0
 471              	.LCFI11:
 472              		.cfi_def_cfa_register 7
 473 0006 7860     		str	r0, [r7, #4]
 666:Drivers/STM32F0xx_HAL_Driver/Src/stm32f0xx_hal_uart.c ****   /* Check the UART handle allocation */
 667:Drivers/STM32F0xx_HAL_Driver/Src/stm32f0xx_hal_uart.c ****   if (huart == NULL)
 474              		.loc 1 667 6
 475 0008 7B68     		ldr	r3, [r7, #4]
 476 000a 002B     		cmp	r3, #0
 477 000c 01D1     		bne	.L27
 668:Drivers/STM32F0xx_HAL_Driver/Src/stm32f0xx_hal_uart.c ****   {
 669:Drivers/STM32F0xx_HAL_Driver/Src/stm32f0xx_hal_uart.c ****     return HAL_ERROR;
 478              		.loc 1 669 12
ARM GAS  /tmp/ccTcPcT8.s 			page 21


 479 000e 0123     		movs	r3, #1
 480 0010 28E0     		b	.L28
 481              	.L27:
 670:Drivers/STM32F0xx_HAL_Driver/Src/stm32f0xx_hal_uart.c ****   }
 671:Drivers/STM32F0xx_HAL_Driver/Src/stm32f0xx_hal_uart.c **** 
 672:Drivers/STM32F0xx_HAL_Driver/Src/stm32f0xx_hal_uart.c ****   /* Check the parameters */
 673:Drivers/STM32F0xx_HAL_Driver/Src/stm32f0xx_hal_uart.c ****   assert_param(IS_UART_INSTANCE(huart->Instance));
 674:Drivers/STM32F0xx_HAL_Driver/Src/stm32f0xx_hal_uart.c **** 
 675:Drivers/STM32F0xx_HAL_Driver/Src/stm32f0xx_hal_uart.c ****   huart->gState = HAL_UART_STATE_BUSY;
 482              		.loc 1 675 17
 483 0012 7B68     		ldr	r3, [r7, #4]
 484 0014 2422     		movs	r2, #36
 485 0016 5A67     		str	r2, [r3, #116]
 676:Drivers/STM32F0xx_HAL_Driver/Src/stm32f0xx_hal_uart.c **** 
 677:Drivers/STM32F0xx_HAL_Driver/Src/stm32f0xx_hal_uart.c ****   __HAL_UART_DISABLE(huart);
 486              		.loc 1 677 3
 487 0018 7B68     		ldr	r3, [r7, #4]
 488 001a 1B68     		ldr	r3, [r3]
 489 001c 1A68     		ldr	r2, [r3]
 490 001e 7B68     		ldr	r3, [r7, #4]
 491 0020 1B68     		ldr	r3, [r3]
 492 0022 0121     		movs	r1, #1
 493 0024 8A43     		bics	r2, r1
 494 0026 1A60     		str	r2, [r3]
 678:Drivers/STM32F0xx_HAL_Driver/Src/stm32f0xx_hal_uart.c **** 
 679:Drivers/STM32F0xx_HAL_Driver/Src/stm32f0xx_hal_uart.c ****   huart->Instance->CR1 = 0x0U;
 495              		.loc 1 679 8
 496 0028 7B68     		ldr	r3, [r7, #4]
 497 002a 1B68     		ldr	r3, [r3]
 498              		.loc 1 679 24
 499 002c 0022     		movs	r2, #0
 500 002e 1A60     		str	r2, [r3]
 680:Drivers/STM32F0xx_HAL_Driver/Src/stm32f0xx_hal_uart.c ****   huart->Instance->CR2 = 0x0U;
 501              		.loc 1 680 8
 502 0030 7B68     		ldr	r3, [r7, #4]
 503 0032 1B68     		ldr	r3, [r3]
 504              		.loc 1 680 24
 505 0034 0022     		movs	r2, #0
 506 0036 5A60     		str	r2, [r3, #4]
 681:Drivers/STM32F0xx_HAL_Driver/Src/stm32f0xx_hal_uart.c ****   huart->Instance->CR3 = 0x0U;
 507              		.loc 1 681 8
 508 0038 7B68     		ldr	r3, [r7, #4]
 509 003a 1B68     		ldr	r3, [r3]
 510              		.loc 1 681 24
 511 003c 0022     		movs	r2, #0
 512 003e 9A60     		str	r2, [r3, #8]
 682:Drivers/STM32F0xx_HAL_Driver/Src/stm32f0xx_hal_uart.c **** 
 683:Drivers/STM32F0xx_HAL_Driver/Src/stm32f0xx_hal_uart.c **** #if (USE_HAL_UART_REGISTER_CALLBACKS == 1)
 684:Drivers/STM32F0xx_HAL_Driver/Src/stm32f0xx_hal_uart.c ****   if (huart->MspDeInitCallback == NULL)
 685:Drivers/STM32F0xx_HAL_Driver/Src/stm32f0xx_hal_uart.c ****   {
 686:Drivers/STM32F0xx_HAL_Driver/Src/stm32f0xx_hal_uart.c ****     huart->MspDeInitCallback = HAL_UART_MspDeInit;
 687:Drivers/STM32F0xx_HAL_Driver/Src/stm32f0xx_hal_uart.c ****   }
 688:Drivers/STM32F0xx_HAL_Driver/Src/stm32f0xx_hal_uart.c ****   /* DeInit the low level hardware */
 689:Drivers/STM32F0xx_HAL_Driver/Src/stm32f0xx_hal_uart.c ****   huart->MspDeInitCallback(huart);
 690:Drivers/STM32F0xx_HAL_Driver/Src/stm32f0xx_hal_uart.c **** #else
 691:Drivers/STM32F0xx_HAL_Driver/Src/stm32f0xx_hal_uart.c ****   /* DeInit the low level hardware */
 692:Drivers/STM32F0xx_HAL_Driver/Src/stm32f0xx_hal_uart.c ****   HAL_UART_MspDeInit(huart);
ARM GAS  /tmp/ccTcPcT8.s 			page 22


 513              		.loc 1 692 3
 514 0040 7B68     		ldr	r3, [r7, #4]
 515 0042 1800     		movs	r0, r3
 516 0044 FFF7FEFF 		bl	HAL_UART_MspDeInit
 693:Drivers/STM32F0xx_HAL_Driver/Src/stm32f0xx_hal_uart.c **** #endif /* (USE_HAL_UART_REGISTER_CALLBACKS) */
 694:Drivers/STM32F0xx_HAL_Driver/Src/stm32f0xx_hal_uart.c **** 
 695:Drivers/STM32F0xx_HAL_Driver/Src/stm32f0xx_hal_uart.c ****   huart->ErrorCode = HAL_UART_ERROR_NONE;
 517              		.loc 1 695 20
 518 0048 7B68     		ldr	r3, [r7, #4]
 519 004a 0022     		movs	r2, #0
 520 004c DA67     		str	r2, [r3, #124]
 696:Drivers/STM32F0xx_HAL_Driver/Src/stm32f0xx_hal_uart.c ****   huart->gState = HAL_UART_STATE_RESET;
 521              		.loc 1 696 17
 522 004e 7B68     		ldr	r3, [r7, #4]
 523 0050 0022     		movs	r2, #0
 524 0052 5A67     		str	r2, [r3, #116]
 697:Drivers/STM32F0xx_HAL_Driver/Src/stm32f0xx_hal_uart.c ****   huart->RxState = HAL_UART_STATE_RESET;
 525              		.loc 1 697 18
 526 0054 7B68     		ldr	r3, [r7, #4]
 527 0056 0022     		movs	r2, #0
 528 0058 9A67     		str	r2, [r3, #120]
 698:Drivers/STM32F0xx_HAL_Driver/Src/stm32f0xx_hal_uart.c **** 
 699:Drivers/STM32F0xx_HAL_Driver/Src/stm32f0xx_hal_uart.c ****   __HAL_UNLOCK(huart);
 529              		.loc 1 699 3
 530 005a 7B68     		ldr	r3, [r7, #4]
 531 005c 7022     		movs	r2, #112
 532 005e 0021     		movs	r1, #0
 533 0060 9954     		strb	r1, [r3, r2]
 700:Drivers/STM32F0xx_HAL_Driver/Src/stm32f0xx_hal_uart.c **** 
 701:Drivers/STM32F0xx_HAL_Driver/Src/stm32f0xx_hal_uart.c ****   return HAL_OK;
 534              		.loc 1 701 10
 535 0062 0023     		movs	r3, #0
 536              	.L28:
 702:Drivers/STM32F0xx_HAL_Driver/Src/stm32f0xx_hal_uart.c **** }
 537              		.loc 1 702 1
 538 0064 1800     		movs	r0, r3
 539 0066 BD46     		mov	sp, r7
 540 0068 02B0     		add	sp, sp, #8
 541              		@ sp needed
 542 006a 80BD     		pop	{r7, pc}
 543              		.cfi_endproc
 544              	.LFE43:
 546              		.section	.text.HAL_UART_MspInit,"ax",%progbits
 547              		.align	1
 548              		.weak	HAL_UART_MspInit
 549              		.syntax unified
 550              		.code	16
 551              		.thumb_func
 553              	HAL_UART_MspInit:
 554              	.LFB44:
 703:Drivers/STM32F0xx_HAL_Driver/Src/stm32f0xx_hal_uart.c **** 
 704:Drivers/STM32F0xx_HAL_Driver/Src/stm32f0xx_hal_uart.c **** /**
 705:Drivers/STM32F0xx_HAL_Driver/Src/stm32f0xx_hal_uart.c ****   * @brief Initialize the UART MSP.
 706:Drivers/STM32F0xx_HAL_Driver/Src/stm32f0xx_hal_uart.c ****   * @param huart UART handle.
 707:Drivers/STM32F0xx_HAL_Driver/Src/stm32f0xx_hal_uart.c ****   * @retval None
 708:Drivers/STM32F0xx_HAL_Driver/Src/stm32f0xx_hal_uart.c ****   */
 709:Drivers/STM32F0xx_HAL_Driver/Src/stm32f0xx_hal_uart.c **** __weak void HAL_UART_MspInit(UART_HandleTypeDef *huart)
ARM GAS  /tmp/ccTcPcT8.s 			page 23


 710:Drivers/STM32F0xx_HAL_Driver/Src/stm32f0xx_hal_uart.c **** {
 555              		.loc 1 710 1
 556              		.cfi_startproc
 557              		@ args = 0, pretend = 0, frame = 8
 558              		@ frame_needed = 1, uses_anonymous_args = 0
 559 0000 80B5     		push	{r7, lr}
 560              	.LCFI12:
 561              		.cfi_def_cfa_offset 8
 562              		.cfi_offset 7, -8
 563              		.cfi_offset 14, -4
 564 0002 82B0     		sub	sp, sp, #8
 565              	.LCFI13:
 566              		.cfi_def_cfa_offset 16
 567 0004 00AF     		add	r7, sp, #0
 568              	.LCFI14:
 569              		.cfi_def_cfa_register 7
 570 0006 7860     		str	r0, [r7, #4]
 711:Drivers/STM32F0xx_HAL_Driver/Src/stm32f0xx_hal_uart.c ****   /* Prevent unused argument(s) compilation warning */
 712:Drivers/STM32F0xx_HAL_Driver/Src/stm32f0xx_hal_uart.c ****   UNUSED(huart);
 713:Drivers/STM32F0xx_HAL_Driver/Src/stm32f0xx_hal_uart.c **** 
 714:Drivers/STM32F0xx_HAL_Driver/Src/stm32f0xx_hal_uart.c ****   /* NOTE : This function should not be modified, when the callback is needed,
 715:Drivers/STM32F0xx_HAL_Driver/Src/stm32f0xx_hal_uart.c ****             the HAL_UART_MspInit can be implemented in the user file
 716:Drivers/STM32F0xx_HAL_Driver/Src/stm32f0xx_hal_uart.c ****    */
 717:Drivers/STM32F0xx_HAL_Driver/Src/stm32f0xx_hal_uart.c **** }
 571              		.loc 1 717 1
 572 0008 C046     		nop
 573 000a BD46     		mov	sp, r7
 574 000c 02B0     		add	sp, sp, #8
 575              		@ sp needed
 576 000e 80BD     		pop	{r7, pc}
 577              		.cfi_endproc
 578              	.LFE44:
 580              		.section	.text.HAL_UART_MspDeInit,"ax",%progbits
 581              		.align	1
 582              		.weak	HAL_UART_MspDeInit
 583              		.syntax unified
 584              		.code	16
 585              		.thumb_func
 587              	HAL_UART_MspDeInit:
 588              	.LFB45:
 718:Drivers/STM32F0xx_HAL_Driver/Src/stm32f0xx_hal_uart.c **** 
 719:Drivers/STM32F0xx_HAL_Driver/Src/stm32f0xx_hal_uart.c **** /**
 720:Drivers/STM32F0xx_HAL_Driver/Src/stm32f0xx_hal_uart.c ****   * @brief DeInitialize the UART MSP.
 721:Drivers/STM32F0xx_HAL_Driver/Src/stm32f0xx_hal_uart.c ****   * @param huart UART handle.
 722:Drivers/STM32F0xx_HAL_Driver/Src/stm32f0xx_hal_uart.c ****   * @retval None
 723:Drivers/STM32F0xx_HAL_Driver/Src/stm32f0xx_hal_uart.c ****   */
 724:Drivers/STM32F0xx_HAL_Driver/Src/stm32f0xx_hal_uart.c **** __weak void HAL_UART_MspDeInit(UART_HandleTypeDef *huart)
 725:Drivers/STM32F0xx_HAL_Driver/Src/stm32f0xx_hal_uart.c **** {
 589              		.loc 1 725 1
 590              		.cfi_startproc
 591              		@ args = 0, pretend = 0, frame = 8
 592              		@ frame_needed = 1, uses_anonymous_args = 0
 593 0000 80B5     		push	{r7, lr}
 594              	.LCFI15:
 595              		.cfi_def_cfa_offset 8
 596              		.cfi_offset 7, -8
 597              		.cfi_offset 14, -4
ARM GAS  /tmp/ccTcPcT8.s 			page 24


 598 0002 82B0     		sub	sp, sp, #8
 599              	.LCFI16:
 600              		.cfi_def_cfa_offset 16
 601 0004 00AF     		add	r7, sp, #0
 602              	.LCFI17:
 603              		.cfi_def_cfa_register 7
 604 0006 7860     		str	r0, [r7, #4]
 726:Drivers/STM32F0xx_HAL_Driver/Src/stm32f0xx_hal_uart.c ****   /* Prevent unused argument(s) compilation warning */
 727:Drivers/STM32F0xx_HAL_Driver/Src/stm32f0xx_hal_uart.c ****   UNUSED(huart);
 728:Drivers/STM32F0xx_HAL_Driver/Src/stm32f0xx_hal_uart.c **** 
 729:Drivers/STM32F0xx_HAL_Driver/Src/stm32f0xx_hal_uart.c ****   /* NOTE : This function should not be modified, when the callback is needed,
 730:Drivers/STM32F0xx_HAL_Driver/Src/stm32f0xx_hal_uart.c ****             the HAL_UART_MspDeInit can be implemented in the user file
 731:Drivers/STM32F0xx_HAL_Driver/Src/stm32f0xx_hal_uart.c ****    */
 732:Drivers/STM32F0xx_HAL_Driver/Src/stm32f0xx_hal_uart.c **** }
 605              		.loc 1 732 1
 606 0008 C046     		nop
 607 000a BD46     		mov	sp, r7
 608 000c 02B0     		add	sp, sp, #8
 609              		@ sp needed
 610 000e 80BD     		pop	{r7, pc}
 611              		.cfi_endproc
 612              	.LFE45:
 614              		.section	.text.HAL_UART_Transmit,"ax",%progbits
 615              		.align	1
 616              		.global	HAL_UART_Transmit
 617              		.syntax unified
 618              		.code	16
 619              		.thumb_func
 621              	HAL_UART_Transmit:
 622              	.LFB46:
 733:Drivers/STM32F0xx_HAL_Driver/Src/stm32f0xx_hal_uart.c **** 
 734:Drivers/STM32F0xx_HAL_Driver/Src/stm32f0xx_hal_uart.c **** #if (USE_HAL_UART_REGISTER_CALLBACKS == 1)
 735:Drivers/STM32F0xx_HAL_Driver/Src/stm32f0xx_hal_uart.c **** /**
 736:Drivers/STM32F0xx_HAL_Driver/Src/stm32f0xx_hal_uart.c ****   * @brief  Register a User UART Callback
 737:Drivers/STM32F0xx_HAL_Driver/Src/stm32f0xx_hal_uart.c ****   *         To be used instead of the weak predefined callback
 738:Drivers/STM32F0xx_HAL_Driver/Src/stm32f0xx_hal_uart.c ****   * @param  huart uart handle
 739:Drivers/STM32F0xx_HAL_Driver/Src/stm32f0xx_hal_uart.c ****   * @param  CallbackID ID of the callback to be registered
 740:Drivers/STM32F0xx_HAL_Driver/Src/stm32f0xx_hal_uart.c ****   *         This parameter can be one of the following values:
 741:Drivers/STM32F0xx_HAL_Driver/Src/stm32f0xx_hal_uart.c ****   *           @arg @ref HAL_UART_TX_HALFCOMPLETE_CB_ID Tx Half Complete Callback ID
 742:Drivers/STM32F0xx_HAL_Driver/Src/stm32f0xx_hal_uart.c ****   *           @arg @ref HAL_UART_TX_COMPLETE_CB_ID Tx Complete Callback ID
 743:Drivers/STM32F0xx_HAL_Driver/Src/stm32f0xx_hal_uart.c ****   *           @arg @ref HAL_UART_RX_HALFCOMPLETE_CB_ID Rx Half Complete Callback ID
 744:Drivers/STM32F0xx_HAL_Driver/Src/stm32f0xx_hal_uart.c ****   *           @arg @ref HAL_UART_RX_COMPLETE_CB_ID Rx Complete Callback ID
 745:Drivers/STM32F0xx_HAL_Driver/Src/stm32f0xx_hal_uart.c ****   *           @arg @ref HAL_UART_ERROR_CB_ID Error Callback ID
 746:Drivers/STM32F0xx_HAL_Driver/Src/stm32f0xx_hal_uart.c ****   *           @arg @ref HAL_UART_ABORT_COMPLETE_CB_ID Abort Complete Callback ID
 747:Drivers/STM32F0xx_HAL_Driver/Src/stm32f0xx_hal_uart.c ****   *           @arg @ref HAL_UART_ABORT_TRANSMIT_COMPLETE_CB_ID Abort Transmit Complete Callback ID
 748:Drivers/STM32F0xx_HAL_Driver/Src/stm32f0xx_hal_uart.c ****   *           @arg @ref HAL_UART_ABORT_RECEIVE_COMPLETE_CB_ID Abort Receive Complete Callback ID
 749:Drivers/STM32F0xx_HAL_Driver/Src/stm32f0xx_hal_uart.c ****   *           @arg @ref HAL_UART_WAKEUP_CB_ID Wakeup Callback ID
 750:Drivers/STM32F0xx_HAL_Driver/Src/stm32f0xx_hal_uart.c ****   *           @arg @ref HAL_UART_RX_FIFO_FULL_CB_ID Rx Fifo Full Callback ID
 751:Drivers/STM32F0xx_HAL_Driver/Src/stm32f0xx_hal_uart.c ****   *           @arg @ref HAL_UART_TX_FIFO_EMPTY_CB_ID Tx Fifo Empty Callback ID
 752:Drivers/STM32F0xx_HAL_Driver/Src/stm32f0xx_hal_uart.c ****   *           @arg @ref HAL_UART_MSPINIT_CB_ID MspInit Callback ID
 753:Drivers/STM32F0xx_HAL_Driver/Src/stm32f0xx_hal_uart.c ****   *           @arg @ref HAL_UART_MSPDEINIT_CB_ID MspDeInit Callback ID
 754:Drivers/STM32F0xx_HAL_Driver/Src/stm32f0xx_hal_uart.c ****   * @param  pCallback pointer to the Callback function
 755:Drivers/STM32F0xx_HAL_Driver/Src/stm32f0xx_hal_uart.c ****   * @retval HAL status
 756:Drivers/STM32F0xx_HAL_Driver/Src/stm32f0xx_hal_uart.c ****   */
 757:Drivers/STM32F0xx_HAL_Driver/Src/stm32f0xx_hal_uart.c **** HAL_StatusTypeDef HAL_UART_RegisterCallback(UART_HandleTypeDef *huart, HAL_UART_CallbackIDTypeDef C
 758:Drivers/STM32F0xx_HAL_Driver/Src/stm32f0xx_hal_uart.c ****                                             pUART_CallbackTypeDef pCallback)
 759:Drivers/STM32F0xx_HAL_Driver/Src/stm32f0xx_hal_uart.c **** {
ARM GAS  /tmp/ccTcPcT8.s 			page 25


 760:Drivers/STM32F0xx_HAL_Driver/Src/stm32f0xx_hal_uart.c ****   HAL_StatusTypeDef status = HAL_OK;
 761:Drivers/STM32F0xx_HAL_Driver/Src/stm32f0xx_hal_uart.c **** 
 762:Drivers/STM32F0xx_HAL_Driver/Src/stm32f0xx_hal_uart.c ****   if (pCallback == NULL)
 763:Drivers/STM32F0xx_HAL_Driver/Src/stm32f0xx_hal_uart.c ****   {
 764:Drivers/STM32F0xx_HAL_Driver/Src/stm32f0xx_hal_uart.c ****     huart->ErrorCode |= HAL_UART_ERROR_INVALID_CALLBACK;
 765:Drivers/STM32F0xx_HAL_Driver/Src/stm32f0xx_hal_uart.c **** 
 766:Drivers/STM32F0xx_HAL_Driver/Src/stm32f0xx_hal_uart.c ****     return HAL_ERROR;
 767:Drivers/STM32F0xx_HAL_Driver/Src/stm32f0xx_hal_uart.c ****   }
 768:Drivers/STM32F0xx_HAL_Driver/Src/stm32f0xx_hal_uart.c **** 
 769:Drivers/STM32F0xx_HAL_Driver/Src/stm32f0xx_hal_uart.c ****   __HAL_LOCK(huart);
 770:Drivers/STM32F0xx_HAL_Driver/Src/stm32f0xx_hal_uart.c **** 
 771:Drivers/STM32F0xx_HAL_Driver/Src/stm32f0xx_hal_uart.c ****   if (huart->gState == HAL_UART_STATE_READY)
 772:Drivers/STM32F0xx_HAL_Driver/Src/stm32f0xx_hal_uart.c ****   {
 773:Drivers/STM32F0xx_HAL_Driver/Src/stm32f0xx_hal_uart.c ****     switch (CallbackID)
 774:Drivers/STM32F0xx_HAL_Driver/Src/stm32f0xx_hal_uart.c ****     {
 775:Drivers/STM32F0xx_HAL_Driver/Src/stm32f0xx_hal_uart.c ****       case HAL_UART_TX_HALFCOMPLETE_CB_ID :
 776:Drivers/STM32F0xx_HAL_Driver/Src/stm32f0xx_hal_uart.c ****         huart->TxHalfCpltCallback = pCallback;
 777:Drivers/STM32F0xx_HAL_Driver/Src/stm32f0xx_hal_uart.c ****         break;
 778:Drivers/STM32F0xx_HAL_Driver/Src/stm32f0xx_hal_uart.c **** 
 779:Drivers/STM32F0xx_HAL_Driver/Src/stm32f0xx_hal_uart.c ****       case HAL_UART_TX_COMPLETE_CB_ID :
 780:Drivers/STM32F0xx_HAL_Driver/Src/stm32f0xx_hal_uart.c ****         huart->TxCpltCallback = pCallback;
 781:Drivers/STM32F0xx_HAL_Driver/Src/stm32f0xx_hal_uart.c ****         break;
 782:Drivers/STM32F0xx_HAL_Driver/Src/stm32f0xx_hal_uart.c **** 
 783:Drivers/STM32F0xx_HAL_Driver/Src/stm32f0xx_hal_uart.c ****       case HAL_UART_RX_HALFCOMPLETE_CB_ID :
 784:Drivers/STM32F0xx_HAL_Driver/Src/stm32f0xx_hal_uart.c ****         huart->RxHalfCpltCallback = pCallback;
 785:Drivers/STM32F0xx_HAL_Driver/Src/stm32f0xx_hal_uart.c ****         break;
 786:Drivers/STM32F0xx_HAL_Driver/Src/stm32f0xx_hal_uart.c **** 
 787:Drivers/STM32F0xx_HAL_Driver/Src/stm32f0xx_hal_uart.c ****       case HAL_UART_RX_COMPLETE_CB_ID :
 788:Drivers/STM32F0xx_HAL_Driver/Src/stm32f0xx_hal_uart.c ****         huart->RxCpltCallback = pCallback;
 789:Drivers/STM32F0xx_HAL_Driver/Src/stm32f0xx_hal_uart.c ****         break;
 790:Drivers/STM32F0xx_HAL_Driver/Src/stm32f0xx_hal_uart.c **** 
 791:Drivers/STM32F0xx_HAL_Driver/Src/stm32f0xx_hal_uart.c ****       case HAL_UART_ERROR_CB_ID :
 792:Drivers/STM32F0xx_HAL_Driver/Src/stm32f0xx_hal_uart.c ****         huart->ErrorCallback = pCallback;
 793:Drivers/STM32F0xx_HAL_Driver/Src/stm32f0xx_hal_uart.c ****         break;
 794:Drivers/STM32F0xx_HAL_Driver/Src/stm32f0xx_hal_uart.c **** 
 795:Drivers/STM32F0xx_HAL_Driver/Src/stm32f0xx_hal_uart.c ****       case HAL_UART_ABORT_COMPLETE_CB_ID :
 796:Drivers/STM32F0xx_HAL_Driver/Src/stm32f0xx_hal_uart.c ****         huart->AbortCpltCallback = pCallback;
 797:Drivers/STM32F0xx_HAL_Driver/Src/stm32f0xx_hal_uart.c ****         break;
 798:Drivers/STM32F0xx_HAL_Driver/Src/stm32f0xx_hal_uart.c **** 
 799:Drivers/STM32F0xx_HAL_Driver/Src/stm32f0xx_hal_uart.c ****       case HAL_UART_ABORT_TRANSMIT_COMPLETE_CB_ID :
 800:Drivers/STM32F0xx_HAL_Driver/Src/stm32f0xx_hal_uart.c ****         huart->AbortTransmitCpltCallback = pCallback;
 801:Drivers/STM32F0xx_HAL_Driver/Src/stm32f0xx_hal_uart.c ****         break;
 802:Drivers/STM32F0xx_HAL_Driver/Src/stm32f0xx_hal_uart.c **** 
 803:Drivers/STM32F0xx_HAL_Driver/Src/stm32f0xx_hal_uart.c ****       case HAL_UART_ABORT_RECEIVE_COMPLETE_CB_ID :
 804:Drivers/STM32F0xx_HAL_Driver/Src/stm32f0xx_hal_uart.c ****         huart->AbortReceiveCpltCallback = pCallback;
 805:Drivers/STM32F0xx_HAL_Driver/Src/stm32f0xx_hal_uart.c ****         break;
 806:Drivers/STM32F0xx_HAL_Driver/Src/stm32f0xx_hal_uart.c **** 
 807:Drivers/STM32F0xx_HAL_Driver/Src/stm32f0xx_hal_uart.c ****       case HAL_UART_WAKEUP_CB_ID :
 808:Drivers/STM32F0xx_HAL_Driver/Src/stm32f0xx_hal_uart.c ****         huart->WakeupCallback = pCallback;
 809:Drivers/STM32F0xx_HAL_Driver/Src/stm32f0xx_hal_uart.c ****         break;
 810:Drivers/STM32F0xx_HAL_Driver/Src/stm32f0xx_hal_uart.c **** 
 811:Drivers/STM32F0xx_HAL_Driver/Src/stm32f0xx_hal_uart.c **** 
 812:Drivers/STM32F0xx_HAL_Driver/Src/stm32f0xx_hal_uart.c ****       case HAL_UART_MSPINIT_CB_ID :
 813:Drivers/STM32F0xx_HAL_Driver/Src/stm32f0xx_hal_uart.c ****         huart->MspInitCallback = pCallback;
 814:Drivers/STM32F0xx_HAL_Driver/Src/stm32f0xx_hal_uart.c ****         break;
 815:Drivers/STM32F0xx_HAL_Driver/Src/stm32f0xx_hal_uart.c **** 
 816:Drivers/STM32F0xx_HAL_Driver/Src/stm32f0xx_hal_uart.c ****       case HAL_UART_MSPDEINIT_CB_ID :
ARM GAS  /tmp/ccTcPcT8.s 			page 26


 817:Drivers/STM32F0xx_HAL_Driver/Src/stm32f0xx_hal_uart.c ****         huart->MspDeInitCallback = pCallback;
 818:Drivers/STM32F0xx_HAL_Driver/Src/stm32f0xx_hal_uart.c ****         break;
 819:Drivers/STM32F0xx_HAL_Driver/Src/stm32f0xx_hal_uart.c **** 
 820:Drivers/STM32F0xx_HAL_Driver/Src/stm32f0xx_hal_uart.c ****       default :
 821:Drivers/STM32F0xx_HAL_Driver/Src/stm32f0xx_hal_uart.c ****         huart->ErrorCode |= HAL_UART_ERROR_INVALID_CALLBACK;
 822:Drivers/STM32F0xx_HAL_Driver/Src/stm32f0xx_hal_uart.c **** 
 823:Drivers/STM32F0xx_HAL_Driver/Src/stm32f0xx_hal_uart.c ****         status =  HAL_ERROR;
 824:Drivers/STM32F0xx_HAL_Driver/Src/stm32f0xx_hal_uart.c ****         break;
 825:Drivers/STM32F0xx_HAL_Driver/Src/stm32f0xx_hal_uart.c ****     }
 826:Drivers/STM32F0xx_HAL_Driver/Src/stm32f0xx_hal_uart.c ****   }
 827:Drivers/STM32F0xx_HAL_Driver/Src/stm32f0xx_hal_uart.c ****   else if (huart->gState == HAL_UART_STATE_RESET)
 828:Drivers/STM32F0xx_HAL_Driver/Src/stm32f0xx_hal_uart.c ****   {
 829:Drivers/STM32F0xx_HAL_Driver/Src/stm32f0xx_hal_uart.c ****     switch (CallbackID)
 830:Drivers/STM32F0xx_HAL_Driver/Src/stm32f0xx_hal_uart.c ****     {
 831:Drivers/STM32F0xx_HAL_Driver/Src/stm32f0xx_hal_uart.c ****       case HAL_UART_MSPINIT_CB_ID :
 832:Drivers/STM32F0xx_HAL_Driver/Src/stm32f0xx_hal_uart.c ****         huart->MspInitCallback = pCallback;
 833:Drivers/STM32F0xx_HAL_Driver/Src/stm32f0xx_hal_uart.c ****         break;
 834:Drivers/STM32F0xx_HAL_Driver/Src/stm32f0xx_hal_uart.c **** 
 835:Drivers/STM32F0xx_HAL_Driver/Src/stm32f0xx_hal_uart.c ****       case HAL_UART_MSPDEINIT_CB_ID :
 836:Drivers/STM32F0xx_HAL_Driver/Src/stm32f0xx_hal_uart.c ****         huart->MspDeInitCallback = pCallback;
 837:Drivers/STM32F0xx_HAL_Driver/Src/stm32f0xx_hal_uart.c ****         break;
 838:Drivers/STM32F0xx_HAL_Driver/Src/stm32f0xx_hal_uart.c **** 
 839:Drivers/STM32F0xx_HAL_Driver/Src/stm32f0xx_hal_uart.c ****       default :
 840:Drivers/STM32F0xx_HAL_Driver/Src/stm32f0xx_hal_uart.c ****         huart->ErrorCode |= HAL_UART_ERROR_INVALID_CALLBACK;
 841:Drivers/STM32F0xx_HAL_Driver/Src/stm32f0xx_hal_uart.c **** 
 842:Drivers/STM32F0xx_HAL_Driver/Src/stm32f0xx_hal_uart.c ****         status =  HAL_ERROR;
 843:Drivers/STM32F0xx_HAL_Driver/Src/stm32f0xx_hal_uart.c ****         break;
 844:Drivers/STM32F0xx_HAL_Driver/Src/stm32f0xx_hal_uart.c ****     }
 845:Drivers/STM32F0xx_HAL_Driver/Src/stm32f0xx_hal_uart.c ****   }
 846:Drivers/STM32F0xx_HAL_Driver/Src/stm32f0xx_hal_uart.c ****   else
 847:Drivers/STM32F0xx_HAL_Driver/Src/stm32f0xx_hal_uart.c ****   {
 848:Drivers/STM32F0xx_HAL_Driver/Src/stm32f0xx_hal_uart.c ****     huart->ErrorCode |= HAL_UART_ERROR_INVALID_CALLBACK;
 849:Drivers/STM32F0xx_HAL_Driver/Src/stm32f0xx_hal_uart.c **** 
 850:Drivers/STM32F0xx_HAL_Driver/Src/stm32f0xx_hal_uart.c ****     status =  HAL_ERROR;
 851:Drivers/STM32F0xx_HAL_Driver/Src/stm32f0xx_hal_uart.c ****   }
 852:Drivers/STM32F0xx_HAL_Driver/Src/stm32f0xx_hal_uart.c **** 
 853:Drivers/STM32F0xx_HAL_Driver/Src/stm32f0xx_hal_uart.c ****   __HAL_UNLOCK(huart);
 854:Drivers/STM32F0xx_HAL_Driver/Src/stm32f0xx_hal_uart.c **** 
 855:Drivers/STM32F0xx_HAL_Driver/Src/stm32f0xx_hal_uart.c ****   return status;
 856:Drivers/STM32F0xx_HAL_Driver/Src/stm32f0xx_hal_uart.c **** }
 857:Drivers/STM32F0xx_HAL_Driver/Src/stm32f0xx_hal_uart.c **** 
 858:Drivers/STM32F0xx_HAL_Driver/Src/stm32f0xx_hal_uart.c **** /**
 859:Drivers/STM32F0xx_HAL_Driver/Src/stm32f0xx_hal_uart.c ****   * @brief  Unregister an UART Callback
 860:Drivers/STM32F0xx_HAL_Driver/Src/stm32f0xx_hal_uart.c ****   *         UART callaback is redirected to the weak predefined callback
 861:Drivers/STM32F0xx_HAL_Driver/Src/stm32f0xx_hal_uart.c ****   * @param  huart uart handle
 862:Drivers/STM32F0xx_HAL_Driver/Src/stm32f0xx_hal_uart.c ****   * @param  CallbackID ID of the callback to be unregistered
 863:Drivers/STM32F0xx_HAL_Driver/Src/stm32f0xx_hal_uart.c ****   *         This parameter can be one of the following values:
 864:Drivers/STM32F0xx_HAL_Driver/Src/stm32f0xx_hal_uart.c ****   *           @arg @ref HAL_UART_TX_HALFCOMPLETE_CB_ID Tx Half Complete Callback ID
 865:Drivers/STM32F0xx_HAL_Driver/Src/stm32f0xx_hal_uart.c ****   *           @arg @ref HAL_UART_TX_COMPLETE_CB_ID Tx Complete Callback ID
 866:Drivers/STM32F0xx_HAL_Driver/Src/stm32f0xx_hal_uart.c ****   *           @arg @ref HAL_UART_RX_HALFCOMPLETE_CB_ID Rx Half Complete Callback ID
 867:Drivers/STM32F0xx_HAL_Driver/Src/stm32f0xx_hal_uart.c ****   *           @arg @ref HAL_UART_RX_COMPLETE_CB_ID Rx Complete Callback ID
 868:Drivers/STM32F0xx_HAL_Driver/Src/stm32f0xx_hal_uart.c ****   *           @arg @ref HAL_UART_ERROR_CB_ID Error Callback ID
 869:Drivers/STM32F0xx_HAL_Driver/Src/stm32f0xx_hal_uart.c ****   *           @arg @ref HAL_UART_ABORT_COMPLETE_CB_ID Abort Complete Callback ID
 870:Drivers/STM32F0xx_HAL_Driver/Src/stm32f0xx_hal_uart.c ****   *           @arg @ref HAL_UART_ABORT_TRANSMIT_COMPLETE_CB_ID Abort Transmit Complete Callback ID
 871:Drivers/STM32F0xx_HAL_Driver/Src/stm32f0xx_hal_uart.c ****   *           @arg @ref HAL_UART_ABORT_RECEIVE_COMPLETE_CB_ID Abort Receive Complete Callback ID
 872:Drivers/STM32F0xx_HAL_Driver/Src/stm32f0xx_hal_uart.c ****   *           @arg @ref HAL_UART_WAKEUP_CB_ID Wakeup Callback ID
 873:Drivers/STM32F0xx_HAL_Driver/Src/stm32f0xx_hal_uart.c ****   *           @arg @ref HAL_UART_RX_FIFO_FULL_CB_ID Rx Fifo Full Callback ID
ARM GAS  /tmp/ccTcPcT8.s 			page 27


 874:Drivers/STM32F0xx_HAL_Driver/Src/stm32f0xx_hal_uart.c ****   *           @arg @ref HAL_UART_TX_FIFO_EMPTY_CB_ID Tx Fifo Empty Callback ID
 875:Drivers/STM32F0xx_HAL_Driver/Src/stm32f0xx_hal_uart.c ****   *           @arg @ref HAL_UART_MSPINIT_CB_ID MspInit Callback ID
 876:Drivers/STM32F0xx_HAL_Driver/Src/stm32f0xx_hal_uart.c ****   *           @arg @ref HAL_UART_MSPDEINIT_CB_ID MspDeInit Callback ID
 877:Drivers/STM32F0xx_HAL_Driver/Src/stm32f0xx_hal_uart.c ****   * @retval HAL status
 878:Drivers/STM32F0xx_HAL_Driver/Src/stm32f0xx_hal_uart.c ****   */
 879:Drivers/STM32F0xx_HAL_Driver/Src/stm32f0xx_hal_uart.c **** HAL_StatusTypeDef HAL_UART_UnRegisterCallback(UART_HandleTypeDef *huart, HAL_UART_CallbackIDTypeDef
 880:Drivers/STM32F0xx_HAL_Driver/Src/stm32f0xx_hal_uart.c **** {
 881:Drivers/STM32F0xx_HAL_Driver/Src/stm32f0xx_hal_uart.c ****   HAL_StatusTypeDef status = HAL_OK;
 882:Drivers/STM32F0xx_HAL_Driver/Src/stm32f0xx_hal_uart.c **** 
 883:Drivers/STM32F0xx_HAL_Driver/Src/stm32f0xx_hal_uart.c ****   __HAL_LOCK(huart);
 884:Drivers/STM32F0xx_HAL_Driver/Src/stm32f0xx_hal_uart.c **** 
 885:Drivers/STM32F0xx_HAL_Driver/Src/stm32f0xx_hal_uart.c ****   if (HAL_UART_STATE_READY == huart->gState)
 886:Drivers/STM32F0xx_HAL_Driver/Src/stm32f0xx_hal_uart.c ****   {
 887:Drivers/STM32F0xx_HAL_Driver/Src/stm32f0xx_hal_uart.c ****     switch (CallbackID)
 888:Drivers/STM32F0xx_HAL_Driver/Src/stm32f0xx_hal_uart.c ****     {
 889:Drivers/STM32F0xx_HAL_Driver/Src/stm32f0xx_hal_uart.c ****       case HAL_UART_TX_HALFCOMPLETE_CB_ID :
 890:Drivers/STM32F0xx_HAL_Driver/Src/stm32f0xx_hal_uart.c ****         huart->TxHalfCpltCallback = HAL_UART_TxHalfCpltCallback;               /* Legacy weak  TxHa
 891:Drivers/STM32F0xx_HAL_Driver/Src/stm32f0xx_hal_uart.c ****         break;
 892:Drivers/STM32F0xx_HAL_Driver/Src/stm32f0xx_hal_uart.c **** 
 893:Drivers/STM32F0xx_HAL_Driver/Src/stm32f0xx_hal_uart.c ****       case HAL_UART_TX_COMPLETE_CB_ID :
 894:Drivers/STM32F0xx_HAL_Driver/Src/stm32f0xx_hal_uart.c ****         huart->TxCpltCallback = HAL_UART_TxCpltCallback;                       /* Legacy weak TxCpl
 895:Drivers/STM32F0xx_HAL_Driver/Src/stm32f0xx_hal_uart.c ****         break;
 896:Drivers/STM32F0xx_HAL_Driver/Src/stm32f0xx_hal_uart.c **** 
 897:Drivers/STM32F0xx_HAL_Driver/Src/stm32f0xx_hal_uart.c ****       case HAL_UART_RX_HALFCOMPLETE_CB_ID :
 898:Drivers/STM32F0xx_HAL_Driver/Src/stm32f0xx_hal_uart.c ****         huart->RxHalfCpltCallback = HAL_UART_RxHalfCpltCallback;               /* Legacy weak RxHal
 899:Drivers/STM32F0xx_HAL_Driver/Src/stm32f0xx_hal_uart.c ****         break;
 900:Drivers/STM32F0xx_HAL_Driver/Src/stm32f0xx_hal_uart.c **** 
 901:Drivers/STM32F0xx_HAL_Driver/Src/stm32f0xx_hal_uart.c ****       case HAL_UART_RX_COMPLETE_CB_ID :
 902:Drivers/STM32F0xx_HAL_Driver/Src/stm32f0xx_hal_uart.c ****         huart->RxCpltCallback = HAL_UART_RxCpltCallback;                       /* Legacy weak RxCpl
 903:Drivers/STM32F0xx_HAL_Driver/Src/stm32f0xx_hal_uart.c ****         break;
 904:Drivers/STM32F0xx_HAL_Driver/Src/stm32f0xx_hal_uart.c **** 
 905:Drivers/STM32F0xx_HAL_Driver/Src/stm32f0xx_hal_uart.c ****       case HAL_UART_ERROR_CB_ID :
 906:Drivers/STM32F0xx_HAL_Driver/Src/stm32f0xx_hal_uart.c ****         huart->ErrorCallback = HAL_UART_ErrorCallback;                         /* Legacy weak Error
 907:Drivers/STM32F0xx_HAL_Driver/Src/stm32f0xx_hal_uart.c ****         break;
 908:Drivers/STM32F0xx_HAL_Driver/Src/stm32f0xx_hal_uart.c **** 
 909:Drivers/STM32F0xx_HAL_Driver/Src/stm32f0xx_hal_uart.c ****       case HAL_UART_ABORT_COMPLETE_CB_ID :
 910:Drivers/STM32F0xx_HAL_Driver/Src/stm32f0xx_hal_uart.c ****         huart->AbortCpltCallback = HAL_UART_AbortCpltCallback;                 /* Legacy weak Abort
 911:Drivers/STM32F0xx_HAL_Driver/Src/stm32f0xx_hal_uart.c ****         break;
 912:Drivers/STM32F0xx_HAL_Driver/Src/stm32f0xx_hal_uart.c **** 
 913:Drivers/STM32F0xx_HAL_Driver/Src/stm32f0xx_hal_uart.c ****       case HAL_UART_ABORT_TRANSMIT_COMPLETE_CB_ID :
 914:Drivers/STM32F0xx_HAL_Driver/Src/stm32f0xx_hal_uart.c ****         huart->AbortTransmitCpltCallback = HAL_UART_AbortTransmitCpltCallback; /* Legacy weak Abort
 915:Drivers/STM32F0xx_HAL_Driver/Src/stm32f0xx_hal_uart.c ****         break;
 916:Drivers/STM32F0xx_HAL_Driver/Src/stm32f0xx_hal_uart.c **** 
 917:Drivers/STM32F0xx_HAL_Driver/Src/stm32f0xx_hal_uart.c ****       case HAL_UART_ABORT_RECEIVE_COMPLETE_CB_ID :
 918:Drivers/STM32F0xx_HAL_Driver/Src/stm32f0xx_hal_uart.c ****         huart->AbortReceiveCpltCallback = HAL_UART_AbortReceiveCpltCallback;   /* Legacy weak Abort
 919:Drivers/STM32F0xx_HAL_Driver/Src/stm32f0xx_hal_uart.c ****         break;
 920:Drivers/STM32F0xx_HAL_Driver/Src/stm32f0xx_hal_uart.c **** 
 921:Drivers/STM32F0xx_HAL_Driver/Src/stm32f0xx_hal_uart.c **** #if defined(USART_CR1_UESM)
 922:Drivers/STM32F0xx_HAL_Driver/Src/stm32f0xx_hal_uart.c ****       case HAL_UART_WAKEUP_CB_ID :
 923:Drivers/STM32F0xx_HAL_Driver/Src/stm32f0xx_hal_uart.c ****         huart->WakeupCallback = HAL_UARTEx_WakeupCallback;                     /* Legacy weak Wakeu
 924:Drivers/STM32F0xx_HAL_Driver/Src/stm32f0xx_hal_uart.c ****         break;
 925:Drivers/STM32F0xx_HAL_Driver/Src/stm32f0xx_hal_uart.c **** 
 926:Drivers/STM32F0xx_HAL_Driver/Src/stm32f0xx_hal_uart.c **** #endif /* USART_CR1_UESM */
 927:Drivers/STM32F0xx_HAL_Driver/Src/stm32f0xx_hal_uart.c ****       case HAL_UART_MSPINIT_CB_ID :
 928:Drivers/STM32F0xx_HAL_Driver/Src/stm32f0xx_hal_uart.c ****         huart->MspInitCallback = HAL_UART_MspInit;                             /* Legacy weak MspIn
 929:Drivers/STM32F0xx_HAL_Driver/Src/stm32f0xx_hal_uart.c ****         break;
 930:Drivers/STM32F0xx_HAL_Driver/Src/stm32f0xx_hal_uart.c **** 
ARM GAS  /tmp/ccTcPcT8.s 			page 28


 931:Drivers/STM32F0xx_HAL_Driver/Src/stm32f0xx_hal_uart.c ****       case HAL_UART_MSPDEINIT_CB_ID :
 932:Drivers/STM32F0xx_HAL_Driver/Src/stm32f0xx_hal_uart.c ****         huart->MspDeInitCallback = HAL_UART_MspDeInit;                         /* Legacy weak MspDe
 933:Drivers/STM32F0xx_HAL_Driver/Src/stm32f0xx_hal_uart.c ****         break;
 934:Drivers/STM32F0xx_HAL_Driver/Src/stm32f0xx_hal_uart.c **** 
 935:Drivers/STM32F0xx_HAL_Driver/Src/stm32f0xx_hal_uart.c ****       default :
 936:Drivers/STM32F0xx_HAL_Driver/Src/stm32f0xx_hal_uart.c ****         huart->ErrorCode |= HAL_UART_ERROR_INVALID_CALLBACK;
 937:Drivers/STM32F0xx_HAL_Driver/Src/stm32f0xx_hal_uart.c **** 
 938:Drivers/STM32F0xx_HAL_Driver/Src/stm32f0xx_hal_uart.c ****         status =  HAL_ERROR;
 939:Drivers/STM32F0xx_HAL_Driver/Src/stm32f0xx_hal_uart.c ****         break;
 940:Drivers/STM32F0xx_HAL_Driver/Src/stm32f0xx_hal_uart.c ****     }
 941:Drivers/STM32F0xx_HAL_Driver/Src/stm32f0xx_hal_uart.c ****   }
 942:Drivers/STM32F0xx_HAL_Driver/Src/stm32f0xx_hal_uart.c ****   else if (HAL_UART_STATE_RESET == huart->gState)
 943:Drivers/STM32F0xx_HAL_Driver/Src/stm32f0xx_hal_uart.c ****   {
 944:Drivers/STM32F0xx_HAL_Driver/Src/stm32f0xx_hal_uart.c ****     switch (CallbackID)
 945:Drivers/STM32F0xx_HAL_Driver/Src/stm32f0xx_hal_uart.c ****     {
 946:Drivers/STM32F0xx_HAL_Driver/Src/stm32f0xx_hal_uart.c ****       case HAL_UART_MSPINIT_CB_ID :
 947:Drivers/STM32F0xx_HAL_Driver/Src/stm32f0xx_hal_uart.c ****         huart->MspInitCallback = HAL_UART_MspInit;
 948:Drivers/STM32F0xx_HAL_Driver/Src/stm32f0xx_hal_uart.c ****         break;
 949:Drivers/STM32F0xx_HAL_Driver/Src/stm32f0xx_hal_uart.c **** 
 950:Drivers/STM32F0xx_HAL_Driver/Src/stm32f0xx_hal_uart.c ****       case HAL_UART_MSPDEINIT_CB_ID :
 951:Drivers/STM32F0xx_HAL_Driver/Src/stm32f0xx_hal_uart.c ****         huart->MspDeInitCallback = HAL_UART_MspDeInit;
 952:Drivers/STM32F0xx_HAL_Driver/Src/stm32f0xx_hal_uart.c ****         break;
 953:Drivers/STM32F0xx_HAL_Driver/Src/stm32f0xx_hal_uart.c **** 
 954:Drivers/STM32F0xx_HAL_Driver/Src/stm32f0xx_hal_uart.c ****       default :
 955:Drivers/STM32F0xx_HAL_Driver/Src/stm32f0xx_hal_uart.c ****         huart->ErrorCode |= HAL_UART_ERROR_INVALID_CALLBACK;
 956:Drivers/STM32F0xx_HAL_Driver/Src/stm32f0xx_hal_uart.c **** 
 957:Drivers/STM32F0xx_HAL_Driver/Src/stm32f0xx_hal_uart.c ****         status =  HAL_ERROR;
 958:Drivers/STM32F0xx_HAL_Driver/Src/stm32f0xx_hal_uart.c ****         break;
 959:Drivers/STM32F0xx_HAL_Driver/Src/stm32f0xx_hal_uart.c ****     }
 960:Drivers/STM32F0xx_HAL_Driver/Src/stm32f0xx_hal_uart.c ****   }
 961:Drivers/STM32F0xx_HAL_Driver/Src/stm32f0xx_hal_uart.c ****   else
 962:Drivers/STM32F0xx_HAL_Driver/Src/stm32f0xx_hal_uart.c ****   {
 963:Drivers/STM32F0xx_HAL_Driver/Src/stm32f0xx_hal_uart.c ****     huart->ErrorCode |= HAL_UART_ERROR_INVALID_CALLBACK;
 964:Drivers/STM32F0xx_HAL_Driver/Src/stm32f0xx_hal_uart.c **** 
 965:Drivers/STM32F0xx_HAL_Driver/Src/stm32f0xx_hal_uart.c ****     status =  HAL_ERROR;
 966:Drivers/STM32F0xx_HAL_Driver/Src/stm32f0xx_hal_uart.c ****   }
 967:Drivers/STM32F0xx_HAL_Driver/Src/stm32f0xx_hal_uart.c **** 
 968:Drivers/STM32F0xx_HAL_Driver/Src/stm32f0xx_hal_uart.c ****   __HAL_UNLOCK(huart);
 969:Drivers/STM32F0xx_HAL_Driver/Src/stm32f0xx_hal_uart.c **** 
 970:Drivers/STM32F0xx_HAL_Driver/Src/stm32f0xx_hal_uart.c ****   return status;
 971:Drivers/STM32F0xx_HAL_Driver/Src/stm32f0xx_hal_uart.c **** }
 972:Drivers/STM32F0xx_HAL_Driver/Src/stm32f0xx_hal_uart.c **** #endif /* USE_HAL_UART_REGISTER_CALLBACKS */
 973:Drivers/STM32F0xx_HAL_Driver/Src/stm32f0xx_hal_uart.c **** 
 974:Drivers/STM32F0xx_HAL_Driver/Src/stm32f0xx_hal_uart.c **** /**
 975:Drivers/STM32F0xx_HAL_Driver/Src/stm32f0xx_hal_uart.c ****   * @}
 976:Drivers/STM32F0xx_HAL_Driver/Src/stm32f0xx_hal_uart.c ****   */
 977:Drivers/STM32F0xx_HAL_Driver/Src/stm32f0xx_hal_uart.c **** 
 978:Drivers/STM32F0xx_HAL_Driver/Src/stm32f0xx_hal_uart.c **** /** @defgroup UART_Exported_Functions_Group2 IO operation functions
 979:Drivers/STM32F0xx_HAL_Driver/Src/stm32f0xx_hal_uart.c ****   * @brief UART Transmit/Receive functions
 980:Drivers/STM32F0xx_HAL_Driver/Src/stm32f0xx_hal_uart.c ****   *
 981:Drivers/STM32F0xx_HAL_Driver/Src/stm32f0xx_hal_uart.c **** @verbatim
 982:Drivers/STM32F0xx_HAL_Driver/Src/stm32f0xx_hal_uart.c ****  ===============================================================================
 983:Drivers/STM32F0xx_HAL_Driver/Src/stm32f0xx_hal_uart.c ****                       ##### IO operation functions #####
 984:Drivers/STM32F0xx_HAL_Driver/Src/stm32f0xx_hal_uart.c ****  ===============================================================================
 985:Drivers/STM32F0xx_HAL_Driver/Src/stm32f0xx_hal_uart.c ****     This subsection provides a set of functions allowing to manage the UART asynchronous
 986:Drivers/STM32F0xx_HAL_Driver/Src/stm32f0xx_hal_uart.c ****     and Half duplex data transfers.
 987:Drivers/STM32F0xx_HAL_Driver/Src/stm32f0xx_hal_uart.c **** 
ARM GAS  /tmp/ccTcPcT8.s 			page 29


 988:Drivers/STM32F0xx_HAL_Driver/Src/stm32f0xx_hal_uart.c ****     (#) There are two mode of transfer:
 989:Drivers/STM32F0xx_HAL_Driver/Src/stm32f0xx_hal_uart.c ****        (+) Blocking mode: The communication is performed in polling mode.
 990:Drivers/STM32F0xx_HAL_Driver/Src/stm32f0xx_hal_uart.c ****            The HAL status of all data processing is returned by the same function
 991:Drivers/STM32F0xx_HAL_Driver/Src/stm32f0xx_hal_uart.c ****            after finishing transfer.
 992:Drivers/STM32F0xx_HAL_Driver/Src/stm32f0xx_hal_uart.c ****        (+) Non-Blocking mode: The communication is performed using Interrupts
 993:Drivers/STM32F0xx_HAL_Driver/Src/stm32f0xx_hal_uart.c ****            or DMA, These API's return the HAL status.
 994:Drivers/STM32F0xx_HAL_Driver/Src/stm32f0xx_hal_uart.c ****            The end of the data processing will be indicated through the
 995:Drivers/STM32F0xx_HAL_Driver/Src/stm32f0xx_hal_uart.c ****            dedicated UART IRQ when using Interrupt mode or the DMA IRQ when
 996:Drivers/STM32F0xx_HAL_Driver/Src/stm32f0xx_hal_uart.c ****            using DMA mode.
 997:Drivers/STM32F0xx_HAL_Driver/Src/stm32f0xx_hal_uart.c ****            The HAL_UART_TxCpltCallback(), HAL_UART_RxCpltCallback() user callbacks
 998:Drivers/STM32F0xx_HAL_Driver/Src/stm32f0xx_hal_uart.c ****            will be executed respectively at the end of the transmit or Receive process
 999:Drivers/STM32F0xx_HAL_Driver/Src/stm32f0xx_hal_uart.c ****            The HAL_UART_ErrorCallback()user callback will be executed when a communication error is
1000:Drivers/STM32F0xx_HAL_Driver/Src/stm32f0xx_hal_uart.c **** 
1001:Drivers/STM32F0xx_HAL_Driver/Src/stm32f0xx_hal_uart.c ****     (#) Blocking mode API's are :
1002:Drivers/STM32F0xx_HAL_Driver/Src/stm32f0xx_hal_uart.c ****         (+) HAL_UART_Transmit()
1003:Drivers/STM32F0xx_HAL_Driver/Src/stm32f0xx_hal_uart.c ****         (+) HAL_UART_Receive()
1004:Drivers/STM32F0xx_HAL_Driver/Src/stm32f0xx_hal_uart.c **** 
1005:Drivers/STM32F0xx_HAL_Driver/Src/stm32f0xx_hal_uart.c ****     (#) Non-Blocking mode API's with Interrupt are :
1006:Drivers/STM32F0xx_HAL_Driver/Src/stm32f0xx_hal_uart.c ****         (+) HAL_UART_Transmit_IT()
1007:Drivers/STM32F0xx_HAL_Driver/Src/stm32f0xx_hal_uart.c ****         (+) HAL_UART_Receive_IT()
1008:Drivers/STM32F0xx_HAL_Driver/Src/stm32f0xx_hal_uart.c ****         (+) HAL_UART_IRQHandler()
1009:Drivers/STM32F0xx_HAL_Driver/Src/stm32f0xx_hal_uart.c **** 
1010:Drivers/STM32F0xx_HAL_Driver/Src/stm32f0xx_hal_uart.c ****     (#) Non-Blocking mode API's with DMA are :
1011:Drivers/STM32F0xx_HAL_Driver/Src/stm32f0xx_hal_uart.c ****         (+) HAL_UART_Transmit_DMA()
1012:Drivers/STM32F0xx_HAL_Driver/Src/stm32f0xx_hal_uart.c ****         (+) HAL_UART_Receive_DMA()
1013:Drivers/STM32F0xx_HAL_Driver/Src/stm32f0xx_hal_uart.c ****         (+) HAL_UART_DMAPause()
1014:Drivers/STM32F0xx_HAL_Driver/Src/stm32f0xx_hal_uart.c ****         (+) HAL_UART_DMAResume()
1015:Drivers/STM32F0xx_HAL_Driver/Src/stm32f0xx_hal_uart.c ****         (+) HAL_UART_DMAStop()
1016:Drivers/STM32F0xx_HAL_Driver/Src/stm32f0xx_hal_uart.c **** 
1017:Drivers/STM32F0xx_HAL_Driver/Src/stm32f0xx_hal_uart.c ****     (#) A set of Transfer Complete Callbacks are provided in Non_Blocking mode:
1018:Drivers/STM32F0xx_HAL_Driver/Src/stm32f0xx_hal_uart.c ****         (+) HAL_UART_TxHalfCpltCallback()
1019:Drivers/STM32F0xx_HAL_Driver/Src/stm32f0xx_hal_uart.c ****         (+) HAL_UART_TxCpltCallback()
1020:Drivers/STM32F0xx_HAL_Driver/Src/stm32f0xx_hal_uart.c ****         (+) HAL_UART_RxHalfCpltCallback()
1021:Drivers/STM32F0xx_HAL_Driver/Src/stm32f0xx_hal_uart.c ****         (+) HAL_UART_RxCpltCallback()
1022:Drivers/STM32F0xx_HAL_Driver/Src/stm32f0xx_hal_uart.c ****         (+) HAL_UART_ErrorCallback()
1023:Drivers/STM32F0xx_HAL_Driver/Src/stm32f0xx_hal_uart.c **** 
1024:Drivers/STM32F0xx_HAL_Driver/Src/stm32f0xx_hal_uart.c ****     (#) Non-Blocking mode transfers could be aborted using Abort API's :
1025:Drivers/STM32F0xx_HAL_Driver/Src/stm32f0xx_hal_uart.c ****         (+) HAL_UART_Abort()
1026:Drivers/STM32F0xx_HAL_Driver/Src/stm32f0xx_hal_uart.c ****         (+) HAL_UART_AbortTransmit()
1027:Drivers/STM32F0xx_HAL_Driver/Src/stm32f0xx_hal_uart.c ****         (+) HAL_UART_AbortReceive()
1028:Drivers/STM32F0xx_HAL_Driver/Src/stm32f0xx_hal_uart.c ****         (+) HAL_UART_Abort_IT()
1029:Drivers/STM32F0xx_HAL_Driver/Src/stm32f0xx_hal_uart.c ****         (+) HAL_UART_AbortTransmit_IT()
1030:Drivers/STM32F0xx_HAL_Driver/Src/stm32f0xx_hal_uart.c ****         (+) HAL_UART_AbortReceive_IT()
1031:Drivers/STM32F0xx_HAL_Driver/Src/stm32f0xx_hal_uart.c **** 
1032:Drivers/STM32F0xx_HAL_Driver/Src/stm32f0xx_hal_uart.c ****     (#) For Abort services based on interrupts (HAL_UART_Abortxxx_IT), a set of Abort Complete Call
1033:Drivers/STM32F0xx_HAL_Driver/Src/stm32f0xx_hal_uart.c ****         (+) HAL_UART_AbortCpltCallback()
1034:Drivers/STM32F0xx_HAL_Driver/Src/stm32f0xx_hal_uart.c ****         (+) HAL_UART_AbortTransmitCpltCallback()
1035:Drivers/STM32F0xx_HAL_Driver/Src/stm32f0xx_hal_uart.c ****         (+) HAL_UART_AbortReceiveCpltCallback()
1036:Drivers/STM32F0xx_HAL_Driver/Src/stm32f0xx_hal_uart.c **** 
1037:Drivers/STM32F0xx_HAL_Driver/Src/stm32f0xx_hal_uart.c ****     (#) In Non-Blocking mode transfers, possible errors are split into 2 categories.
1038:Drivers/STM32F0xx_HAL_Driver/Src/stm32f0xx_hal_uart.c ****         Errors are handled as follows :
1039:Drivers/STM32F0xx_HAL_Driver/Src/stm32f0xx_hal_uart.c ****        (+) Error is considered as Recoverable and non blocking : Transfer could go till end, but er
1040:Drivers/STM32F0xx_HAL_Driver/Src/stm32f0xx_hal_uart.c ****            to be evaluated by user : this concerns Frame Error, Parity Error or Noise Error in Inte
1041:Drivers/STM32F0xx_HAL_Driver/Src/stm32f0xx_hal_uart.c ****            Received character is then retrieved and stored in Rx buffer, Error code is set to allow
1042:Drivers/STM32F0xx_HAL_Driver/Src/stm32f0xx_hal_uart.c ****            and HAL_UART_ErrorCallback() user callback is executed. Transfer is kept ongoing on UART
1043:Drivers/STM32F0xx_HAL_Driver/Src/stm32f0xx_hal_uart.c ****            If user wants to abort it, Abort services should be called by user.
1044:Drivers/STM32F0xx_HAL_Driver/Src/stm32f0xx_hal_uart.c ****        (+) Error is considered as Blocking : Transfer could not be completed properly and is aborte
ARM GAS  /tmp/ccTcPcT8.s 			page 30


1045:Drivers/STM32F0xx_HAL_Driver/Src/stm32f0xx_hal_uart.c ****            This concerns Overrun Error In Interrupt mode reception and all errors in DMA mode.
1046:Drivers/STM32F0xx_HAL_Driver/Src/stm32f0xx_hal_uart.c ****            Error code is set to allow user to identify error type, and HAL_UART_ErrorCallback() use
1047:Drivers/STM32F0xx_HAL_Driver/Src/stm32f0xx_hal_uart.c **** 
1048:Drivers/STM32F0xx_HAL_Driver/Src/stm32f0xx_hal_uart.c ****     -@- In the Half duplex communication, it is forbidden to run the transmit
1049:Drivers/STM32F0xx_HAL_Driver/Src/stm32f0xx_hal_uart.c ****         and receive process in parallel, the UART state HAL_UART_STATE_BUSY_TX_RX can't be useful.
1050:Drivers/STM32F0xx_HAL_Driver/Src/stm32f0xx_hal_uart.c **** 
1051:Drivers/STM32F0xx_HAL_Driver/Src/stm32f0xx_hal_uart.c **** @endverbatim
1052:Drivers/STM32F0xx_HAL_Driver/Src/stm32f0xx_hal_uart.c ****   * @{
1053:Drivers/STM32F0xx_HAL_Driver/Src/stm32f0xx_hal_uart.c ****   */
1054:Drivers/STM32F0xx_HAL_Driver/Src/stm32f0xx_hal_uart.c **** 
1055:Drivers/STM32F0xx_HAL_Driver/Src/stm32f0xx_hal_uart.c **** /**
1056:Drivers/STM32F0xx_HAL_Driver/Src/stm32f0xx_hal_uart.c ****   * @brief Send an amount of data in blocking mode.
1057:Drivers/STM32F0xx_HAL_Driver/Src/stm32f0xx_hal_uart.c ****   * @note   When UART parity is not enabled (PCE = 0), and Word Length is configured to 9 bits (M1-
1058:Drivers/STM32F0xx_HAL_Driver/Src/stm32f0xx_hal_uart.c ****   *         the sent data is handled as a set of u16. In this case, Size must indicate the number
1059:Drivers/STM32F0xx_HAL_Driver/Src/stm32f0xx_hal_uart.c ****   *         of u16 provided through pData.
1060:Drivers/STM32F0xx_HAL_Driver/Src/stm32f0xx_hal_uart.c ****   * @note   When UART parity is not enabled (PCE = 0), and Word Length is configured to 9 bits (M1-
1061:Drivers/STM32F0xx_HAL_Driver/Src/stm32f0xx_hal_uart.c ****   *         address of user data buffer containing data to be sent, should be aligned on a half wor
1062:Drivers/STM32F0xx_HAL_Driver/Src/stm32f0xx_hal_uart.c ****   *         (as sent data will be handled using u16 pointer cast). Depending on compilation chain,
1063:Drivers/STM32F0xx_HAL_Driver/Src/stm32f0xx_hal_uart.c ****   *         use of specific alignment compilation directives or pragmas might be required to ensure
1064:Drivers/STM32F0xx_HAL_Driver/Src/stm32f0xx_hal_uart.c ****   * @param huart   UART handle.
1065:Drivers/STM32F0xx_HAL_Driver/Src/stm32f0xx_hal_uart.c ****   * @param pData   Pointer to data buffer (u8 or u16 data elements).
1066:Drivers/STM32F0xx_HAL_Driver/Src/stm32f0xx_hal_uart.c ****   * @param Size    Amount of data elements (u8 or u16) to be sent.
1067:Drivers/STM32F0xx_HAL_Driver/Src/stm32f0xx_hal_uart.c ****   * @param Timeout Timeout duration.
1068:Drivers/STM32F0xx_HAL_Driver/Src/stm32f0xx_hal_uart.c ****   * @retval HAL status
1069:Drivers/STM32F0xx_HAL_Driver/Src/stm32f0xx_hal_uart.c ****   */
1070:Drivers/STM32F0xx_HAL_Driver/Src/stm32f0xx_hal_uart.c **** HAL_StatusTypeDef HAL_UART_Transmit(UART_HandleTypeDef *huart, uint8_t *pData, uint16_t Size, uint3
1071:Drivers/STM32F0xx_HAL_Driver/Src/stm32f0xx_hal_uart.c **** {
 623              		.loc 1 1071 1
 624              		.cfi_startproc
 625              		@ args = 0, pretend = 0, frame = 32
 626              		@ frame_needed = 1, uses_anonymous_args = 0
 627 0000 80B5     		push	{r7, lr}
 628              	.LCFI18:
 629              		.cfi_def_cfa_offset 8
 630              		.cfi_offset 7, -8
 631              		.cfi_offset 14, -4
 632 0002 8AB0     		sub	sp, sp, #40
 633              	.LCFI19:
 634              		.cfi_def_cfa_offset 48
 635 0004 02AF     		add	r7, sp, #8
 636              	.LCFI20:
 637              		.cfi_def_cfa 7, 40
 638 0006 F860     		str	r0, [r7, #12]
 639 0008 B960     		str	r1, [r7, #8]
 640 000a 3B60     		str	r3, [r7]
 641 000c BB1D     		adds	r3, r7, #6
 642 000e 1A80     		strh	r2, [r3]
1072:Drivers/STM32F0xx_HAL_Driver/Src/stm32f0xx_hal_uart.c ****   uint8_t  *pdata8bits;
1073:Drivers/STM32F0xx_HAL_Driver/Src/stm32f0xx_hal_uart.c ****   uint16_t *pdata16bits;
1074:Drivers/STM32F0xx_HAL_Driver/Src/stm32f0xx_hal_uart.c ****   uint32_t tickstart;
1075:Drivers/STM32F0xx_HAL_Driver/Src/stm32f0xx_hal_uart.c **** 
1076:Drivers/STM32F0xx_HAL_Driver/Src/stm32f0xx_hal_uart.c ****   /* Check that a Tx process is not already ongoing */
1077:Drivers/STM32F0xx_HAL_Driver/Src/stm32f0xx_hal_uart.c ****   if (huart->gState == HAL_UART_STATE_READY)
 643              		.loc 1 1077 12
 644 0010 FB68     		ldr	r3, [r7, #12]
 645 0012 5B6F     		ldr	r3, [r3, #116]
 646              		.loc 1 1077 6
ARM GAS  /tmp/ccTcPcT8.s 			page 31


 647 0014 202B     		cmp	r3, #32
 648 0016 00D0     		beq	.LCB535
 649 0018 94E0     		b	.L32	@long jump
 650              	.LCB535:
1078:Drivers/STM32F0xx_HAL_Driver/Src/stm32f0xx_hal_uart.c ****   {
1079:Drivers/STM32F0xx_HAL_Driver/Src/stm32f0xx_hal_uart.c ****     if ((pData == NULL) || (Size == 0U))
 651              		.loc 1 1079 8
 652 001a BB68     		ldr	r3, [r7, #8]
 653 001c 002B     		cmp	r3, #0
 654 001e 03D0     		beq	.L33
 655              		.loc 1 1079 25 discriminator 1
 656 0020 BB1D     		adds	r3, r7, #6
 657 0022 1B88     		ldrh	r3, [r3]
 658 0024 002B     		cmp	r3, #0
 659 0026 01D1     		bne	.L34
 660              	.L33:
1080:Drivers/STM32F0xx_HAL_Driver/Src/stm32f0xx_hal_uart.c ****     {
1081:Drivers/STM32F0xx_HAL_Driver/Src/stm32f0xx_hal_uart.c ****       return  HAL_ERROR;
 661              		.loc 1 1081 15
 662 0028 0123     		movs	r3, #1
 663 002a 8CE0     		b	.L35
 664              	.L34:
1082:Drivers/STM32F0xx_HAL_Driver/Src/stm32f0xx_hal_uart.c ****     }
1083:Drivers/STM32F0xx_HAL_Driver/Src/stm32f0xx_hal_uart.c **** 
1084:Drivers/STM32F0xx_HAL_Driver/Src/stm32f0xx_hal_uart.c ****     /* In case of 9bits/No Parity transfer, pData buffer provided as input parameter
1085:Drivers/STM32F0xx_HAL_Driver/Src/stm32f0xx_hal_uart.c ****        should be aligned on a u16 frontier, as data to be filled into TDR will be
1086:Drivers/STM32F0xx_HAL_Driver/Src/stm32f0xx_hal_uart.c ****        handled through a u16 cast. */
1087:Drivers/STM32F0xx_HAL_Driver/Src/stm32f0xx_hal_uart.c ****     if ((huart->Init.WordLength == UART_WORDLENGTH_9B) && (huart->Init.Parity == UART_PARITY_NONE))
 665              		.loc 1 1087 21
 666 002c FB68     		ldr	r3, [r7, #12]
 667 002e 9A68     		ldr	r2, [r3, #8]
 668              		.loc 1 1087 8
 669 0030 8023     		movs	r3, #128
 670 0032 5B01     		lsls	r3, r3, #5
 671 0034 9A42     		cmp	r2, r3
 672 0036 09D1     		bne	.L36
 673              		.loc 1 1087 71 discriminator 1
 674 0038 FB68     		ldr	r3, [r7, #12]
 675 003a 1B69     		ldr	r3, [r3, #16]
 676              		.loc 1 1087 56 discriminator 1
 677 003c 002B     		cmp	r3, #0
 678 003e 05D1     		bne	.L36
1088:Drivers/STM32F0xx_HAL_Driver/Src/stm32f0xx_hal_uart.c ****     {
1089:Drivers/STM32F0xx_HAL_Driver/Src/stm32f0xx_hal_uart.c ****       if ((((uint32_t)pData) & 1U) != 0U)
 679              		.loc 1 1089 13
 680 0040 BB68     		ldr	r3, [r7, #8]
 681              		.loc 1 1089 30
 682 0042 0122     		movs	r2, #1
 683 0044 1340     		ands	r3, r2
 684              		.loc 1 1089 10
 685 0046 01D0     		beq	.L36
1090:Drivers/STM32F0xx_HAL_Driver/Src/stm32f0xx_hal_uart.c ****       {
1091:Drivers/STM32F0xx_HAL_Driver/Src/stm32f0xx_hal_uart.c ****         return  HAL_ERROR;
 686              		.loc 1 1091 17
 687 0048 0123     		movs	r3, #1
 688 004a 7CE0     		b	.L35
 689              	.L36:
ARM GAS  /tmp/ccTcPcT8.s 			page 32


1092:Drivers/STM32F0xx_HAL_Driver/Src/stm32f0xx_hal_uart.c ****       }
1093:Drivers/STM32F0xx_HAL_Driver/Src/stm32f0xx_hal_uart.c ****     }
1094:Drivers/STM32F0xx_HAL_Driver/Src/stm32f0xx_hal_uart.c **** 
1095:Drivers/STM32F0xx_HAL_Driver/Src/stm32f0xx_hal_uart.c ****     __HAL_LOCK(huart);
 690              		.loc 1 1095 5
 691 004c FB68     		ldr	r3, [r7, #12]
 692 004e 7022     		movs	r2, #112
 693 0050 9B5C     		ldrb	r3, [r3, r2]
 694 0052 012B     		cmp	r3, #1
 695 0054 01D1     		bne	.L37
 696              		.loc 1 1095 5 is_stmt 0 discriminator 1
 697 0056 0223     		movs	r3, #2
 698              		.loc 1 1095 5
 699 0058 75E0     		b	.L35
 700              	.L37:
 701              		.loc 1 1095 5 discriminator 2
 702 005a FB68     		ldr	r3, [r7, #12]
 703 005c 7022     		movs	r2, #112
 704 005e 0121     		movs	r1, #1
 705 0060 9954     		strb	r1, [r3, r2]
1096:Drivers/STM32F0xx_HAL_Driver/Src/stm32f0xx_hal_uart.c **** 
1097:Drivers/STM32F0xx_HAL_Driver/Src/stm32f0xx_hal_uart.c ****     huart->ErrorCode = HAL_UART_ERROR_NONE;
 706              		.loc 1 1097 22 is_stmt 1
 707 0062 FB68     		ldr	r3, [r7, #12]
 708 0064 0022     		movs	r2, #0
 709 0066 DA67     		str	r2, [r3, #124]
1098:Drivers/STM32F0xx_HAL_Driver/Src/stm32f0xx_hal_uart.c ****     huart->gState = HAL_UART_STATE_BUSY_TX;
 710              		.loc 1 1098 19
 711 0068 FB68     		ldr	r3, [r7, #12]
 712 006a 2122     		movs	r2, #33
 713 006c 5A67     		str	r2, [r3, #116]
1099:Drivers/STM32F0xx_HAL_Driver/Src/stm32f0xx_hal_uart.c **** 
1100:Drivers/STM32F0xx_HAL_Driver/Src/stm32f0xx_hal_uart.c ****     /* Init tickstart for timeout managment*/
1101:Drivers/STM32F0xx_HAL_Driver/Src/stm32f0xx_hal_uart.c ****     tickstart = HAL_GetTick();
 714              		.loc 1 1101 17
 715 006e FFF7FEFF 		bl	HAL_GetTick
 716 0072 0300     		movs	r3, r0
 717 0074 7B61     		str	r3, [r7, #20]
1102:Drivers/STM32F0xx_HAL_Driver/Src/stm32f0xx_hal_uart.c **** 
1103:Drivers/STM32F0xx_HAL_Driver/Src/stm32f0xx_hal_uart.c ****     huart->TxXferSize  = Size;
 718              		.loc 1 1103 24
 719 0076 FB68     		ldr	r3, [r7, #12]
 720 0078 BA1D     		adds	r2, r7, #6
 721 007a 5021     		movs	r1, #80
 722 007c 1288     		ldrh	r2, [r2]
 723 007e 5A52     		strh	r2, [r3, r1]
1104:Drivers/STM32F0xx_HAL_Driver/Src/stm32f0xx_hal_uart.c ****     huart->TxXferCount = Size;
 724              		.loc 1 1104 24
 725 0080 FB68     		ldr	r3, [r7, #12]
 726 0082 BA1D     		adds	r2, r7, #6
 727 0084 5221     		movs	r1, #82
 728 0086 1288     		ldrh	r2, [r2]
 729 0088 5A52     		strh	r2, [r3, r1]
1105:Drivers/STM32F0xx_HAL_Driver/Src/stm32f0xx_hal_uart.c **** 
1106:Drivers/STM32F0xx_HAL_Driver/Src/stm32f0xx_hal_uart.c ****     /* In case of 9bits/No Parity transfer, pData needs to be handled as a uint16_t pointer */
1107:Drivers/STM32F0xx_HAL_Driver/Src/stm32f0xx_hal_uart.c ****     if ((huart->Init.WordLength == UART_WORDLENGTH_9B) && (huart->Init.Parity == UART_PARITY_NONE))
 730              		.loc 1 1107 21
ARM GAS  /tmp/ccTcPcT8.s 			page 33


 731 008a FB68     		ldr	r3, [r7, #12]
 732 008c 9A68     		ldr	r2, [r3, #8]
 733              		.loc 1 1107 8
 734 008e 8023     		movs	r3, #128
 735 0090 5B01     		lsls	r3, r3, #5
 736 0092 9A42     		cmp	r2, r3
 737 0094 08D1     		bne	.L38
 738              		.loc 1 1107 71 discriminator 1
 739 0096 FB68     		ldr	r3, [r7, #12]
 740 0098 1B69     		ldr	r3, [r3, #16]
 741              		.loc 1 1107 56 discriminator 1
 742 009a 002B     		cmp	r3, #0
 743 009c 04D1     		bne	.L38
1108:Drivers/STM32F0xx_HAL_Driver/Src/stm32f0xx_hal_uart.c ****     {
1109:Drivers/STM32F0xx_HAL_Driver/Src/stm32f0xx_hal_uart.c ****       pdata8bits  = NULL;
 744              		.loc 1 1109 19
 745 009e 0023     		movs	r3, #0
 746 00a0 FB61     		str	r3, [r7, #28]
1110:Drivers/STM32F0xx_HAL_Driver/Src/stm32f0xx_hal_uart.c ****       pdata16bits = (uint16_t *) pData;
 747              		.loc 1 1110 19
 748 00a2 BB68     		ldr	r3, [r7, #8]
 749 00a4 BB61     		str	r3, [r7, #24]
 750 00a6 03E0     		b	.L39
 751              	.L38:
1111:Drivers/STM32F0xx_HAL_Driver/Src/stm32f0xx_hal_uart.c ****     }
1112:Drivers/STM32F0xx_HAL_Driver/Src/stm32f0xx_hal_uart.c ****     else
1113:Drivers/STM32F0xx_HAL_Driver/Src/stm32f0xx_hal_uart.c ****     {
1114:Drivers/STM32F0xx_HAL_Driver/Src/stm32f0xx_hal_uart.c ****       pdata8bits  = pData;
 752              		.loc 1 1114 19
 753 00a8 BB68     		ldr	r3, [r7, #8]
 754 00aa FB61     		str	r3, [r7, #28]
1115:Drivers/STM32F0xx_HAL_Driver/Src/stm32f0xx_hal_uart.c ****       pdata16bits = NULL;
 755              		.loc 1 1115 19
 756 00ac 0023     		movs	r3, #0
 757 00ae BB61     		str	r3, [r7, #24]
 758              	.L39:
1116:Drivers/STM32F0xx_HAL_Driver/Src/stm32f0xx_hal_uart.c ****     }
1117:Drivers/STM32F0xx_HAL_Driver/Src/stm32f0xx_hal_uart.c **** 
1118:Drivers/STM32F0xx_HAL_Driver/Src/stm32f0xx_hal_uart.c ****     while (huart->TxXferCount > 0U)
 759              		.loc 1 1118 11
 760 00b0 2CE0     		b	.L40
 761              	.L44:
1119:Drivers/STM32F0xx_HAL_Driver/Src/stm32f0xx_hal_uart.c ****     {
1120:Drivers/STM32F0xx_HAL_Driver/Src/stm32f0xx_hal_uart.c ****       if (UART_WaitOnFlagUntilTimeout(huart, UART_FLAG_TXE, RESET, tickstart, Timeout) != HAL_OK)
 762              		.loc 1 1120 11
 763 00b2 7A69     		ldr	r2, [r7, #20]
 764 00b4 F868     		ldr	r0, [r7, #12]
 765 00b6 3B68     		ldr	r3, [r7]
 766 00b8 0093     		str	r3, [sp]
 767 00ba 1300     		movs	r3, r2
 768 00bc 0022     		movs	r2, #0
 769 00be 8021     		movs	r1, #128
 770 00c0 FFF7FEFF 		bl	UART_WaitOnFlagUntilTimeout
 771 00c4 031E     		subs	r3, r0, #0
 772              		.loc 1 1120 10 discriminator 1
 773 00c6 01D0     		beq	.L41
1121:Drivers/STM32F0xx_HAL_Driver/Src/stm32f0xx_hal_uart.c ****       {
ARM GAS  /tmp/ccTcPcT8.s 			page 34


1122:Drivers/STM32F0xx_HAL_Driver/Src/stm32f0xx_hal_uart.c ****         return HAL_TIMEOUT;
 774              		.loc 1 1122 16
 775 00c8 0323     		movs	r3, #3
 776 00ca 3CE0     		b	.L35
 777              	.L41:
1123:Drivers/STM32F0xx_HAL_Driver/Src/stm32f0xx_hal_uart.c ****       }
1124:Drivers/STM32F0xx_HAL_Driver/Src/stm32f0xx_hal_uart.c ****       if (pdata8bits == NULL)
 778              		.loc 1 1124 10
 779 00cc FB69     		ldr	r3, [r7, #28]
 780 00ce 002B     		cmp	r3, #0
 781 00d0 0BD1     		bne	.L42
1125:Drivers/STM32F0xx_HAL_Driver/Src/stm32f0xx_hal_uart.c ****       {
1126:Drivers/STM32F0xx_HAL_Driver/Src/stm32f0xx_hal_uart.c ****         huart->Instance->TDR = (uint16_t)(*pdata16bits & 0x01FFU);
 782              		.loc 1 1126 43
 783 00d2 BB69     		ldr	r3, [r7, #24]
 784 00d4 1A88     		ldrh	r2, [r3]
 785              		.loc 1 1126 14
 786 00d6 FB68     		ldr	r3, [r7, #12]
 787 00d8 1B68     		ldr	r3, [r3]
 788              		.loc 1 1126 32
 789 00da D205     		lsls	r2, r2, #23
 790 00dc D20D     		lsrs	r2, r2, #23
 791 00de 92B2     		uxth	r2, r2
 792              		.loc 1 1126 30
 793 00e0 1A85     		strh	r2, [r3, #40]
1127:Drivers/STM32F0xx_HAL_Driver/Src/stm32f0xx_hal_uart.c ****         pdata16bits++;
 794              		.loc 1 1127 20
 795 00e2 BB69     		ldr	r3, [r7, #24]
 796 00e4 0233     		adds	r3, r3, #2
 797 00e6 BB61     		str	r3, [r7, #24]
 798 00e8 07E0     		b	.L43
 799              	.L42:
1128:Drivers/STM32F0xx_HAL_Driver/Src/stm32f0xx_hal_uart.c ****       }
1129:Drivers/STM32F0xx_HAL_Driver/Src/stm32f0xx_hal_uart.c ****       else
1130:Drivers/STM32F0xx_HAL_Driver/Src/stm32f0xx_hal_uart.c ****       {
1131:Drivers/STM32F0xx_HAL_Driver/Src/stm32f0xx_hal_uart.c ****         huart->Instance->TDR = (uint8_t)(*pdata8bits & 0xFFU);
 800              		.loc 1 1131 42
 801 00ea FB69     		ldr	r3, [r7, #28]
 802 00ec 1A78     		ldrb	r2, [r3]
 803              		.loc 1 1131 14
 804 00ee FB68     		ldr	r3, [r7, #12]
 805 00f0 1B68     		ldr	r3, [r3]
 806              		.loc 1 1131 30
 807 00f2 1A85     		strh	r2, [r3, #40]
1132:Drivers/STM32F0xx_HAL_Driver/Src/stm32f0xx_hal_uart.c ****         pdata8bits++;
 808              		.loc 1 1132 19
 809 00f4 FB69     		ldr	r3, [r7, #28]
 810 00f6 0133     		adds	r3, r3, #1
 811 00f8 FB61     		str	r3, [r7, #28]
 812              	.L43:
1133:Drivers/STM32F0xx_HAL_Driver/Src/stm32f0xx_hal_uart.c ****       }
1134:Drivers/STM32F0xx_HAL_Driver/Src/stm32f0xx_hal_uart.c ****       huart->TxXferCount--;
 813              		.loc 1 1134 12
 814 00fa FB68     		ldr	r3, [r7, #12]
 815 00fc 5222     		movs	r2, #82
 816 00fe 9B5A     		ldrh	r3, [r3, r2]
 817 0100 9BB2     		uxth	r3, r3
ARM GAS  /tmp/ccTcPcT8.s 			page 35


 818              		.loc 1 1134 25
 819 0102 013B     		subs	r3, r3, #1
 820 0104 99B2     		uxth	r1, r3
 821 0106 FB68     		ldr	r3, [r7, #12]
 822 0108 5222     		movs	r2, #82
 823 010a 9952     		strh	r1, [r3, r2]
 824              	.L40:
1118:Drivers/STM32F0xx_HAL_Driver/Src/stm32f0xx_hal_uart.c ****     {
 825              		.loc 1 1118 17
 826 010c FB68     		ldr	r3, [r7, #12]
 827 010e 5222     		movs	r2, #82
 828 0110 9B5A     		ldrh	r3, [r3, r2]
 829 0112 9BB2     		uxth	r3, r3
1118:Drivers/STM32F0xx_HAL_Driver/Src/stm32f0xx_hal_uart.c ****     {
 830              		.loc 1 1118 31
 831 0114 002B     		cmp	r3, #0
 832 0116 CCD1     		bne	.L44
1135:Drivers/STM32F0xx_HAL_Driver/Src/stm32f0xx_hal_uart.c ****     }
1136:Drivers/STM32F0xx_HAL_Driver/Src/stm32f0xx_hal_uart.c **** 
1137:Drivers/STM32F0xx_HAL_Driver/Src/stm32f0xx_hal_uart.c ****     if (UART_WaitOnFlagUntilTimeout(huart, UART_FLAG_TC, RESET, tickstart, Timeout) != HAL_OK)
 833              		.loc 1 1137 9
 834 0118 7A69     		ldr	r2, [r7, #20]
 835 011a F868     		ldr	r0, [r7, #12]
 836 011c 3B68     		ldr	r3, [r7]
 837 011e 0093     		str	r3, [sp]
 838 0120 1300     		movs	r3, r2
 839 0122 0022     		movs	r2, #0
 840 0124 4021     		movs	r1, #64
 841 0126 FFF7FEFF 		bl	UART_WaitOnFlagUntilTimeout
 842 012a 031E     		subs	r3, r0, #0
 843              		.loc 1 1137 8 discriminator 1
 844 012c 01D0     		beq	.L45
1138:Drivers/STM32F0xx_HAL_Driver/Src/stm32f0xx_hal_uart.c ****     {
1139:Drivers/STM32F0xx_HAL_Driver/Src/stm32f0xx_hal_uart.c ****       return HAL_TIMEOUT;
 845              		.loc 1 1139 14
 846 012e 0323     		movs	r3, #3
 847 0130 09E0     		b	.L35
 848              	.L45:
1140:Drivers/STM32F0xx_HAL_Driver/Src/stm32f0xx_hal_uart.c ****     }
1141:Drivers/STM32F0xx_HAL_Driver/Src/stm32f0xx_hal_uart.c **** 
1142:Drivers/STM32F0xx_HAL_Driver/Src/stm32f0xx_hal_uart.c ****     /* At end of Tx process, restore huart->gState to Ready */
1143:Drivers/STM32F0xx_HAL_Driver/Src/stm32f0xx_hal_uart.c ****     huart->gState = HAL_UART_STATE_READY;
 849              		.loc 1 1143 19
 850 0132 FB68     		ldr	r3, [r7, #12]
 851 0134 2022     		movs	r2, #32
 852 0136 5A67     		str	r2, [r3, #116]
1144:Drivers/STM32F0xx_HAL_Driver/Src/stm32f0xx_hal_uart.c **** 
1145:Drivers/STM32F0xx_HAL_Driver/Src/stm32f0xx_hal_uart.c ****     __HAL_UNLOCK(huart);
 853              		.loc 1 1145 5
 854 0138 FB68     		ldr	r3, [r7, #12]
 855 013a 7022     		movs	r2, #112
 856 013c 0021     		movs	r1, #0
 857 013e 9954     		strb	r1, [r3, r2]
1146:Drivers/STM32F0xx_HAL_Driver/Src/stm32f0xx_hal_uart.c **** 
1147:Drivers/STM32F0xx_HAL_Driver/Src/stm32f0xx_hal_uart.c ****     return HAL_OK;
 858              		.loc 1 1147 12
 859 0140 0023     		movs	r3, #0
ARM GAS  /tmp/ccTcPcT8.s 			page 36


 860 0142 00E0     		b	.L35
 861              	.L32:
1148:Drivers/STM32F0xx_HAL_Driver/Src/stm32f0xx_hal_uart.c ****   }
1149:Drivers/STM32F0xx_HAL_Driver/Src/stm32f0xx_hal_uart.c ****   else
1150:Drivers/STM32F0xx_HAL_Driver/Src/stm32f0xx_hal_uart.c ****   {
1151:Drivers/STM32F0xx_HAL_Driver/Src/stm32f0xx_hal_uart.c ****     return HAL_BUSY;
 862              		.loc 1 1151 12
 863 0144 0223     		movs	r3, #2
 864              	.L35:
1152:Drivers/STM32F0xx_HAL_Driver/Src/stm32f0xx_hal_uart.c ****   }
1153:Drivers/STM32F0xx_HAL_Driver/Src/stm32f0xx_hal_uart.c **** }
 865              		.loc 1 1153 1
 866 0146 1800     		movs	r0, r3
 867 0148 BD46     		mov	sp, r7
 868 014a 08B0     		add	sp, sp, #32
 869              		@ sp needed
 870 014c 80BD     		pop	{r7, pc}
 871              		.cfi_endproc
 872              	.LFE46:
 874              		.section	.text.HAL_UART_Receive,"ax",%progbits
 875              		.align	1
 876              		.global	HAL_UART_Receive
 877              		.syntax unified
 878              		.code	16
 879              		.thumb_func
 881              	HAL_UART_Receive:
 882              	.LFB47:
1154:Drivers/STM32F0xx_HAL_Driver/Src/stm32f0xx_hal_uart.c **** 
1155:Drivers/STM32F0xx_HAL_Driver/Src/stm32f0xx_hal_uart.c **** /**
1156:Drivers/STM32F0xx_HAL_Driver/Src/stm32f0xx_hal_uart.c ****   * @brief Receive an amount of data in blocking mode.
1157:Drivers/STM32F0xx_HAL_Driver/Src/stm32f0xx_hal_uart.c ****   * @note   When UART parity is not enabled (PCE = 0), and Word Length is configured to 9 bits (M1-
1158:Drivers/STM32F0xx_HAL_Driver/Src/stm32f0xx_hal_uart.c ****   *         the received data is handled as a set of u16. In this case, Size must indicate the numb
1159:Drivers/STM32F0xx_HAL_Driver/Src/stm32f0xx_hal_uart.c ****   *         of u16 available through pData.
1160:Drivers/STM32F0xx_HAL_Driver/Src/stm32f0xx_hal_uart.c ****   * @note   When UART parity is not enabled (PCE = 0), and Word Length is configured to 9 bits (M1-
1161:Drivers/STM32F0xx_HAL_Driver/Src/stm32f0xx_hal_uart.c ****   *         address of user data buffer for storing data to be received, should be aligned on a hal
1162:Drivers/STM32F0xx_HAL_Driver/Src/stm32f0xx_hal_uart.c ****   *         (as received data will be handled using u16 pointer cast). Depending on compilation cha
1163:Drivers/STM32F0xx_HAL_Driver/Src/stm32f0xx_hal_uart.c ****   *         use of specific alignment compilation directives or pragmas might be required to ensure
1164:Drivers/STM32F0xx_HAL_Driver/Src/stm32f0xx_hal_uart.c ****   * @param huart   UART handle.
1165:Drivers/STM32F0xx_HAL_Driver/Src/stm32f0xx_hal_uart.c ****   * @param pData   Pointer to data buffer (u8 or u16 data elements).
1166:Drivers/STM32F0xx_HAL_Driver/Src/stm32f0xx_hal_uart.c ****   * @param Size    Amount of data elements (u8 or u16) to be received.
1167:Drivers/STM32F0xx_HAL_Driver/Src/stm32f0xx_hal_uart.c ****   * @param Timeout Timeout duration.
1168:Drivers/STM32F0xx_HAL_Driver/Src/stm32f0xx_hal_uart.c ****   * @retval HAL status
1169:Drivers/STM32F0xx_HAL_Driver/Src/stm32f0xx_hal_uart.c ****   */
1170:Drivers/STM32F0xx_HAL_Driver/Src/stm32f0xx_hal_uart.c **** HAL_StatusTypeDef HAL_UART_Receive(UART_HandleTypeDef *huart, uint8_t *pData, uint16_t Size, uint32
1171:Drivers/STM32F0xx_HAL_Driver/Src/stm32f0xx_hal_uart.c **** {
 883              		.loc 1 1171 1
 884              		.cfi_startproc
 885              		@ args = 0, pretend = 0, frame = 32
 886              		@ frame_needed = 1, uses_anonymous_args = 0
 887 0000 80B5     		push	{r7, lr}
 888              	.LCFI21:
 889              		.cfi_def_cfa_offset 8
 890              		.cfi_offset 7, -8
 891              		.cfi_offset 14, -4
 892 0002 8AB0     		sub	sp, sp, #40
 893              	.LCFI22:
 894              		.cfi_def_cfa_offset 48
ARM GAS  /tmp/ccTcPcT8.s 			page 37


 895 0004 02AF     		add	r7, sp, #8
 896              	.LCFI23:
 897              		.cfi_def_cfa 7, 40
 898 0006 F860     		str	r0, [r7, #12]
 899 0008 B960     		str	r1, [r7, #8]
 900 000a 3B60     		str	r3, [r7]
 901 000c BB1D     		adds	r3, r7, #6
 902 000e 1A80     		strh	r2, [r3]
1172:Drivers/STM32F0xx_HAL_Driver/Src/stm32f0xx_hal_uart.c ****   uint8_t  *pdata8bits;
1173:Drivers/STM32F0xx_HAL_Driver/Src/stm32f0xx_hal_uart.c ****   uint16_t *pdata16bits;
1174:Drivers/STM32F0xx_HAL_Driver/Src/stm32f0xx_hal_uart.c ****   uint16_t uhMask;
1175:Drivers/STM32F0xx_HAL_Driver/Src/stm32f0xx_hal_uart.c ****   uint32_t tickstart;
1176:Drivers/STM32F0xx_HAL_Driver/Src/stm32f0xx_hal_uart.c **** 
1177:Drivers/STM32F0xx_HAL_Driver/Src/stm32f0xx_hal_uart.c ****   /* Check that a Rx process is not already ongoing */
1178:Drivers/STM32F0xx_HAL_Driver/Src/stm32f0xx_hal_uart.c ****   if (huart->RxState == HAL_UART_STATE_READY)
 903              		.loc 1 1178 12
 904 0010 FB68     		ldr	r3, [r7, #12]
 905 0012 9B6F     		ldr	r3, [r3, #120]
 906              		.loc 1 1178 6
 907 0014 202B     		cmp	r3, #32
 908 0016 00D0     		beq	.LCB756
 909 0018 C2E0     		b	.L47	@long jump
 910              	.LCB756:
1179:Drivers/STM32F0xx_HAL_Driver/Src/stm32f0xx_hal_uart.c ****   {
1180:Drivers/STM32F0xx_HAL_Driver/Src/stm32f0xx_hal_uart.c ****     if ((pData == NULL) || (Size == 0U))
 911              		.loc 1 1180 8
 912 001a BB68     		ldr	r3, [r7, #8]
 913 001c 002B     		cmp	r3, #0
 914 001e 03D0     		beq	.L48
 915              		.loc 1 1180 25 discriminator 1
 916 0020 BB1D     		adds	r3, r7, #6
 917 0022 1B88     		ldrh	r3, [r3]
 918 0024 002B     		cmp	r3, #0
 919 0026 01D1     		bne	.L49
 920              	.L48:
1181:Drivers/STM32F0xx_HAL_Driver/Src/stm32f0xx_hal_uart.c ****     {
1182:Drivers/STM32F0xx_HAL_Driver/Src/stm32f0xx_hal_uart.c ****       return  HAL_ERROR;
 921              		.loc 1 1182 15
 922 0028 0123     		movs	r3, #1
 923 002a BAE0     		b	.L50
 924              	.L49:
1183:Drivers/STM32F0xx_HAL_Driver/Src/stm32f0xx_hal_uart.c ****     }
1184:Drivers/STM32F0xx_HAL_Driver/Src/stm32f0xx_hal_uart.c **** 
1185:Drivers/STM32F0xx_HAL_Driver/Src/stm32f0xx_hal_uart.c ****     /* In case of 9bits/No Parity transfer, pData buffer provided as input parameter
1186:Drivers/STM32F0xx_HAL_Driver/Src/stm32f0xx_hal_uart.c ****        should be aligned on a u16 frontier, as data to be received from RDR will be
1187:Drivers/STM32F0xx_HAL_Driver/Src/stm32f0xx_hal_uart.c ****        handled through a u16 cast. */
1188:Drivers/STM32F0xx_HAL_Driver/Src/stm32f0xx_hal_uart.c ****     if ((huart->Init.WordLength == UART_WORDLENGTH_9B) && (huart->Init.Parity == UART_PARITY_NONE))
 925              		.loc 1 1188 21
 926 002c FB68     		ldr	r3, [r7, #12]
 927 002e 9A68     		ldr	r2, [r3, #8]
 928              		.loc 1 1188 8
 929 0030 8023     		movs	r3, #128
 930 0032 5B01     		lsls	r3, r3, #5
 931 0034 9A42     		cmp	r2, r3
 932 0036 09D1     		bne	.L51
 933              		.loc 1 1188 71 discriminator 1
 934 0038 FB68     		ldr	r3, [r7, #12]
ARM GAS  /tmp/ccTcPcT8.s 			page 38


 935 003a 1B69     		ldr	r3, [r3, #16]
 936              		.loc 1 1188 56 discriminator 1
 937 003c 002B     		cmp	r3, #0
 938 003e 05D1     		bne	.L51
1189:Drivers/STM32F0xx_HAL_Driver/Src/stm32f0xx_hal_uart.c ****     {
1190:Drivers/STM32F0xx_HAL_Driver/Src/stm32f0xx_hal_uart.c ****       if ((((uint32_t)pData) & 1U) != 0U)
 939              		.loc 1 1190 13
 940 0040 BB68     		ldr	r3, [r7, #8]
 941              		.loc 1 1190 30
 942 0042 0122     		movs	r2, #1
 943 0044 1340     		ands	r3, r2
 944              		.loc 1 1190 10
 945 0046 01D0     		beq	.L51
1191:Drivers/STM32F0xx_HAL_Driver/Src/stm32f0xx_hal_uart.c ****       {
1192:Drivers/STM32F0xx_HAL_Driver/Src/stm32f0xx_hal_uart.c ****         return  HAL_ERROR;
 946              		.loc 1 1192 17
 947 0048 0123     		movs	r3, #1
 948 004a AAE0     		b	.L50
 949              	.L51:
1193:Drivers/STM32F0xx_HAL_Driver/Src/stm32f0xx_hal_uart.c ****       }
1194:Drivers/STM32F0xx_HAL_Driver/Src/stm32f0xx_hal_uart.c ****     }
1195:Drivers/STM32F0xx_HAL_Driver/Src/stm32f0xx_hal_uart.c **** 
1196:Drivers/STM32F0xx_HAL_Driver/Src/stm32f0xx_hal_uart.c ****     __HAL_LOCK(huart);
 950              		.loc 1 1196 5
 951 004c FB68     		ldr	r3, [r7, #12]
 952 004e 7022     		movs	r2, #112
 953 0050 9B5C     		ldrb	r3, [r3, r2]
 954 0052 012B     		cmp	r3, #1
 955 0054 01D1     		bne	.L52
 956              		.loc 1 1196 5 is_stmt 0 discriminator 1
 957 0056 0223     		movs	r3, #2
 958              		.loc 1 1196 5
 959 0058 A3E0     		b	.L50
 960              	.L52:
 961              		.loc 1 1196 5 discriminator 2
 962 005a FB68     		ldr	r3, [r7, #12]
 963 005c 7022     		movs	r2, #112
 964 005e 0121     		movs	r1, #1
 965 0060 9954     		strb	r1, [r3, r2]
1197:Drivers/STM32F0xx_HAL_Driver/Src/stm32f0xx_hal_uart.c **** 
1198:Drivers/STM32F0xx_HAL_Driver/Src/stm32f0xx_hal_uart.c ****     huart->ErrorCode = HAL_UART_ERROR_NONE;
 966              		.loc 1 1198 22 is_stmt 1
 967 0062 FB68     		ldr	r3, [r7, #12]
 968 0064 0022     		movs	r2, #0
 969 0066 DA67     		str	r2, [r3, #124]
1199:Drivers/STM32F0xx_HAL_Driver/Src/stm32f0xx_hal_uart.c ****     huart->RxState = HAL_UART_STATE_BUSY_RX;
 970              		.loc 1 1199 20
 971 0068 FB68     		ldr	r3, [r7, #12]
 972 006a 2222     		movs	r2, #34
 973 006c 9A67     		str	r2, [r3, #120]
1200:Drivers/STM32F0xx_HAL_Driver/Src/stm32f0xx_hal_uart.c **** 
1201:Drivers/STM32F0xx_HAL_Driver/Src/stm32f0xx_hal_uart.c ****     /* Init tickstart for timeout managment*/
1202:Drivers/STM32F0xx_HAL_Driver/Src/stm32f0xx_hal_uart.c ****     tickstart = HAL_GetTick();
 974              		.loc 1 1202 17
 975 006e FFF7FEFF 		bl	HAL_GetTick
 976 0072 0300     		movs	r3, r0
 977 0074 7B61     		str	r3, [r7, #20]
ARM GAS  /tmp/ccTcPcT8.s 			page 39


1203:Drivers/STM32F0xx_HAL_Driver/Src/stm32f0xx_hal_uart.c **** 
1204:Drivers/STM32F0xx_HAL_Driver/Src/stm32f0xx_hal_uart.c ****     huart->RxXferSize  = Size;
 978              		.loc 1 1204 24
 979 0076 FB68     		ldr	r3, [r7, #12]
 980 0078 BA1D     		adds	r2, r7, #6
 981 007a 5821     		movs	r1, #88
 982 007c 1288     		ldrh	r2, [r2]
 983 007e 5A52     		strh	r2, [r3, r1]
1205:Drivers/STM32F0xx_HAL_Driver/Src/stm32f0xx_hal_uart.c ****     huart->RxXferCount = Size;
 984              		.loc 1 1205 24
 985 0080 FB68     		ldr	r3, [r7, #12]
 986 0082 BA1D     		adds	r2, r7, #6
 987 0084 5A21     		movs	r1, #90
 988 0086 1288     		ldrh	r2, [r2]
 989 0088 5A52     		strh	r2, [r3, r1]
1206:Drivers/STM32F0xx_HAL_Driver/Src/stm32f0xx_hal_uart.c **** 
1207:Drivers/STM32F0xx_HAL_Driver/Src/stm32f0xx_hal_uart.c ****     /* Computation of UART mask to apply to RDR register */
1208:Drivers/STM32F0xx_HAL_Driver/Src/stm32f0xx_hal_uart.c ****     UART_MASK_COMPUTATION(huart);
 990              		.loc 1 1208 5
 991 008a FB68     		ldr	r3, [r7, #12]
 992 008c 9A68     		ldr	r2, [r3, #8]
 993 008e 8023     		movs	r3, #128
 994 0090 5B01     		lsls	r3, r3, #5
 995 0092 9A42     		cmp	r2, r3
 996 0094 0DD1     		bne	.L53
 997              		.loc 1 1208 5 is_stmt 0 discriminator 1
 998 0096 FB68     		ldr	r3, [r7, #12]
 999 0098 1B69     		ldr	r3, [r3, #16]
 1000 009a 002B     		cmp	r3, #0
 1001 009c 04D1     		bne	.L54
 1002              		.loc 1 1208 5 discriminator 3
 1003 009e FB68     		ldr	r3, [r7, #12]
 1004 00a0 5C22     		movs	r2, #92
 1005 00a2 4249     		ldr	r1, .L65
 1006 00a4 9952     		strh	r1, [r3, r2]
 1007 00a6 1AE0     		b	.L55
 1008              	.L54:
 1009              		.loc 1 1208 5 discriminator 4
 1010 00a8 FB68     		ldr	r3, [r7, #12]
 1011 00aa 5C22     		movs	r2, #92
 1012 00ac FF21     		movs	r1, #255
 1013 00ae 9952     		strh	r1, [r3, r2]
 1014 00b0 15E0     		b	.L55
 1015              	.L53:
 1016              		.loc 1 1208 5 discriminator 2
 1017 00b2 FB68     		ldr	r3, [r7, #12]
 1018 00b4 9B68     		ldr	r3, [r3, #8]
 1019 00b6 002B     		cmp	r3, #0
 1020 00b8 0DD1     		bne	.L56
 1021              		.loc 1 1208 5 discriminator 5
 1022 00ba FB68     		ldr	r3, [r7, #12]
 1023 00bc 1B69     		ldr	r3, [r3, #16]
 1024 00be 002B     		cmp	r3, #0
 1025 00c0 04D1     		bne	.L57
 1026              		.loc 1 1208 5 discriminator 7
 1027 00c2 FB68     		ldr	r3, [r7, #12]
 1028 00c4 5C22     		movs	r2, #92
ARM GAS  /tmp/ccTcPcT8.s 			page 40


 1029 00c6 FF21     		movs	r1, #255
 1030 00c8 9952     		strh	r1, [r3, r2]
 1031 00ca 08E0     		b	.L55
 1032              	.L57:
 1033              		.loc 1 1208 5 discriminator 8
 1034 00cc FB68     		ldr	r3, [r7, #12]
 1035 00ce 5C22     		movs	r2, #92
 1036 00d0 7F21     		movs	r1, #127
 1037 00d2 9952     		strh	r1, [r3, r2]
 1038 00d4 03E0     		b	.L55
 1039              	.L56:
 1040              		.loc 1 1208 5 discriminator 6
 1041 00d6 FB68     		ldr	r3, [r7, #12]
 1042 00d8 5C22     		movs	r2, #92
 1043 00da 0021     		movs	r1, #0
 1044 00dc 9952     		strh	r1, [r3, r2]
 1045              	.L55:
1209:Drivers/STM32F0xx_HAL_Driver/Src/stm32f0xx_hal_uart.c ****     uhMask = huart->Mask;
 1046              		.loc 1 1209 12 is_stmt 1
 1047 00de 1223     		movs	r3, #18
 1048 00e0 FB18     		adds	r3, r7, r3
 1049 00e2 FA68     		ldr	r2, [r7, #12]
 1050 00e4 5C21     		movs	r1, #92
 1051 00e6 525A     		ldrh	r2, [r2, r1]
 1052 00e8 1A80     		strh	r2, [r3]
1210:Drivers/STM32F0xx_HAL_Driver/Src/stm32f0xx_hal_uart.c **** 
1211:Drivers/STM32F0xx_HAL_Driver/Src/stm32f0xx_hal_uart.c ****     /* In case of 9bits/No Parity transfer, pRxData needs to be handled as a uint16_t pointer */
1212:Drivers/STM32F0xx_HAL_Driver/Src/stm32f0xx_hal_uart.c ****     if ((huart->Init.WordLength == UART_WORDLENGTH_9B) && (huart->Init.Parity == UART_PARITY_NONE))
 1053              		.loc 1 1212 21
 1054 00ea FB68     		ldr	r3, [r7, #12]
 1055 00ec 9A68     		ldr	r2, [r3, #8]
 1056              		.loc 1 1212 8
 1057 00ee 8023     		movs	r3, #128
 1058 00f0 5B01     		lsls	r3, r3, #5
 1059 00f2 9A42     		cmp	r2, r3
 1060 00f4 08D1     		bne	.L58
 1061              		.loc 1 1212 71 discriminator 1
 1062 00f6 FB68     		ldr	r3, [r7, #12]
 1063 00f8 1B69     		ldr	r3, [r3, #16]
 1064              		.loc 1 1212 56 discriminator 1
 1065 00fa 002B     		cmp	r3, #0
 1066 00fc 04D1     		bne	.L58
1213:Drivers/STM32F0xx_HAL_Driver/Src/stm32f0xx_hal_uart.c ****     {
1214:Drivers/STM32F0xx_HAL_Driver/Src/stm32f0xx_hal_uart.c ****       pdata8bits  = NULL;
 1067              		.loc 1 1214 19
 1068 00fe 0023     		movs	r3, #0
 1069 0100 FB61     		str	r3, [r7, #28]
1215:Drivers/STM32F0xx_HAL_Driver/Src/stm32f0xx_hal_uart.c ****       pdata16bits = (uint16_t *) pData;
 1070              		.loc 1 1215 19
 1071 0102 BB68     		ldr	r3, [r7, #8]
 1072 0104 BB61     		str	r3, [r7, #24]
 1073 0106 03E0     		b	.L59
 1074              	.L58:
1216:Drivers/STM32F0xx_HAL_Driver/Src/stm32f0xx_hal_uart.c ****     }
1217:Drivers/STM32F0xx_HAL_Driver/Src/stm32f0xx_hal_uart.c ****     else
1218:Drivers/STM32F0xx_HAL_Driver/Src/stm32f0xx_hal_uart.c ****     {
1219:Drivers/STM32F0xx_HAL_Driver/Src/stm32f0xx_hal_uart.c ****       pdata8bits  = pData;
ARM GAS  /tmp/ccTcPcT8.s 			page 41


 1075              		.loc 1 1219 19
 1076 0108 BB68     		ldr	r3, [r7, #8]
 1077 010a FB61     		str	r3, [r7, #28]
1220:Drivers/STM32F0xx_HAL_Driver/Src/stm32f0xx_hal_uart.c ****       pdata16bits = NULL;
 1078              		.loc 1 1220 19
 1079 010c 0023     		movs	r3, #0
 1080 010e BB61     		str	r3, [r7, #24]
 1081              	.L59:
1221:Drivers/STM32F0xx_HAL_Driver/Src/stm32f0xx_hal_uart.c ****     }
1222:Drivers/STM32F0xx_HAL_Driver/Src/stm32f0xx_hal_uart.c **** 
1223:Drivers/STM32F0xx_HAL_Driver/Src/stm32f0xx_hal_uart.c ****     /* as long as data have to be received */
1224:Drivers/STM32F0xx_HAL_Driver/Src/stm32f0xx_hal_uart.c ****     while (huart->RxXferCount > 0U)
 1082              		.loc 1 1224 11
 1083 0110 37E0     		b	.L60
 1084              	.L64:
1225:Drivers/STM32F0xx_HAL_Driver/Src/stm32f0xx_hal_uart.c ****     {
1226:Drivers/STM32F0xx_HAL_Driver/Src/stm32f0xx_hal_uart.c ****       if (UART_WaitOnFlagUntilTimeout(huart, UART_FLAG_RXNE, RESET, tickstart, Timeout) != HAL_OK)
 1085              		.loc 1 1226 11
 1086 0112 7A69     		ldr	r2, [r7, #20]
 1087 0114 F868     		ldr	r0, [r7, #12]
 1088 0116 3B68     		ldr	r3, [r7]
 1089 0118 0093     		str	r3, [sp]
 1090 011a 1300     		movs	r3, r2
 1091 011c 0022     		movs	r2, #0
 1092 011e 2021     		movs	r1, #32
 1093 0120 FFF7FEFF 		bl	UART_WaitOnFlagUntilTimeout
 1094 0124 031E     		subs	r3, r0, #0
 1095              		.loc 1 1226 10 discriminator 1
 1096 0126 01D0     		beq	.L61
1227:Drivers/STM32F0xx_HAL_Driver/Src/stm32f0xx_hal_uart.c ****       {
1228:Drivers/STM32F0xx_HAL_Driver/Src/stm32f0xx_hal_uart.c ****         return HAL_TIMEOUT;
 1097              		.loc 1 1228 16
 1098 0128 0323     		movs	r3, #3
 1099 012a 3AE0     		b	.L50
 1100              	.L61:
1229:Drivers/STM32F0xx_HAL_Driver/Src/stm32f0xx_hal_uart.c ****       }
1230:Drivers/STM32F0xx_HAL_Driver/Src/stm32f0xx_hal_uart.c ****       if (pdata8bits == NULL)
 1101              		.loc 1 1230 10
 1102 012c FB69     		ldr	r3, [r7, #28]
 1103 012e 002B     		cmp	r3, #0
 1104 0130 0ED1     		bne	.L62
1231:Drivers/STM32F0xx_HAL_Driver/Src/stm32f0xx_hal_uart.c ****       {
1232:Drivers/STM32F0xx_HAL_Driver/Src/stm32f0xx_hal_uart.c ****         *pdata16bits = (uint16_t)(huart->Instance->RDR & uhMask);
 1105              		.loc 1 1232 40
 1106 0132 FB68     		ldr	r3, [r7, #12]
 1107 0134 1B68     		ldr	r3, [r3]
 1108              		.loc 1 1232 50
 1109 0136 9B8C     		ldrh	r3, [r3, #36]
 1110 0138 9BB2     		uxth	r3, r3
 1111              		.loc 1 1232 24
 1112 013a 1222     		movs	r2, #18
 1113 013c BA18     		adds	r2, r7, r2
 1114 013e 1288     		ldrh	r2, [r2]
 1115 0140 1340     		ands	r3, r2
 1116 0142 9AB2     		uxth	r2, r3
 1117              		.loc 1 1232 22
 1118 0144 BB69     		ldr	r3, [r7, #24]
ARM GAS  /tmp/ccTcPcT8.s 			page 42


 1119 0146 1A80     		strh	r2, [r3]
1233:Drivers/STM32F0xx_HAL_Driver/Src/stm32f0xx_hal_uart.c ****         pdata16bits++;
 1120              		.loc 1 1233 20
 1121 0148 BB69     		ldr	r3, [r7, #24]
 1122 014a 0233     		adds	r3, r3, #2
 1123 014c BB61     		str	r3, [r7, #24]
 1124 014e 0FE0     		b	.L63
 1125              	.L62:
1234:Drivers/STM32F0xx_HAL_Driver/Src/stm32f0xx_hal_uart.c ****       }
1235:Drivers/STM32F0xx_HAL_Driver/Src/stm32f0xx_hal_uart.c ****       else
1236:Drivers/STM32F0xx_HAL_Driver/Src/stm32f0xx_hal_uart.c ****       {
1237:Drivers/STM32F0xx_HAL_Driver/Src/stm32f0xx_hal_uart.c ****         *pdata8bits = (uint8_t)(huart->Instance->RDR & (uint8_t)uhMask);
 1126              		.loc 1 1237 38
 1127 0150 FB68     		ldr	r3, [r7, #12]
 1128 0152 1B68     		ldr	r3, [r3]
 1129              		.loc 1 1237 48
 1130 0154 9B8C     		ldrh	r3, [r3, #36]
 1131 0156 9BB2     		uxth	r3, r3
 1132              		.loc 1 1237 23
 1133 0158 DBB2     		uxtb	r3, r3
 1134              		.loc 1 1237 56
 1135 015a 1222     		movs	r2, #18
 1136 015c BA18     		adds	r2, r7, r2
 1137 015e 1288     		ldrh	r2, [r2]
 1138 0160 D2B2     		uxtb	r2, r2
 1139              		.loc 1 1237 23
 1140 0162 1340     		ands	r3, r2
 1141 0164 DAB2     		uxtb	r2, r3
 1142              		.loc 1 1237 21
 1143 0166 FB69     		ldr	r3, [r7, #28]
 1144 0168 1A70     		strb	r2, [r3]
1238:Drivers/STM32F0xx_HAL_Driver/Src/stm32f0xx_hal_uart.c ****         pdata8bits++;
 1145              		.loc 1 1238 19
 1146 016a FB69     		ldr	r3, [r7, #28]
 1147 016c 0133     		adds	r3, r3, #1
 1148 016e FB61     		str	r3, [r7, #28]
 1149              	.L63:
1239:Drivers/STM32F0xx_HAL_Driver/Src/stm32f0xx_hal_uart.c ****       }
1240:Drivers/STM32F0xx_HAL_Driver/Src/stm32f0xx_hal_uart.c ****       huart->RxXferCount--;
 1150              		.loc 1 1240 12
 1151 0170 FB68     		ldr	r3, [r7, #12]
 1152 0172 5A22     		movs	r2, #90
 1153 0174 9B5A     		ldrh	r3, [r3, r2]
 1154 0176 9BB2     		uxth	r3, r3
 1155              		.loc 1 1240 25
 1156 0178 013B     		subs	r3, r3, #1
 1157 017a 99B2     		uxth	r1, r3
 1158 017c FB68     		ldr	r3, [r7, #12]
 1159 017e 5A22     		movs	r2, #90
 1160 0180 9952     		strh	r1, [r3, r2]
 1161              	.L60:
1224:Drivers/STM32F0xx_HAL_Driver/Src/stm32f0xx_hal_uart.c ****     {
 1162              		.loc 1 1224 17
 1163 0182 FB68     		ldr	r3, [r7, #12]
 1164 0184 5A22     		movs	r2, #90
 1165 0186 9B5A     		ldrh	r3, [r3, r2]
 1166 0188 9BB2     		uxth	r3, r3
ARM GAS  /tmp/ccTcPcT8.s 			page 43


1224:Drivers/STM32F0xx_HAL_Driver/Src/stm32f0xx_hal_uart.c ****     {
 1167              		.loc 1 1224 31
 1168 018a 002B     		cmp	r3, #0
 1169 018c C1D1     		bne	.L64
1241:Drivers/STM32F0xx_HAL_Driver/Src/stm32f0xx_hal_uart.c ****     }
1242:Drivers/STM32F0xx_HAL_Driver/Src/stm32f0xx_hal_uart.c **** 
1243:Drivers/STM32F0xx_HAL_Driver/Src/stm32f0xx_hal_uart.c ****     /* At end of Rx process, restore huart->RxState to Ready */
1244:Drivers/STM32F0xx_HAL_Driver/Src/stm32f0xx_hal_uart.c ****     huart->RxState = HAL_UART_STATE_READY;
 1170              		.loc 1 1244 20
 1171 018e FB68     		ldr	r3, [r7, #12]
 1172 0190 2022     		movs	r2, #32
 1173 0192 9A67     		str	r2, [r3, #120]
1245:Drivers/STM32F0xx_HAL_Driver/Src/stm32f0xx_hal_uart.c **** 
1246:Drivers/STM32F0xx_HAL_Driver/Src/stm32f0xx_hal_uart.c ****     __HAL_UNLOCK(huart);
 1174              		.loc 1 1246 5
 1175 0194 FB68     		ldr	r3, [r7, #12]
 1176 0196 7022     		movs	r2, #112
 1177 0198 0021     		movs	r1, #0
 1178 019a 9954     		strb	r1, [r3, r2]
1247:Drivers/STM32F0xx_HAL_Driver/Src/stm32f0xx_hal_uart.c **** 
1248:Drivers/STM32F0xx_HAL_Driver/Src/stm32f0xx_hal_uart.c ****     return HAL_OK;
 1179              		.loc 1 1248 12
 1180 019c 0023     		movs	r3, #0
 1181 019e 00E0     		b	.L50
 1182              	.L47:
1249:Drivers/STM32F0xx_HAL_Driver/Src/stm32f0xx_hal_uart.c ****   }
1250:Drivers/STM32F0xx_HAL_Driver/Src/stm32f0xx_hal_uart.c ****   else
1251:Drivers/STM32F0xx_HAL_Driver/Src/stm32f0xx_hal_uart.c ****   {
1252:Drivers/STM32F0xx_HAL_Driver/Src/stm32f0xx_hal_uart.c ****     return HAL_BUSY;
 1183              		.loc 1 1252 12
 1184 01a0 0223     		movs	r3, #2
 1185              	.L50:
1253:Drivers/STM32F0xx_HAL_Driver/Src/stm32f0xx_hal_uart.c ****   }
1254:Drivers/STM32F0xx_HAL_Driver/Src/stm32f0xx_hal_uart.c **** }
 1186              		.loc 1 1254 1
 1187 01a2 1800     		movs	r0, r3
 1188 01a4 BD46     		mov	sp, r7
 1189 01a6 08B0     		add	sp, sp, #32
 1190              		@ sp needed
 1191 01a8 80BD     		pop	{r7, pc}
 1192              	.L66:
 1193 01aa C046     		.align	2
 1194              	.L65:
 1195 01ac FF010000 		.word	511
 1196              		.cfi_endproc
 1197              	.LFE47:
 1199              		.section	.text.HAL_UART_Transmit_IT,"ax",%progbits
 1200              		.align	1
 1201              		.global	HAL_UART_Transmit_IT
 1202              		.syntax unified
 1203              		.code	16
 1204              		.thumb_func
 1206              	HAL_UART_Transmit_IT:
 1207              	.LFB48:
1255:Drivers/STM32F0xx_HAL_Driver/Src/stm32f0xx_hal_uart.c **** 
1256:Drivers/STM32F0xx_HAL_Driver/Src/stm32f0xx_hal_uart.c **** /**
1257:Drivers/STM32F0xx_HAL_Driver/Src/stm32f0xx_hal_uart.c ****   * @brief Send an amount of data in interrupt mode.
ARM GAS  /tmp/ccTcPcT8.s 			page 44


1258:Drivers/STM32F0xx_HAL_Driver/Src/stm32f0xx_hal_uart.c ****   * @note   When UART parity is not enabled (PCE = 0), and Word Length is configured to 9 bits (M1-
1259:Drivers/STM32F0xx_HAL_Driver/Src/stm32f0xx_hal_uart.c ****   *         the sent data is handled as a set of u16. In this case, Size must indicate the number
1260:Drivers/STM32F0xx_HAL_Driver/Src/stm32f0xx_hal_uart.c ****   *         of u16 provided through pData.
1261:Drivers/STM32F0xx_HAL_Driver/Src/stm32f0xx_hal_uart.c ****   * @note   When UART parity is not enabled (PCE = 0), and Word Length is configured to 9 bits (M1-
1262:Drivers/STM32F0xx_HAL_Driver/Src/stm32f0xx_hal_uart.c ****   *         address of user data buffer containing data to be sent, should be aligned on a half wor
1263:Drivers/STM32F0xx_HAL_Driver/Src/stm32f0xx_hal_uart.c ****   *         (as sent data will be handled using u16 pointer cast). Depending on compilation chain,
1264:Drivers/STM32F0xx_HAL_Driver/Src/stm32f0xx_hal_uart.c ****   *         use of specific alignment compilation directives or pragmas might be required to ensure
1265:Drivers/STM32F0xx_HAL_Driver/Src/stm32f0xx_hal_uart.c ****   * @param huart UART handle.
1266:Drivers/STM32F0xx_HAL_Driver/Src/stm32f0xx_hal_uart.c ****   * @param pData Pointer to data buffer (u8 or u16 data elements).
1267:Drivers/STM32F0xx_HAL_Driver/Src/stm32f0xx_hal_uart.c ****   * @param Size  Amount of data elements (u8 or u16) to be sent.
1268:Drivers/STM32F0xx_HAL_Driver/Src/stm32f0xx_hal_uart.c ****   * @retval HAL status
1269:Drivers/STM32F0xx_HAL_Driver/Src/stm32f0xx_hal_uart.c ****   */
1270:Drivers/STM32F0xx_HAL_Driver/Src/stm32f0xx_hal_uart.c **** HAL_StatusTypeDef HAL_UART_Transmit_IT(UART_HandleTypeDef *huart, uint8_t *pData, uint16_t Size)
1271:Drivers/STM32F0xx_HAL_Driver/Src/stm32f0xx_hal_uart.c **** {
 1208              		.loc 1 1271 1
 1209              		.cfi_startproc
 1210              		@ args = 0, pretend = 0, frame = 16
 1211              		@ frame_needed = 1, uses_anonymous_args = 0
 1212 0000 80B5     		push	{r7, lr}
 1213              	.LCFI24:
 1214              		.cfi_def_cfa_offset 8
 1215              		.cfi_offset 7, -8
 1216              		.cfi_offset 14, -4
 1217 0002 84B0     		sub	sp, sp, #16
 1218              	.LCFI25:
 1219              		.cfi_def_cfa_offset 24
 1220 0004 00AF     		add	r7, sp, #0
 1221              	.LCFI26:
 1222              		.cfi_def_cfa_register 7
 1223 0006 F860     		str	r0, [r7, #12]
 1224 0008 B960     		str	r1, [r7, #8]
 1225 000a BB1D     		adds	r3, r7, #6
 1226 000c 1A80     		strh	r2, [r3]
1272:Drivers/STM32F0xx_HAL_Driver/Src/stm32f0xx_hal_uart.c ****   /* Check that a Tx process is not already ongoing */
1273:Drivers/STM32F0xx_HAL_Driver/Src/stm32f0xx_hal_uart.c ****   if (huart->gState == HAL_UART_STATE_READY)
 1227              		.loc 1 1273 12
 1228 000e FB68     		ldr	r3, [r7, #12]
 1229 0010 5B6F     		ldr	r3, [r3, #116]
 1230              		.loc 1 1273 6
 1231 0012 202B     		cmp	r3, #32
 1232 0014 58D1     		bne	.L68
1274:Drivers/STM32F0xx_HAL_Driver/Src/stm32f0xx_hal_uart.c ****   {
1275:Drivers/STM32F0xx_HAL_Driver/Src/stm32f0xx_hal_uart.c ****     if ((pData == NULL) || (Size == 0U))
 1233              		.loc 1 1275 8
 1234 0016 BB68     		ldr	r3, [r7, #8]
 1235 0018 002B     		cmp	r3, #0
 1236 001a 03D0     		beq	.L69
 1237              		.loc 1 1275 25 discriminator 1
 1238 001c BB1D     		adds	r3, r7, #6
 1239 001e 1B88     		ldrh	r3, [r3]
 1240 0020 002B     		cmp	r3, #0
 1241 0022 01D1     		bne	.L70
 1242              	.L69:
1276:Drivers/STM32F0xx_HAL_Driver/Src/stm32f0xx_hal_uart.c ****     {
1277:Drivers/STM32F0xx_HAL_Driver/Src/stm32f0xx_hal_uart.c ****       return HAL_ERROR;
 1243              		.loc 1 1277 14
 1244 0024 0123     		movs	r3, #1
ARM GAS  /tmp/ccTcPcT8.s 			page 45


 1245 0026 50E0     		b	.L71
 1246              	.L70:
1278:Drivers/STM32F0xx_HAL_Driver/Src/stm32f0xx_hal_uart.c ****     }
1279:Drivers/STM32F0xx_HAL_Driver/Src/stm32f0xx_hal_uart.c **** 
1280:Drivers/STM32F0xx_HAL_Driver/Src/stm32f0xx_hal_uart.c ****     /* In case of 9bits/No Parity transfer, pData buffer provided as input parameter
1281:Drivers/STM32F0xx_HAL_Driver/Src/stm32f0xx_hal_uart.c ****        should be aligned on a u16 frontier, as data to be filled into TDR will be
1282:Drivers/STM32F0xx_HAL_Driver/Src/stm32f0xx_hal_uart.c ****        handled through a u16 cast. */
1283:Drivers/STM32F0xx_HAL_Driver/Src/stm32f0xx_hal_uart.c ****     if ((huart->Init.WordLength == UART_WORDLENGTH_9B) && (huart->Init.Parity == UART_PARITY_NONE))
 1247              		.loc 1 1283 21
 1248 0028 FB68     		ldr	r3, [r7, #12]
 1249 002a 9A68     		ldr	r2, [r3, #8]
 1250              		.loc 1 1283 8
 1251 002c 8023     		movs	r3, #128
 1252 002e 5B01     		lsls	r3, r3, #5
 1253 0030 9A42     		cmp	r2, r3
 1254 0032 09D1     		bne	.L72
 1255              		.loc 1 1283 71 discriminator 1
 1256 0034 FB68     		ldr	r3, [r7, #12]
 1257 0036 1B69     		ldr	r3, [r3, #16]
 1258              		.loc 1 1283 56 discriminator 1
 1259 0038 002B     		cmp	r3, #0
 1260 003a 05D1     		bne	.L72
1284:Drivers/STM32F0xx_HAL_Driver/Src/stm32f0xx_hal_uart.c ****     {
1285:Drivers/STM32F0xx_HAL_Driver/Src/stm32f0xx_hal_uart.c ****       if ((((uint32_t)pData) & 1U) != 0U)
 1261              		.loc 1 1285 13
 1262 003c BB68     		ldr	r3, [r7, #8]
 1263              		.loc 1 1285 30
 1264 003e 0122     		movs	r2, #1
 1265 0040 1340     		ands	r3, r2
 1266              		.loc 1 1285 10
 1267 0042 01D0     		beq	.L72
1286:Drivers/STM32F0xx_HAL_Driver/Src/stm32f0xx_hal_uart.c ****       {
1287:Drivers/STM32F0xx_HAL_Driver/Src/stm32f0xx_hal_uart.c ****         return  HAL_ERROR;
 1268              		.loc 1 1287 17
 1269 0044 0123     		movs	r3, #1
 1270 0046 40E0     		b	.L71
 1271              	.L72:
1288:Drivers/STM32F0xx_HAL_Driver/Src/stm32f0xx_hal_uart.c ****       }
1289:Drivers/STM32F0xx_HAL_Driver/Src/stm32f0xx_hal_uart.c ****     }
1290:Drivers/STM32F0xx_HAL_Driver/Src/stm32f0xx_hal_uart.c **** 
1291:Drivers/STM32F0xx_HAL_Driver/Src/stm32f0xx_hal_uart.c ****     __HAL_LOCK(huart);
 1272              		.loc 1 1291 5
 1273 0048 FB68     		ldr	r3, [r7, #12]
 1274 004a 7022     		movs	r2, #112
 1275 004c 9B5C     		ldrb	r3, [r3, r2]
 1276 004e 012B     		cmp	r3, #1
 1277 0050 01D1     		bne	.L73
 1278              		.loc 1 1291 5 is_stmt 0 discriminator 1
 1279 0052 0223     		movs	r3, #2
 1280              		.loc 1 1291 5
 1281 0054 39E0     		b	.L71
 1282              	.L73:
 1283              		.loc 1 1291 5 discriminator 2
 1284 0056 FB68     		ldr	r3, [r7, #12]
 1285 0058 7022     		movs	r2, #112
 1286 005a 0121     		movs	r1, #1
 1287 005c 9954     		strb	r1, [r3, r2]
ARM GAS  /tmp/ccTcPcT8.s 			page 46


1292:Drivers/STM32F0xx_HAL_Driver/Src/stm32f0xx_hal_uart.c **** 
1293:Drivers/STM32F0xx_HAL_Driver/Src/stm32f0xx_hal_uart.c ****     huart->pTxBuffPtr  = pData;
 1288              		.loc 1 1293 24 is_stmt 1
 1289 005e FB68     		ldr	r3, [r7, #12]
 1290 0060 BA68     		ldr	r2, [r7, #8]
 1291 0062 DA64     		str	r2, [r3, #76]
1294:Drivers/STM32F0xx_HAL_Driver/Src/stm32f0xx_hal_uart.c ****     huart->TxXferSize  = Size;
 1292              		.loc 1 1294 24
 1293 0064 FB68     		ldr	r3, [r7, #12]
 1294 0066 BA1D     		adds	r2, r7, #6
 1295 0068 5021     		movs	r1, #80
 1296 006a 1288     		ldrh	r2, [r2]
 1297 006c 5A52     		strh	r2, [r3, r1]
1295:Drivers/STM32F0xx_HAL_Driver/Src/stm32f0xx_hal_uart.c ****     huart->TxXferCount = Size;
 1298              		.loc 1 1295 24
 1299 006e FB68     		ldr	r3, [r7, #12]
 1300 0070 BA1D     		adds	r2, r7, #6
 1301 0072 5221     		movs	r1, #82
 1302 0074 1288     		ldrh	r2, [r2]
 1303 0076 5A52     		strh	r2, [r3, r1]
1296:Drivers/STM32F0xx_HAL_Driver/Src/stm32f0xx_hal_uart.c ****     huart->TxISR       = NULL;
 1304              		.loc 1 1296 24
 1305 0078 FB68     		ldr	r3, [r7, #12]
 1306 007a 0022     		movs	r2, #0
 1307 007c 5A66     		str	r2, [r3, #100]
1297:Drivers/STM32F0xx_HAL_Driver/Src/stm32f0xx_hal_uart.c **** 
1298:Drivers/STM32F0xx_HAL_Driver/Src/stm32f0xx_hal_uart.c ****     huart->ErrorCode = HAL_UART_ERROR_NONE;
 1308              		.loc 1 1298 22
 1309 007e FB68     		ldr	r3, [r7, #12]
 1310 0080 0022     		movs	r2, #0
 1311 0082 DA67     		str	r2, [r3, #124]
1299:Drivers/STM32F0xx_HAL_Driver/Src/stm32f0xx_hal_uart.c ****     huart->gState = HAL_UART_STATE_BUSY_TX;
 1312              		.loc 1 1299 19
 1313 0084 FB68     		ldr	r3, [r7, #12]
 1314 0086 2122     		movs	r2, #33
 1315 0088 5A67     		str	r2, [r3, #116]
1300:Drivers/STM32F0xx_HAL_Driver/Src/stm32f0xx_hal_uart.c **** 
1301:Drivers/STM32F0xx_HAL_Driver/Src/stm32f0xx_hal_uart.c ****     /* Set the Tx ISR function pointer according to the data word length */
1302:Drivers/STM32F0xx_HAL_Driver/Src/stm32f0xx_hal_uart.c ****     if ((huart->Init.WordLength == UART_WORDLENGTH_9B) && (huart->Init.Parity == UART_PARITY_NONE))
 1316              		.loc 1 1302 21
 1317 008a FB68     		ldr	r3, [r7, #12]
 1318 008c 9A68     		ldr	r2, [r3, #8]
 1319              		.loc 1 1302 8
 1320 008e 8023     		movs	r3, #128
 1321 0090 5B01     		lsls	r3, r3, #5
 1322 0092 9A42     		cmp	r2, r3
 1323 0094 07D1     		bne	.L74
 1324              		.loc 1 1302 71 discriminator 1
 1325 0096 FB68     		ldr	r3, [r7, #12]
 1326 0098 1B69     		ldr	r3, [r3, #16]
 1327              		.loc 1 1302 56 discriminator 1
 1328 009a 002B     		cmp	r3, #0
 1329 009c 03D1     		bne	.L74
1303:Drivers/STM32F0xx_HAL_Driver/Src/stm32f0xx_hal_uart.c ****     {
1304:Drivers/STM32F0xx_HAL_Driver/Src/stm32f0xx_hal_uart.c ****       huart->TxISR = UART_TxISR_16BIT;
 1330              		.loc 1 1304 20
 1331 009e FB68     		ldr	r3, [r7, #12]
ARM GAS  /tmp/ccTcPcT8.s 			page 47


 1332 00a0 0C4A     		ldr	r2, .L76
 1333 00a2 5A66     		str	r2, [r3, #100]
 1334 00a4 02E0     		b	.L75
 1335              	.L74:
1305:Drivers/STM32F0xx_HAL_Driver/Src/stm32f0xx_hal_uart.c ****     }
1306:Drivers/STM32F0xx_HAL_Driver/Src/stm32f0xx_hal_uart.c ****     else
1307:Drivers/STM32F0xx_HAL_Driver/Src/stm32f0xx_hal_uart.c ****     {
1308:Drivers/STM32F0xx_HAL_Driver/Src/stm32f0xx_hal_uart.c ****       huart->TxISR = UART_TxISR_8BIT;
 1336              		.loc 1 1308 20
 1337 00a6 FB68     		ldr	r3, [r7, #12]
 1338 00a8 0B4A     		ldr	r2, .L76+4
 1339 00aa 5A66     		str	r2, [r3, #100]
 1340              	.L75:
1309:Drivers/STM32F0xx_HAL_Driver/Src/stm32f0xx_hal_uart.c ****     }
1310:Drivers/STM32F0xx_HAL_Driver/Src/stm32f0xx_hal_uart.c **** 
1311:Drivers/STM32F0xx_HAL_Driver/Src/stm32f0xx_hal_uart.c ****     __HAL_UNLOCK(huart);
 1341              		.loc 1 1311 5
 1342 00ac FB68     		ldr	r3, [r7, #12]
 1343 00ae 7022     		movs	r2, #112
 1344 00b0 0021     		movs	r1, #0
 1345 00b2 9954     		strb	r1, [r3, r2]
1312:Drivers/STM32F0xx_HAL_Driver/Src/stm32f0xx_hal_uart.c **** 
1313:Drivers/STM32F0xx_HAL_Driver/Src/stm32f0xx_hal_uart.c ****     /* Enable the Transmit Data Register Empty interrupt */
1314:Drivers/STM32F0xx_HAL_Driver/Src/stm32f0xx_hal_uart.c ****     SET_BIT(huart->Instance->CR1, USART_CR1_TXEIE);
 1346              		.loc 1 1314 5
 1347 00b4 FB68     		ldr	r3, [r7, #12]
 1348 00b6 1B68     		ldr	r3, [r3]
 1349 00b8 1A68     		ldr	r2, [r3]
 1350 00ba FB68     		ldr	r3, [r7, #12]
 1351 00bc 1B68     		ldr	r3, [r3]
 1352 00be 8021     		movs	r1, #128
 1353 00c0 0A43     		orrs	r2, r1
 1354 00c2 1A60     		str	r2, [r3]
1315:Drivers/STM32F0xx_HAL_Driver/Src/stm32f0xx_hal_uart.c **** 
1316:Drivers/STM32F0xx_HAL_Driver/Src/stm32f0xx_hal_uart.c ****     return HAL_OK;
 1355              		.loc 1 1316 12
 1356 00c4 0023     		movs	r3, #0
 1357 00c6 00E0     		b	.L71
 1358              	.L68:
1317:Drivers/STM32F0xx_HAL_Driver/Src/stm32f0xx_hal_uart.c ****   }
1318:Drivers/STM32F0xx_HAL_Driver/Src/stm32f0xx_hal_uart.c ****   else
1319:Drivers/STM32F0xx_HAL_Driver/Src/stm32f0xx_hal_uart.c ****   {
1320:Drivers/STM32F0xx_HAL_Driver/Src/stm32f0xx_hal_uart.c ****     return HAL_BUSY;
 1359              		.loc 1 1320 12
 1360 00c8 0223     		movs	r3, #2
 1361              	.L71:
1321:Drivers/STM32F0xx_HAL_Driver/Src/stm32f0xx_hal_uart.c ****   }
1322:Drivers/STM32F0xx_HAL_Driver/Src/stm32f0xx_hal_uart.c **** }
 1362              		.loc 1 1322 1
 1363 00ca 1800     		movs	r0, r3
 1364 00cc BD46     		mov	sp, r7
 1365 00ce 04B0     		add	sp, sp, #16
 1366              		@ sp needed
 1367 00d0 80BD     		pop	{r7, pc}
 1368              	.L77:
 1369 00d2 C046     		.align	2
 1370              	.L76:
ARM GAS  /tmp/ccTcPcT8.s 			page 48


 1371 00d4 00000000 		.word	UART_TxISR_16BIT
 1372 00d8 00000000 		.word	UART_TxISR_8BIT
 1373              		.cfi_endproc
 1374              	.LFE48:
 1376              		.section	.text.HAL_UART_Receive_IT,"ax",%progbits
 1377              		.align	1
 1378              		.global	HAL_UART_Receive_IT
 1379              		.syntax unified
 1380              		.code	16
 1381              		.thumb_func
 1383              	HAL_UART_Receive_IT:
 1384              	.LFB49:
1323:Drivers/STM32F0xx_HAL_Driver/Src/stm32f0xx_hal_uart.c **** 
1324:Drivers/STM32F0xx_HAL_Driver/Src/stm32f0xx_hal_uart.c **** /**
1325:Drivers/STM32F0xx_HAL_Driver/Src/stm32f0xx_hal_uart.c ****   * @brief Receive an amount of data in interrupt mode.
1326:Drivers/STM32F0xx_HAL_Driver/Src/stm32f0xx_hal_uart.c ****   * @note   When UART parity is not enabled (PCE = 0), and Word Length is configured to 9 bits (M1-
1327:Drivers/STM32F0xx_HAL_Driver/Src/stm32f0xx_hal_uart.c ****   *         the received data is handled as a set of u16. In this case, Size must indicate the numb
1328:Drivers/STM32F0xx_HAL_Driver/Src/stm32f0xx_hal_uart.c ****   *         of u16 available through pData.
1329:Drivers/STM32F0xx_HAL_Driver/Src/stm32f0xx_hal_uart.c ****   * @note   When UART parity is not enabled (PCE = 0), and Word Length is configured to 9 bits (M1-
1330:Drivers/STM32F0xx_HAL_Driver/Src/stm32f0xx_hal_uart.c ****   *         address of user data buffer for storing data to be received, should be aligned on a hal
1331:Drivers/STM32F0xx_HAL_Driver/Src/stm32f0xx_hal_uart.c ****   *         (as received data will be handled using u16 pointer cast). Depending on compilation cha
1332:Drivers/STM32F0xx_HAL_Driver/Src/stm32f0xx_hal_uart.c ****   *         use of specific alignment compilation directives or pragmas might be required to ensure
1333:Drivers/STM32F0xx_HAL_Driver/Src/stm32f0xx_hal_uart.c ****   * @param huart UART handle.
1334:Drivers/STM32F0xx_HAL_Driver/Src/stm32f0xx_hal_uart.c ****   * @param pData Pointer to data buffer (u8 or u16 data elements).
1335:Drivers/STM32F0xx_HAL_Driver/Src/stm32f0xx_hal_uart.c ****   * @param Size  Amount of data elements (u8 or u16) to be received.
1336:Drivers/STM32F0xx_HAL_Driver/Src/stm32f0xx_hal_uart.c ****   * @retval HAL status
1337:Drivers/STM32F0xx_HAL_Driver/Src/stm32f0xx_hal_uart.c ****   */
1338:Drivers/STM32F0xx_HAL_Driver/Src/stm32f0xx_hal_uart.c **** HAL_StatusTypeDef HAL_UART_Receive_IT(UART_HandleTypeDef *huart, uint8_t *pData, uint16_t Size)
1339:Drivers/STM32F0xx_HAL_Driver/Src/stm32f0xx_hal_uart.c **** {
 1385              		.loc 1 1339 1
 1386              		.cfi_startproc
 1387              		@ args = 0, pretend = 0, frame = 16
 1388              		@ frame_needed = 1, uses_anonymous_args = 0
 1389 0000 80B5     		push	{r7, lr}
 1390              	.LCFI27:
 1391              		.cfi_def_cfa_offset 8
 1392              		.cfi_offset 7, -8
 1393              		.cfi_offset 14, -4
 1394 0002 84B0     		sub	sp, sp, #16
 1395              	.LCFI28:
 1396              		.cfi_def_cfa_offset 24
 1397 0004 00AF     		add	r7, sp, #0
 1398              	.LCFI29:
 1399              		.cfi_def_cfa_register 7
 1400 0006 F860     		str	r0, [r7, #12]
 1401 0008 B960     		str	r1, [r7, #8]
 1402 000a BB1D     		adds	r3, r7, #6
 1403 000c 1A80     		strh	r2, [r3]
1340:Drivers/STM32F0xx_HAL_Driver/Src/stm32f0xx_hal_uart.c ****   /* Check that a Rx process is not already ongoing */
1341:Drivers/STM32F0xx_HAL_Driver/Src/stm32f0xx_hal_uart.c ****   if (huart->RxState == HAL_UART_STATE_READY)
 1404              		.loc 1 1341 12
 1405 000e FB68     		ldr	r3, [r7, #12]
 1406 0010 9B6F     		ldr	r3, [r3, #120]
 1407              		.loc 1 1341 6
 1408 0012 202B     		cmp	r3, #32
 1409 0014 00D0     		beq	.LCB1192
 1410 0016 8BE0     		b	.L79	@long jump
ARM GAS  /tmp/ccTcPcT8.s 			page 49


 1411              	.LCB1192:
1342:Drivers/STM32F0xx_HAL_Driver/Src/stm32f0xx_hal_uart.c ****   {
1343:Drivers/STM32F0xx_HAL_Driver/Src/stm32f0xx_hal_uart.c ****     if ((pData == NULL) || (Size == 0U))
 1412              		.loc 1 1343 8
 1413 0018 BB68     		ldr	r3, [r7, #8]
 1414 001a 002B     		cmp	r3, #0
 1415 001c 03D0     		beq	.L80
 1416              		.loc 1 1343 25 discriminator 1
 1417 001e BB1D     		adds	r3, r7, #6
 1418 0020 1B88     		ldrh	r3, [r3]
 1419 0022 002B     		cmp	r3, #0
 1420 0024 01D1     		bne	.L81
 1421              	.L80:
1344:Drivers/STM32F0xx_HAL_Driver/Src/stm32f0xx_hal_uart.c ****     {
1345:Drivers/STM32F0xx_HAL_Driver/Src/stm32f0xx_hal_uart.c ****       return HAL_ERROR;
 1422              		.loc 1 1345 14
 1423 0026 0123     		movs	r3, #1
 1424 0028 83E0     		b	.L82
 1425              	.L81:
1346:Drivers/STM32F0xx_HAL_Driver/Src/stm32f0xx_hal_uart.c ****     }
1347:Drivers/STM32F0xx_HAL_Driver/Src/stm32f0xx_hal_uart.c **** 
1348:Drivers/STM32F0xx_HAL_Driver/Src/stm32f0xx_hal_uart.c ****     /* In case of 9bits/No Parity transfer, pData buffer provided as input parameter
1349:Drivers/STM32F0xx_HAL_Driver/Src/stm32f0xx_hal_uart.c ****        should be aligned on a u16 frontier, as data to be received from RDR will be
1350:Drivers/STM32F0xx_HAL_Driver/Src/stm32f0xx_hal_uart.c ****        handled through a u16 cast. */
1351:Drivers/STM32F0xx_HAL_Driver/Src/stm32f0xx_hal_uart.c ****     if ((huart->Init.WordLength == UART_WORDLENGTH_9B) && (huart->Init.Parity == UART_PARITY_NONE))
 1426              		.loc 1 1351 21
 1427 002a FB68     		ldr	r3, [r7, #12]
 1428 002c 9A68     		ldr	r2, [r3, #8]
 1429              		.loc 1 1351 8
 1430 002e 8023     		movs	r3, #128
 1431 0030 5B01     		lsls	r3, r3, #5
 1432 0032 9A42     		cmp	r2, r3
 1433 0034 09D1     		bne	.L83
 1434              		.loc 1 1351 71 discriminator 1
 1435 0036 FB68     		ldr	r3, [r7, #12]
 1436 0038 1B69     		ldr	r3, [r3, #16]
 1437              		.loc 1 1351 56 discriminator 1
 1438 003a 002B     		cmp	r3, #0
 1439 003c 05D1     		bne	.L83
1352:Drivers/STM32F0xx_HAL_Driver/Src/stm32f0xx_hal_uart.c ****     {
1353:Drivers/STM32F0xx_HAL_Driver/Src/stm32f0xx_hal_uart.c ****       if ((((uint32_t)pData) & 1U) != 0U)
 1440              		.loc 1 1353 13
 1441 003e BB68     		ldr	r3, [r7, #8]
 1442              		.loc 1 1353 30
 1443 0040 0122     		movs	r2, #1
 1444 0042 1340     		ands	r3, r2
 1445              		.loc 1 1353 10
 1446 0044 01D0     		beq	.L83
1354:Drivers/STM32F0xx_HAL_Driver/Src/stm32f0xx_hal_uart.c ****       {
1355:Drivers/STM32F0xx_HAL_Driver/Src/stm32f0xx_hal_uart.c ****         return  HAL_ERROR;
 1447              		.loc 1 1355 17
 1448 0046 0123     		movs	r3, #1
 1449 0048 73E0     		b	.L82
 1450              	.L83:
1356:Drivers/STM32F0xx_HAL_Driver/Src/stm32f0xx_hal_uart.c ****       }
1357:Drivers/STM32F0xx_HAL_Driver/Src/stm32f0xx_hal_uart.c ****     }
1358:Drivers/STM32F0xx_HAL_Driver/Src/stm32f0xx_hal_uart.c **** 
ARM GAS  /tmp/ccTcPcT8.s 			page 50


1359:Drivers/STM32F0xx_HAL_Driver/Src/stm32f0xx_hal_uart.c ****     __HAL_LOCK(huart);
 1451              		.loc 1 1359 5
 1452 004a FB68     		ldr	r3, [r7, #12]
 1453 004c 7022     		movs	r2, #112
 1454 004e 9B5C     		ldrb	r3, [r3, r2]
 1455 0050 012B     		cmp	r3, #1
 1456 0052 01D1     		bne	.L84
 1457              		.loc 1 1359 5 is_stmt 0 discriminator 1
 1458 0054 0223     		movs	r3, #2
 1459              		.loc 1 1359 5
 1460 0056 6CE0     		b	.L82
 1461              	.L84:
 1462              		.loc 1 1359 5 discriminator 2
 1463 0058 FB68     		ldr	r3, [r7, #12]
 1464 005a 7022     		movs	r2, #112
 1465 005c 0121     		movs	r1, #1
 1466 005e 9954     		strb	r1, [r3, r2]
1360:Drivers/STM32F0xx_HAL_Driver/Src/stm32f0xx_hal_uart.c **** 
1361:Drivers/STM32F0xx_HAL_Driver/Src/stm32f0xx_hal_uart.c ****     huart->pRxBuffPtr  = pData;
 1467              		.loc 1 1361 24 is_stmt 1
 1468 0060 FB68     		ldr	r3, [r7, #12]
 1469 0062 BA68     		ldr	r2, [r7, #8]
 1470 0064 5A65     		str	r2, [r3, #84]
1362:Drivers/STM32F0xx_HAL_Driver/Src/stm32f0xx_hal_uart.c ****     huart->RxXferSize  = Size;
 1471              		.loc 1 1362 24
 1472 0066 FB68     		ldr	r3, [r7, #12]
 1473 0068 BA1D     		adds	r2, r7, #6
 1474 006a 5821     		movs	r1, #88
 1475 006c 1288     		ldrh	r2, [r2]
 1476 006e 5A52     		strh	r2, [r3, r1]
1363:Drivers/STM32F0xx_HAL_Driver/Src/stm32f0xx_hal_uart.c ****     huart->RxXferCount = Size;
 1477              		.loc 1 1363 24
 1478 0070 FB68     		ldr	r3, [r7, #12]
 1479 0072 BA1D     		adds	r2, r7, #6
 1480 0074 5A21     		movs	r1, #90
 1481 0076 1288     		ldrh	r2, [r2]
 1482 0078 5A52     		strh	r2, [r3, r1]
1364:Drivers/STM32F0xx_HAL_Driver/Src/stm32f0xx_hal_uart.c ****     huart->RxISR       = NULL;
 1483              		.loc 1 1364 24
 1484 007a FB68     		ldr	r3, [r7, #12]
 1485 007c 0022     		movs	r2, #0
 1486 007e 1A66     		str	r2, [r3, #96]
1365:Drivers/STM32F0xx_HAL_Driver/Src/stm32f0xx_hal_uart.c **** 
1366:Drivers/STM32F0xx_HAL_Driver/Src/stm32f0xx_hal_uart.c ****     /* Computation of UART mask to apply to RDR register */
1367:Drivers/STM32F0xx_HAL_Driver/Src/stm32f0xx_hal_uart.c ****     UART_MASK_COMPUTATION(huart);
 1487              		.loc 1 1367 5
 1488 0080 FB68     		ldr	r3, [r7, #12]
 1489 0082 9A68     		ldr	r2, [r3, #8]
 1490 0084 8023     		movs	r3, #128
 1491 0086 5B01     		lsls	r3, r3, #5
 1492 0088 9A42     		cmp	r2, r3
 1493 008a 0DD1     		bne	.L85
 1494              		.loc 1 1367 5 is_stmt 0 discriminator 1
 1495 008c FB68     		ldr	r3, [r7, #12]
 1496 008e 1B69     		ldr	r3, [r3, #16]
 1497 0090 002B     		cmp	r3, #0
 1498 0092 04D1     		bne	.L86
ARM GAS  /tmp/ccTcPcT8.s 			page 51


 1499              		.loc 1 1367 5 discriminator 3
 1500 0094 FB68     		ldr	r3, [r7, #12]
 1501 0096 5C22     		movs	r2, #92
 1502 0098 2849     		ldr	r1, .L92
 1503 009a 9952     		strh	r1, [r3, r2]
 1504 009c 1AE0     		b	.L87
 1505              	.L86:
 1506              		.loc 1 1367 5 discriminator 4
 1507 009e FB68     		ldr	r3, [r7, #12]
 1508 00a0 5C22     		movs	r2, #92
 1509 00a2 FF21     		movs	r1, #255
 1510 00a4 9952     		strh	r1, [r3, r2]
 1511 00a6 15E0     		b	.L87
 1512              	.L85:
 1513              		.loc 1 1367 5 discriminator 2
 1514 00a8 FB68     		ldr	r3, [r7, #12]
 1515 00aa 9B68     		ldr	r3, [r3, #8]
 1516 00ac 002B     		cmp	r3, #0
 1517 00ae 0DD1     		bne	.L88
 1518              		.loc 1 1367 5 discriminator 5
 1519 00b0 FB68     		ldr	r3, [r7, #12]
 1520 00b2 1B69     		ldr	r3, [r3, #16]
 1521 00b4 002B     		cmp	r3, #0
 1522 00b6 04D1     		bne	.L89
 1523              		.loc 1 1367 5 discriminator 7
 1524 00b8 FB68     		ldr	r3, [r7, #12]
 1525 00ba 5C22     		movs	r2, #92
 1526 00bc FF21     		movs	r1, #255
 1527 00be 9952     		strh	r1, [r3, r2]
 1528 00c0 08E0     		b	.L87
 1529              	.L89:
 1530              		.loc 1 1367 5 discriminator 8
 1531 00c2 FB68     		ldr	r3, [r7, #12]
 1532 00c4 5C22     		movs	r2, #92
 1533 00c6 7F21     		movs	r1, #127
 1534 00c8 9952     		strh	r1, [r3, r2]
 1535 00ca 03E0     		b	.L87
 1536              	.L88:
 1537              		.loc 1 1367 5 discriminator 6
 1538 00cc FB68     		ldr	r3, [r7, #12]
 1539 00ce 5C22     		movs	r2, #92
 1540 00d0 0021     		movs	r1, #0
 1541 00d2 9952     		strh	r1, [r3, r2]
 1542              	.L87:
1368:Drivers/STM32F0xx_HAL_Driver/Src/stm32f0xx_hal_uart.c **** 
1369:Drivers/STM32F0xx_HAL_Driver/Src/stm32f0xx_hal_uart.c ****     huart->ErrorCode = HAL_UART_ERROR_NONE;
 1543              		.loc 1 1369 22 is_stmt 1
 1544 00d4 FB68     		ldr	r3, [r7, #12]
 1545 00d6 0022     		movs	r2, #0
 1546 00d8 DA67     		str	r2, [r3, #124]
1370:Drivers/STM32F0xx_HAL_Driver/Src/stm32f0xx_hal_uart.c ****     huart->RxState = HAL_UART_STATE_BUSY_RX;
 1547              		.loc 1 1370 20
 1548 00da FB68     		ldr	r3, [r7, #12]
 1549 00dc 2222     		movs	r2, #34
 1550 00de 9A67     		str	r2, [r3, #120]
1371:Drivers/STM32F0xx_HAL_Driver/Src/stm32f0xx_hal_uart.c **** 
1372:Drivers/STM32F0xx_HAL_Driver/Src/stm32f0xx_hal_uart.c ****     /* Enable the UART Error Interrupt: (Frame error, noise error, overrun error) */
ARM GAS  /tmp/ccTcPcT8.s 			page 52


1373:Drivers/STM32F0xx_HAL_Driver/Src/stm32f0xx_hal_uart.c ****     SET_BIT(huart->Instance->CR3, USART_CR3_EIE);
 1551              		.loc 1 1373 5
 1552 00e0 FB68     		ldr	r3, [r7, #12]
 1553 00e2 1B68     		ldr	r3, [r3]
 1554 00e4 9A68     		ldr	r2, [r3, #8]
 1555 00e6 FB68     		ldr	r3, [r7, #12]
 1556 00e8 1B68     		ldr	r3, [r3]
 1557 00ea 0121     		movs	r1, #1
 1558 00ec 0A43     		orrs	r2, r1
 1559 00ee 9A60     		str	r2, [r3, #8]
1374:Drivers/STM32F0xx_HAL_Driver/Src/stm32f0xx_hal_uart.c **** 
1375:Drivers/STM32F0xx_HAL_Driver/Src/stm32f0xx_hal_uart.c ****     /* Set the Rx ISR function pointer according to the data word length */
1376:Drivers/STM32F0xx_HAL_Driver/Src/stm32f0xx_hal_uart.c ****     if ((huart->Init.WordLength == UART_WORDLENGTH_9B) && (huart->Init.Parity == UART_PARITY_NONE))
 1560              		.loc 1 1376 21
 1561 00f0 FB68     		ldr	r3, [r7, #12]
 1562 00f2 9A68     		ldr	r2, [r3, #8]
 1563              		.loc 1 1376 8
 1564 00f4 8023     		movs	r3, #128
 1565 00f6 5B01     		lsls	r3, r3, #5
 1566 00f8 9A42     		cmp	r2, r3
 1567 00fa 07D1     		bne	.L90
 1568              		.loc 1 1376 71 discriminator 1
 1569 00fc FB68     		ldr	r3, [r7, #12]
 1570 00fe 1B69     		ldr	r3, [r3, #16]
 1571              		.loc 1 1376 56 discriminator 1
 1572 0100 002B     		cmp	r3, #0
 1573 0102 03D1     		bne	.L90
1377:Drivers/STM32F0xx_HAL_Driver/Src/stm32f0xx_hal_uart.c ****     {
1378:Drivers/STM32F0xx_HAL_Driver/Src/stm32f0xx_hal_uart.c ****       huart->RxISR = UART_RxISR_16BIT;
 1574              		.loc 1 1378 20
 1575 0104 FB68     		ldr	r3, [r7, #12]
 1576 0106 0E4A     		ldr	r2, .L92+4
 1577 0108 1A66     		str	r2, [r3, #96]
 1578 010a 02E0     		b	.L91
 1579              	.L90:
1379:Drivers/STM32F0xx_HAL_Driver/Src/stm32f0xx_hal_uart.c ****     }
1380:Drivers/STM32F0xx_HAL_Driver/Src/stm32f0xx_hal_uart.c ****     else
1381:Drivers/STM32F0xx_HAL_Driver/Src/stm32f0xx_hal_uart.c ****     {
1382:Drivers/STM32F0xx_HAL_Driver/Src/stm32f0xx_hal_uart.c ****       huart->RxISR = UART_RxISR_8BIT;
 1580              		.loc 1 1382 20
 1581 010c FB68     		ldr	r3, [r7, #12]
 1582 010e 0D4A     		ldr	r2, .L92+8
 1583 0110 1A66     		str	r2, [r3, #96]
 1584              	.L91:
1383:Drivers/STM32F0xx_HAL_Driver/Src/stm32f0xx_hal_uart.c ****     }
1384:Drivers/STM32F0xx_HAL_Driver/Src/stm32f0xx_hal_uart.c **** 
1385:Drivers/STM32F0xx_HAL_Driver/Src/stm32f0xx_hal_uart.c ****     __HAL_UNLOCK(huart);
 1585              		.loc 1 1385 5
 1586 0112 FB68     		ldr	r3, [r7, #12]
 1587 0114 7022     		movs	r2, #112
 1588 0116 0021     		movs	r1, #0
 1589 0118 9954     		strb	r1, [r3, r2]
1386:Drivers/STM32F0xx_HAL_Driver/Src/stm32f0xx_hal_uart.c **** 
1387:Drivers/STM32F0xx_HAL_Driver/Src/stm32f0xx_hal_uart.c ****     /* Enable the UART Parity Error interrupt and Data Register Not Empty interrupt */
1388:Drivers/STM32F0xx_HAL_Driver/Src/stm32f0xx_hal_uart.c ****     SET_BIT(huart->Instance->CR1, USART_CR1_PEIE | USART_CR1_RXNEIE);
 1590              		.loc 1 1388 5
 1591 011a FB68     		ldr	r3, [r7, #12]
ARM GAS  /tmp/ccTcPcT8.s 			page 53


 1592 011c 1B68     		ldr	r3, [r3]
 1593 011e 1A68     		ldr	r2, [r3]
 1594 0120 FB68     		ldr	r3, [r7, #12]
 1595 0122 1B68     		ldr	r3, [r3]
 1596 0124 9021     		movs	r1, #144
 1597 0126 4900     		lsls	r1, r1, #1
 1598 0128 0A43     		orrs	r2, r1
 1599 012a 1A60     		str	r2, [r3]
1389:Drivers/STM32F0xx_HAL_Driver/Src/stm32f0xx_hal_uart.c **** 
1390:Drivers/STM32F0xx_HAL_Driver/Src/stm32f0xx_hal_uart.c ****     return HAL_OK;
 1600              		.loc 1 1390 12
 1601 012c 0023     		movs	r3, #0
 1602 012e 00E0     		b	.L82
 1603              	.L79:
1391:Drivers/STM32F0xx_HAL_Driver/Src/stm32f0xx_hal_uart.c ****   }
1392:Drivers/STM32F0xx_HAL_Driver/Src/stm32f0xx_hal_uart.c ****   else
1393:Drivers/STM32F0xx_HAL_Driver/Src/stm32f0xx_hal_uart.c ****   {
1394:Drivers/STM32F0xx_HAL_Driver/Src/stm32f0xx_hal_uart.c ****     return HAL_BUSY;
 1604              		.loc 1 1394 12
 1605 0130 0223     		movs	r3, #2
 1606              	.L82:
1395:Drivers/STM32F0xx_HAL_Driver/Src/stm32f0xx_hal_uart.c ****   }
1396:Drivers/STM32F0xx_HAL_Driver/Src/stm32f0xx_hal_uart.c **** }
 1607              		.loc 1 1396 1
 1608 0132 1800     		movs	r0, r3
 1609 0134 BD46     		mov	sp, r7
 1610 0136 04B0     		add	sp, sp, #16
 1611              		@ sp needed
 1612 0138 80BD     		pop	{r7, pc}
 1613              	.L93:
 1614 013a C046     		.align	2
 1615              	.L92:
 1616 013c FF010000 		.word	511
 1617 0140 00000000 		.word	UART_RxISR_16BIT
 1618 0144 00000000 		.word	UART_RxISR_8BIT
 1619              		.cfi_endproc
 1620              	.LFE49:
 1622              		.section	.text.HAL_UART_Transmit_DMA,"ax",%progbits
 1623              		.align	1
 1624              		.global	HAL_UART_Transmit_DMA
 1625              		.syntax unified
 1626              		.code	16
 1627              		.thumb_func
 1629              	HAL_UART_Transmit_DMA:
 1630              	.LFB50:
1397:Drivers/STM32F0xx_HAL_Driver/Src/stm32f0xx_hal_uart.c **** 
1398:Drivers/STM32F0xx_HAL_Driver/Src/stm32f0xx_hal_uart.c **** /**
1399:Drivers/STM32F0xx_HAL_Driver/Src/stm32f0xx_hal_uart.c ****   * @brief Send an amount of data in DMA mode.
1400:Drivers/STM32F0xx_HAL_Driver/Src/stm32f0xx_hal_uart.c ****   * @note   When UART parity is not enabled (PCE = 0), and Word Length is configured to 9 bits (M1-
1401:Drivers/STM32F0xx_HAL_Driver/Src/stm32f0xx_hal_uart.c ****   *         the sent data is handled as a set of u16. In this case, Size must indicate the number
1402:Drivers/STM32F0xx_HAL_Driver/Src/stm32f0xx_hal_uart.c ****   *         of u16 provided through pData.
1403:Drivers/STM32F0xx_HAL_Driver/Src/stm32f0xx_hal_uart.c ****   * @note   When UART parity is not enabled (PCE = 0), and Word Length is configured to 9 bits (M1-
1404:Drivers/STM32F0xx_HAL_Driver/Src/stm32f0xx_hal_uart.c ****   *         address of user data buffer containing data to be sent, should be aligned on a half wor
1405:Drivers/STM32F0xx_HAL_Driver/Src/stm32f0xx_hal_uart.c ****   *         (as sent data will be handled by DMA from halfword frontier). Depending on compilation 
1406:Drivers/STM32F0xx_HAL_Driver/Src/stm32f0xx_hal_uart.c ****   *         use of specific alignment compilation directives or pragmas might be required to ensure
1407:Drivers/STM32F0xx_HAL_Driver/Src/stm32f0xx_hal_uart.c ****   * @param huart UART handle.
1408:Drivers/STM32F0xx_HAL_Driver/Src/stm32f0xx_hal_uart.c ****   * @param pData Pointer to data buffer (u8 or u16 data elements).
ARM GAS  /tmp/ccTcPcT8.s 			page 54


1409:Drivers/STM32F0xx_HAL_Driver/Src/stm32f0xx_hal_uart.c ****   * @param Size  Amount of data elements (u8 or u16) to be sent.
1410:Drivers/STM32F0xx_HAL_Driver/Src/stm32f0xx_hal_uart.c ****   * @retval HAL status
1411:Drivers/STM32F0xx_HAL_Driver/Src/stm32f0xx_hal_uart.c ****   */
1412:Drivers/STM32F0xx_HAL_Driver/Src/stm32f0xx_hal_uart.c **** HAL_StatusTypeDef HAL_UART_Transmit_DMA(UART_HandleTypeDef *huart, uint8_t *pData, uint16_t Size)
1413:Drivers/STM32F0xx_HAL_Driver/Src/stm32f0xx_hal_uart.c **** {
 1631              		.loc 1 1413 1
 1632              		.cfi_startproc
 1633              		@ args = 0, pretend = 0, frame = 16
 1634              		@ frame_needed = 1, uses_anonymous_args = 0
 1635 0000 80B5     		push	{r7, lr}
 1636              	.LCFI30:
 1637              		.cfi_def_cfa_offset 8
 1638              		.cfi_offset 7, -8
 1639              		.cfi_offset 14, -4
 1640 0002 84B0     		sub	sp, sp, #16
 1641              	.LCFI31:
 1642              		.cfi_def_cfa_offset 24
 1643 0004 00AF     		add	r7, sp, #0
 1644              	.LCFI32:
 1645              		.cfi_def_cfa_register 7
 1646 0006 F860     		str	r0, [r7, #12]
 1647 0008 B960     		str	r1, [r7, #8]
 1648 000a BB1D     		adds	r3, r7, #6
 1649 000c 1A80     		strh	r2, [r3]
1414:Drivers/STM32F0xx_HAL_Driver/Src/stm32f0xx_hal_uart.c ****   /* Check that a Tx process is not already ongoing */
1415:Drivers/STM32F0xx_HAL_Driver/Src/stm32f0xx_hal_uart.c ****   if (huart->gState == HAL_UART_STATE_READY)
 1650              		.loc 1 1415 12
 1651 000e FB68     		ldr	r3, [r7, #12]
 1652 0010 5B6F     		ldr	r3, [r3, #116]
 1653              		.loc 1 1415 6
 1654 0012 202B     		cmp	r3, #32
 1655 0014 00D0     		beq	.LCB1411
 1656 0016 77E0     		b	.L95	@long jump
 1657              	.LCB1411:
1416:Drivers/STM32F0xx_HAL_Driver/Src/stm32f0xx_hal_uart.c ****   {
1417:Drivers/STM32F0xx_HAL_Driver/Src/stm32f0xx_hal_uart.c ****     if ((pData == NULL) || (Size == 0U))
 1658              		.loc 1 1417 8
 1659 0018 BB68     		ldr	r3, [r7, #8]
 1660 001a 002B     		cmp	r3, #0
 1661 001c 03D0     		beq	.L96
 1662              		.loc 1 1417 25 discriminator 1
 1663 001e BB1D     		adds	r3, r7, #6
 1664 0020 1B88     		ldrh	r3, [r3]
 1665 0022 002B     		cmp	r3, #0
 1666 0024 01D1     		bne	.L97
 1667              	.L96:
1418:Drivers/STM32F0xx_HAL_Driver/Src/stm32f0xx_hal_uart.c ****     {
1419:Drivers/STM32F0xx_HAL_Driver/Src/stm32f0xx_hal_uart.c ****       return HAL_ERROR;
 1668              		.loc 1 1419 14
 1669 0026 0123     		movs	r3, #1
 1670 0028 6FE0     		b	.L98
 1671              	.L97:
1420:Drivers/STM32F0xx_HAL_Driver/Src/stm32f0xx_hal_uart.c ****     }
1421:Drivers/STM32F0xx_HAL_Driver/Src/stm32f0xx_hal_uart.c **** 
1422:Drivers/STM32F0xx_HAL_Driver/Src/stm32f0xx_hal_uart.c ****     /* In case of 9bits/No Parity transfer, pData buffer provided as input parameter
1423:Drivers/STM32F0xx_HAL_Driver/Src/stm32f0xx_hal_uart.c ****        should be aligned on a u16 frontier, as data copy into TDR will be
1424:Drivers/STM32F0xx_HAL_Driver/Src/stm32f0xx_hal_uart.c ****        handled by DMA from a u16 frontier. */
ARM GAS  /tmp/ccTcPcT8.s 			page 55


1425:Drivers/STM32F0xx_HAL_Driver/Src/stm32f0xx_hal_uart.c ****     if ((huart->Init.WordLength == UART_WORDLENGTH_9B) && (huart->Init.Parity == UART_PARITY_NONE))
 1672              		.loc 1 1425 21
 1673 002a FB68     		ldr	r3, [r7, #12]
 1674 002c 9A68     		ldr	r2, [r3, #8]
 1675              		.loc 1 1425 8
 1676 002e 8023     		movs	r3, #128
 1677 0030 5B01     		lsls	r3, r3, #5
 1678 0032 9A42     		cmp	r2, r3
 1679 0034 09D1     		bne	.L99
 1680              		.loc 1 1425 71 discriminator 1
 1681 0036 FB68     		ldr	r3, [r7, #12]
 1682 0038 1B69     		ldr	r3, [r3, #16]
 1683              		.loc 1 1425 56 discriminator 1
 1684 003a 002B     		cmp	r3, #0
 1685 003c 05D1     		bne	.L99
1426:Drivers/STM32F0xx_HAL_Driver/Src/stm32f0xx_hal_uart.c ****     {
1427:Drivers/STM32F0xx_HAL_Driver/Src/stm32f0xx_hal_uart.c ****       if ((((uint32_t)pData) & 1U) != 0U)
 1686              		.loc 1 1427 13
 1687 003e BB68     		ldr	r3, [r7, #8]
 1688              		.loc 1 1427 30
 1689 0040 0122     		movs	r2, #1
 1690 0042 1340     		ands	r3, r2
 1691              		.loc 1 1427 10
 1692 0044 01D0     		beq	.L99
1428:Drivers/STM32F0xx_HAL_Driver/Src/stm32f0xx_hal_uart.c ****       {
1429:Drivers/STM32F0xx_HAL_Driver/Src/stm32f0xx_hal_uart.c ****         return  HAL_ERROR;
 1693              		.loc 1 1429 17
 1694 0046 0123     		movs	r3, #1
 1695 0048 5FE0     		b	.L98
 1696              	.L99:
1430:Drivers/STM32F0xx_HAL_Driver/Src/stm32f0xx_hal_uart.c ****       }
1431:Drivers/STM32F0xx_HAL_Driver/Src/stm32f0xx_hal_uart.c ****     }
1432:Drivers/STM32F0xx_HAL_Driver/Src/stm32f0xx_hal_uart.c **** 
1433:Drivers/STM32F0xx_HAL_Driver/Src/stm32f0xx_hal_uart.c ****     __HAL_LOCK(huart);
 1697              		.loc 1 1433 5
 1698 004a FB68     		ldr	r3, [r7, #12]
 1699 004c 7022     		movs	r2, #112
 1700 004e 9B5C     		ldrb	r3, [r3, r2]
 1701 0050 012B     		cmp	r3, #1
 1702 0052 01D1     		bne	.L100
 1703              		.loc 1 1433 5 is_stmt 0 discriminator 1
 1704 0054 0223     		movs	r3, #2
 1705              		.loc 1 1433 5
 1706 0056 58E0     		b	.L98
 1707              	.L100:
 1708              		.loc 1 1433 5 discriminator 2
 1709 0058 FB68     		ldr	r3, [r7, #12]
 1710 005a 7022     		movs	r2, #112
 1711 005c 0121     		movs	r1, #1
 1712 005e 9954     		strb	r1, [r3, r2]
1434:Drivers/STM32F0xx_HAL_Driver/Src/stm32f0xx_hal_uart.c **** 
1435:Drivers/STM32F0xx_HAL_Driver/Src/stm32f0xx_hal_uart.c ****     huart->pTxBuffPtr  = pData;
 1713              		.loc 1 1435 24 is_stmt 1
 1714 0060 FB68     		ldr	r3, [r7, #12]
 1715 0062 BA68     		ldr	r2, [r7, #8]
 1716 0064 DA64     		str	r2, [r3, #76]
1436:Drivers/STM32F0xx_HAL_Driver/Src/stm32f0xx_hal_uart.c ****     huart->TxXferSize  = Size;
ARM GAS  /tmp/ccTcPcT8.s 			page 56


 1717              		.loc 1 1436 24
 1718 0066 FB68     		ldr	r3, [r7, #12]
 1719 0068 BA1D     		adds	r2, r7, #6
 1720 006a 5021     		movs	r1, #80
 1721 006c 1288     		ldrh	r2, [r2]
 1722 006e 5A52     		strh	r2, [r3, r1]
1437:Drivers/STM32F0xx_HAL_Driver/Src/stm32f0xx_hal_uart.c ****     huart->TxXferCount = Size;
 1723              		.loc 1 1437 24
 1724 0070 FB68     		ldr	r3, [r7, #12]
 1725 0072 BA1D     		adds	r2, r7, #6
 1726 0074 5221     		movs	r1, #82
 1727 0076 1288     		ldrh	r2, [r2]
 1728 0078 5A52     		strh	r2, [r3, r1]
1438:Drivers/STM32F0xx_HAL_Driver/Src/stm32f0xx_hal_uart.c **** 
1439:Drivers/STM32F0xx_HAL_Driver/Src/stm32f0xx_hal_uart.c ****     huart->ErrorCode = HAL_UART_ERROR_NONE;
 1729              		.loc 1 1439 22
 1730 007a FB68     		ldr	r3, [r7, #12]
 1731 007c 0022     		movs	r2, #0
 1732 007e DA67     		str	r2, [r3, #124]
1440:Drivers/STM32F0xx_HAL_Driver/Src/stm32f0xx_hal_uart.c ****     huart->gState = HAL_UART_STATE_BUSY_TX;
 1733              		.loc 1 1440 19
 1734 0080 FB68     		ldr	r3, [r7, #12]
 1735 0082 2122     		movs	r2, #33
 1736 0084 5A67     		str	r2, [r3, #116]
1441:Drivers/STM32F0xx_HAL_Driver/Src/stm32f0xx_hal_uart.c **** 
1442:Drivers/STM32F0xx_HAL_Driver/Src/stm32f0xx_hal_uart.c ****     if (huart->hdmatx != NULL)
 1737              		.loc 1 1442 14
 1738 0086 FB68     		ldr	r3, [r7, #12]
 1739 0088 9B6E     		ldr	r3, [r3, #104]
 1740              		.loc 1 1442 8
 1741 008a 002B     		cmp	r3, #0
 1742 008c 2AD0     		beq	.L101
1443:Drivers/STM32F0xx_HAL_Driver/Src/stm32f0xx_hal_uart.c ****     {
1444:Drivers/STM32F0xx_HAL_Driver/Src/stm32f0xx_hal_uart.c ****       /* Set the UART DMA transfer complete callback */
1445:Drivers/STM32F0xx_HAL_Driver/Src/stm32f0xx_hal_uart.c ****       huart->hdmatx->XferCpltCallback = UART_DMATransmitCplt;
 1743              		.loc 1 1445 12
 1744 008e FB68     		ldr	r3, [r7, #12]
 1745 0090 9B6E     		ldr	r3, [r3, #104]
 1746              		.loc 1 1445 39
 1747 0092 204A     		ldr	r2, .L102
 1748 0094 9A62     		str	r2, [r3, #40]
1446:Drivers/STM32F0xx_HAL_Driver/Src/stm32f0xx_hal_uart.c **** 
1447:Drivers/STM32F0xx_HAL_Driver/Src/stm32f0xx_hal_uart.c ****       /* Set the UART DMA Half transfer complete callback */
1448:Drivers/STM32F0xx_HAL_Driver/Src/stm32f0xx_hal_uart.c ****       huart->hdmatx->XferHalfCpltCallback = UART_DMATxHalfCplt;
 1749              		.loc 1 1448 12
 1750 0096 FB68     		ldr	r3, [r7, #12]
 1751 0098 9B6E     		ldr	r3, [r3, #104]
 1752              		.loc 1 1448 43
 1753 009a 1F4A     		ldr	r2, .L102+4
 1754 009c DA62     		str	r2, [r3, #44]
1449:Drivers/STM32F0xx_HAL_Driver/Src/stm32f0xx_hal_uart.c **** 
1450:Drivers/STM32F0xx_HAL_Driver/Src/stm32f0xx_hal_uart.c ****       /* Set the DMA error callback */
1451:Drivers/STM32F0xx_HAL_Driver/Src/stm32f0xx_hal_uart.c ****       huart->hdmatx->XferErrorCallback = UART_DMAError;
 1755              		.loc 1 1451 12
 1756 009e FB68     		ldr	r3, [r7, #12]
 1757 00a0 9B6E     		ldr	r3, [r3, #104]
 1758              		.loc 1 1451 40
ARM GAS  /tmp/ccTcPcT8.s 			page 57


 1759 00a2 1E4A     		ldr	r2, .L102+8
 1760 00a4 1A63     		str	r2, [r3, #48]
1452:Drivers/STM32F0xx_HAL_Driver/Src/stm32f0xx_hal_uart.c **** 
1453:Drivers/STM32F0xx_HAL_Driver/Src/stm32f0xx_hal_uart.c ****       /* Set the DMA abort callback */
1454:Drivers/STM32F0xx_HAL_Driver/Src/stm32f0xx_hal_uart.c ****       huart->hdmatx->XferAbortCallback = NULL;
 1761              		.loc 1 1454 12
 1762 00a6 FB68     		ldr	r3, [r7, #12]
 1763 00a8 9B6E     		ldr	r3, [r3, #104]
 1764              		.loc 1 1454 40
 1765 00aa 0022     		movs	r2, #0
 1766 00ac 5A63     		str	r2, [r3, #52]
1455:Drivers/STM32F0xx_HAL_Driver/Src/stm32f0xx_hal_uart.c **** 
1456:Drivers/STM32F0xx_HAL_Driver/Src/stm32f0xx_hal_uart.c ****       /* Enable the UART transmit DMA channel */
1457:Drivers/STM32F0xx_HAL_Driver/Src/stm32f0xx_hal_uart.c ****       if (HAL_DMA_Start_IT(huart->hdmatx, (uint32_t)huart->pTxBuffPtr, (uint32_t)&huart->Instance->
 1767              		.loc 1 1457 11
 1768 00ae FB68     		ldr	r3, [r7, #12]
 1769 00b0 986E     		ldr	r0, [r3, #104]
 1770              		.loc 1 1457 58
 1771 00b2 FB68     		ldr	r3, [r7, #12]
 1772 00b4 DB6C     		ldr	r3, [r3, #76]
 1773              		.loc 1 1457 11
 1774 00b6 1900     		movs	r1, r3
 1775              		.loc 1 1457 88
 1776 00b8 FB68     		ldr	r3, [r7, #12]
 1777 00ba 1B68     		ldr	r3, [r3]
 1778              		.loc 1 1457 82
 1779 00bc 2833     		adds	r3, r3, #40
 1780              		.loc 1 1457 11
 1781 00be 1A00     		movs	r2, r3
 1782 00c0 BB1D     		adds	r3, r7, #6
 1783 00c2 1B88     		ldrh	r3, [r3]
 1784 00c4 FFF7FEFF 		bl	HAL_DMA_Start_IT
 1785 00c8 031E     		subs	r3, r0, #0
 1786              		.loc 1 1457 10 discriminator 1
 1787 00ca 0BD0     		beq	.L101
1458:Drivers/STM32F0xx_HAL_Driver/Src/stm32f0xx_hal_uart.c ****       {
1459:Drivers/STM32F0xx_HAL_Driver/Src/stm32f0xx_hal_uart.c ****         /* Set error code to DMA */
1460:Drivers/STM32F0xx_HAL_Driver/Src/stm32f0xx_hal_uart.c ****         huart->ErrorCode = HAL_UART_ERROR_DMA;
 1788              		.loc 1 1460 26
 1789 00cc FB68     		ldr	r3, [r7, #12]
 1790 00ce 1022     		movs	r2, #16
 1791 00d0 DA67     		str	r2, [r3, #124]
1461:Drivers/STM32F0xx_HAL_Driver/Src/stm32f0xx_hal_uart.c **** 
1462:Drivers/STM32F0xx_HAL_Driver/Src/stm32f0xx_hal_uart.c ****         __HAL_UNLOCK(huart);
 1792              		.loc 1 1462 9
 1793 00d2 FB68     		ldr	r3, [r7, #12]
 1794 00d4 7022     		movs	r2, #112
 1795 00d6 0021     		movs	r1, #0
 1796 00d8 9954     		strb	r1, [r3, r2]
1463:Drivers/STM32F0xx_HAL_Driver/Src/stm32f0xx_hal_uart.c **** 
1464:Drivers/STM32F0xx_HAL_Driver/Src/stm32f0xx_hal_uart.c ****         /* Restore huart->gState to ready */
1465:Drivers/STM32F0xx_HAL_Driver/Src/stm32f0xx_hal_uart.c ****         huart->gState = HAL_UART_STATE_READY;
 1797              		.loc 1 1465 23
 1798 00da FB68     		ldr	r3, [r7, #12]
 1799 00dc 2022     		movs	r2, #32
 1800 00de 5A67     		str	r2, [r3, #116]
1466:Drivers/STM32F0xx_HAL_Driver/Src/stm32f0xx_hal_uart.c **** 
ARM GAS  /tmp/ccTcPcT8.s 			page 58


1467:Drivers/STM32F0xx_HAL_Driver/Src/stm32f0xx_hal_uart.c ****         return HAL_ERROR;
 1801              		.loc 1 1467 16
 1802 00e0 0123     		movs	r3, #1
 1803 00e2 12E0     		b	.L98
 1804              	.L101:
1468:Drivers/STM32F0xx_HAL_Driver/Src/stm32f0xx_hal_uart.c ****       }
1469:Drivers/STM32F0xx_HAL_Driver/Src/stm32f0xx_hal_uart.c ****     }
1470:Drivers/STM32F0xx_HAL_Driver/Src/stm32f0xx_hal_uart.c ****     /* Clear the TC flag in the ICR register */
1471:Drivers/STM32F0xx_HAL_Driver/Src/stm32f0xx_hal_uart.c ****     __HAL_UART_CLEAR_FLAG(huart, UART_CLEAR_TCF);
 1805              		.loc 1 1471 5
 1806 00e4 FB68     		ldr	r3, [r7, #12]
 1807 00e6 1B68     		ldr	r3, [r3]
 1808 00e8 4022     		movs	r2, #64
 1809 00ea 1A62     		str	r2, [r3, #32]
1472:Drivers/STM32F0xx_HAL_Driver/Src/stm32f0xx_hal_uart.c **** 
1473:Drivers/STM32F0xx_HAL_Driver/Src/stm32f0xx_hal_uart.c ****     __HAL_UNLOCK(huart);
 1810              		.loc 1 1473 5
 1811 00ec FB68     		ldr	r3, [r7, #12]
 1812 00ee 7022     		movs	r2, #112
 1813 00f0 0021     		movs	r1, #0
 1814 00f2 9954     		strb	r1, [r3, r2]
1474:Drivers/STM32F0xx_HAL_Driver/Src/stm32f0xx_hal_uart.c **** 
1475:Drivers/STM32F0xx_HAL_Driver/Src/stm32f0xx_hal_uart.c ****     /* Enable the DMA transfer for transmit request by setting the DMAT bit
1476:Drivers/STM32F0xx_HAL_Driver/Src/stm32f0xx_hal_uart.c ****     in the UART CR3 register */
1477:Drivers/STM32F0xx_HAL_Driver/Src/stm32f0xx_hal_uart.c ****     SET_BIT(huart->Instance->CR3, USART_CR3_DMAT);
 1815              		.loc 1 1477 5
 1816 00f4 FB68     		ldr	r3, [r7, #12]
 1817 00f6 1B68     		ldr	r3, [r3]
 1818 00f8 9A68     		ldr	r2, [r3, #8]
 1819 00fa FB68     		ldr	r3, [r7, #12]
 1820 00fc 1B68     		ldr	r3, [r3]
 1821 00fe 8021     		movs	r1, #128
 1822 0100 0A43     		orrs	r2, r1
 1823 0102 9A60     		str	r2, [r3, #8]
1478:Drivers/STM32F0xx_HAL_Driver/Src/stm32f0xx_hal_uart.c **** 
1479:Drivers/STM32F0xx_HAL_Driver/Src/stm32f0xx_hal_uart.c ****     return HAL_OK;
 1824              		.loc 1 1479 12
 1825 0104 0023     		movs	r3, #0
 1826 0106 00E0     		b	.L98
 1827              	.L95:
1480:Drivers/STM32F0xx_HAL_Driver/Src/stm32f0xx_hal_uart.c ****   }
1481:Drivers/STM32F0xx_HAL_Driver/Src/stm32f0xx_hal_uart.c ****   else
1482:Drivers/STM32F0xx_HAL_Driver/Src/stm32f0xx_hal_uart.c ****   {
1483:Drivers/STM32F0xx_HAL_Driver/Src/stm32f0xx_hal_uart.c ****     return HAL_BUSY;
 1828              		.loc 1 1483 12
 1829 0108 0223     		movs	r3, #2
 1830              	.L98:
1484:Drivers/STM32F0xx_HAL_Driver/Src/stm32f0xx_hal_uart.c ****   }
1485:Drivers/STM32F0xx_HAL_Driver/Src/stm32f0xx_hal_uart.c **** }
 1831              		.loc 1 1485 1
 1832 010a 1800     		movs	r0, r3
 1833 010c BD46     		mov	sp, r7
 1834 010e 04B0     		add	sp, sp, #16
 1835              		@ sp needed
 1836 0110 80BD     		pop	{r7, pc}
 1837              	.L103:
 1838 0112 C046     		.align	2
ARM GAS  /tmp/ccTcPcT8.s 			page 59


 1839              	.L102:
 1840 0114 00000000 		.word	UART_DMATransmitCplt
 1841 0118 00000000 		.word	UART_DMATxHalfCplt
 1842 011c 00000000 		.word	UART_DMAError
 1843              		.cfi_endproc
 1844              	.LFE50:
 1846              		.section	.text.HAL_UART_Receive_DMA,"ax",%progbits
 1847              		.align	1
 1848              		.global	HAL_UART_Receive_DMA
 1849              		.syntax unified
 1850              		.code	16
 1851              		.thumb_func
 1853              	HAL_UART_Receive_DMA:
 1854              	.LFB51:
1486:Drivers/STM32F0xx_HAL_Driver/Src/stm32f0xx_hal_uart.c **** 
1487:Drivers/STM32F0xx_HAL_Driver/Src/stm32f0xx_hal_uart.c **** /**
1488:Drivers/STM32F0xx_HAL_Driver/Src/stm32f0xx_hal_uart.c ****   * @brief Receive an amount of data in DMA mode.
1489:Drivers/STM32F0xx_HAL_Driver/Src/stm32f0xx_hal_uart.c ****   * @note   When the UART parity is enabled (PCE = 1), the received data contain
1490:Drivers/STM32F0xx_HAL_Driver/Src/stm32f0xx_hal_uart.c ****   *         the parity bit (MSB position).
1491:Drivers/STM32F0xx_HAL_Driver/Src/stm32f0xx_hal_uart.c ****   * @note   When UART parity is not enabled (PCE = 0), and Word Length is configured to 9 bits (M1-
1492:Drivers/STM32F0xx_HAL_Driver/Src/stm32f0xx_hal_uart.c ****   *         the received data is handled as a set of u16. In this case, Size must indicate the numb
1493:Drivers/STM32F0xx_HAL_Driver/Src/stm32f0xx_hal_uart.c ****   *         of u16 available through pData.
1494:Drivers/STM32F0xx_HAL_Driver/Src/stm32f0xx_hal_uart.c ****   * @note   When UART parity is not enabled (PCE = 0), and Word Length is configured to 9 bits (M1-
1495:Drivers/STM32F0xx_HAL_Driver/Src/stm32f0xx_hal_uart.c ****   *         address of user data buffer for storing data to be received, should be aligned on a hal
1496:Drivers/STM32F0xx_HAL_Driver/Src/stm32f0xx_hal_uart.c ****   *         (as received data will be handled by DMA from halfword frontier). Depending on compilat
1497:Drivers/STM32F0xx_HAL_Driver/Src/stm32f0xx_hal_uart.c ****   *         use of specific alignment compilation directives or pragmas might be required to ensure
1498:Drivers/STM32F0xx_HAL_Driver/Src/stm32f0xx_hal_uart.c ****   * @param huart UART handle.
1499:Drivers/STM32F0xx_HAL_Driver/Src/stm32f0xx_hal_uart.c ****   * @param pData Pointer to data buffer (u8 or u16 data elements).
1500:Drivers/STM32F0xx_HAL_Driver/Src/stm32f0xx_hal_uart.c ****   * @param Size  Amount of data elements (u8 or u16) to be received.
1501:Drivers/STM32F0xx_HAL_Driver/Src/stm32f0xx_hal_uart.c ****   * @retval HAL status
1502:Drivers/STM32F0xx_HAL_Driver/Src/stm32f0xx_hal_uart.c ****   */
1503:Drivers/STM32F0xx_HAL_Driver/Src/stm32f0xx_hal_uart.c **** HAL_StatusTypeDef HAL_UART_Receive_DMA(UART_HandleTypeDef *huart, uint8_t *pData, uint16_t Size)
1504:Drivers/STM32F0xx_HAL_Driver/Src/stm32f0xx_hal_uart.c **** {
 1855              		.loc 1 1504 1
 1856              		.cfi_startproc
 1857              		@ args = 0, pretend = 0, frame = 16
 1858              		@ frame_needed = 1, uses_anonymous_args = 0
 1859 0000 80B5     		push	{r7, lr}
 1860              	.LCFI33:
 1861              		.cfi_def_cfa_offset 8
 1862              		.cfi_offset 7, -8
 1863              		.cfi_offset 14, -4
 1864 0002 84B0     		sub	sp, sp, #16
 1865              	.LCFI34:
 1866              		.cfi_def_cfa_offset 24
 1867 0004 00AF     		add	r7, sp, #0
 1868              	.LCFI35:
 1869              		.cfi_def_cfa_register 7
 1870 0006 F860     		str	r0, [r7, #12]
 1871 0008 B960     		str	r1, [r7, #8]
 1872 000a BB1D     		adds	r3, r7, #6
 1873 000c 1A80     		strh	r2, [r3]
1505:Drivers/STM32F0xx_HAL_Driver/Src/stm32f0xx_hal_uart.c ****   /* Check that a Rx process is not already ongoing */
1506:Drivers/STM32F0xx_HAL_Driver/Src/stm32f0xx_hal_uart.c ****   if (huart->RxState == HAL_UART_STATE_READY)
 1874              		.loc 1 1506 12
 1875 000e FB68     		ldr	r3, [r7, #12]
 1876 0010 9B6F     		ldr	r3, [r3, #120]
ARM GAS  /tmp/ccTcPcT8.s 			page 60


 1877              		.loc 1 1506 6
 1878 0012 202B     		cmp	r3, #32
 1879 0014 00D0     		beq	.LCB1593
 1880 0016 7FE0     		b	.L105	@long jump
 1881              	.LCB1593:
1507:Drivers/STM32F0xx_HAL_Driver/Src/stm32f0xx_hal_uart.c ****   {
1508:Drivers/STM32F0xx_HAL_Driver/Src/stm32f0xx_hal_uart.c ****     if ((pData == NULL) || (Size == 0U))
 1882              		.loc 1 1508 8
 1883 0018 BB68     		ldr	r3, [r7, #8]
 1884 001a 002B     		cmp	r3, #0
 1885 001c 03D0     		beq	.L106
 1886              		.loc 1 1508 25 discriminator 1
 1887 001e BB1D     		adds	r3, r7, #6
 1888 0020 1B88     		ldrh	r3, [r3]
 1889 0022 002B     		cmp	r3, #0
 1890 0024 01D1     		bne	.L107
 1891              	.L106:
1509:Drivers/STM32F0xx_HAL_Driver/Src/stm32f0xx_hal_uart.c ****     {
1510:Drivers/STM32F0xx_HAL_Driver/Src/stm32f0xx_hal_uart.c ****       return HAL_ERROR;
 1892              		.loc 1 1510 14
 1893 0026 0123     		movs	r3, #1
 1894 0028 77E0     		b	.L108
 1895              	.L107:
1511:Drivers/STM32F0xx_HAL_Driver/Src/stm32f0xx_hal_uart.c ****     }
1512:Drivers/STM32F0xx_HAL_Driver/Src/stm32f0xx_hal_uart.c **** 
1513:Drivers/STM32F0xx_HAL_Driver/Src/stm32f0xx_hal_uart.c ****     /* In case of 9bits/No Parity transfer, pData buffer provided as input parameter
1514:Drivers/STM32F0xx_HAL_Driver/Src/stm32f0xx_hal_uart.c ****        should be aligned on a u16 frontier, as data copy from RDR will be
1515:Drivers/STM32F0xx_HAL_Driver/Src/stm32f0xx_hal_uart.c ****        handled by DMA from a u16 frontier. */
1516:Drivers/STM32F0xx_HAL_Driver/Src/stm32f0xx_hal_uart.c ****     if ((huart->Init.WordLength == UART_WORDLENGTH_9B) && (huart->Init.Parity == UART_PARITY_NONE))
 1896              		.loc 1 1516 21
 1897 002a FB68     		ldr	r3, [r7, #12]
 1898 002c 9A68     		ldr	r2, [r3, #8]
 1899              		.loc 1 1516 8
 1900 002e 8023     		movs	r3, #128
 1901 0030 5B01     		lsls	r3, r3, #5
 1902 0032 9A42     		cmp	r2, r3
 1903 0034 09D1     		bne	.L109
 1904              		.loc 1 1516 71 discriminator 1
 1905 0036 FB68     		ldr	r3, [r7, #12]
 1906 0038 1B69     		ldr	r3, [r3, #16]
 1907              		.loc 1 1516 56 discriminator 1
 1908 003a 002B     		cmp	r3, #0
 1909 003c 05D1     		bne	.L109
1517:Drivers/STM32F0xx_HAL_Driver/Src/stm32f0xx_hal_uart.c ****     {
1518:Drivers/STM32F0xx_HAL_Driver/Src/stm32f0xx_hal_uart.c ****       if ((((uint32_t)pData) & 1U) != 0U)
 1910              		.loc 1 1518 13
 1911 003e BB68     		ldr	r3, [r7, #8]
 1912              		.loc 1 1518 30
 1913 0040 0122     		movs	r2, #1
 1914 0042 1340     		ands	r3, r2
 1915              		.loc 1 1518 10
 1916 0044 01D0     		beq	.L109
1519:Drivers/STM32F0xx_HAL_Driver/Src/stm32f0xx_hal_uart.c ****       {
1520:Drivers/STM32F0xx_HAL_Driver/Src/stm32f0xx_hal_uart.c ****         return  HAL_ERROR;
 1917              		.loc 1 1520 17
 1918 0046 0123     		movs	r3, #1
 1919 0048 67E0     		b	.L108
ARM GAS  /tmp/ccTcPcT8.s 			page 61


 1920              	.L109:
1521:Drivers/STM32F0xx_HAL_Driver/Src/stm32f0xx_hal_uart.c ****       }
1522:Drivers/STM32F0xx_HAL_Driver/Src/stm32f0xx_hal_uart.c ****     }
1523:Drivers/STM32F0xx_HAL_Driver/Src/stm32f0xx_hal_uart.c **** 
1524:Drivers/STM32F0xx_HAL_Driver/Src/stm32f0xx_hal_uart.c ****     __HAL_LOCK(huart);
 1921              		.loc 1 1524 5
 1922 004a FB68     		ldr	r3, [r7, #12]
 1923 004c 7022     		movs	r2, #112
 1924 004e 9B5C     		ldrb	r3, [r3, r2]
 1925 0050 012B     		cmp	r3, #1
 1926 0052 01D1     		bne	.L110
 1927              		.loc 1 1524 5 is_stmt 0 discriminator 1
 1928 0054 0223     		movs	r3, #2
 1929              		.loc 1 1524 5
 1930 0056 60E0     		b	.L108
 1931              	.L110:
 1932              		.loc 1 1524 5 discriminator 2
 1933 0058 FB68     		ldr	r3, [r7, #12]
 1934 005a 7022     		movs	r2, #112
 1935 005c 0121     		movs	r1, #1
 1936 005e 9954     		strb	r1, [r3, r2]
1525:Drivers/STM32F0xx_HAL_Driver/Src/stm32f0xx_hal_uart.c **** 
1526:Drivers/STM32F0xx_HAL_Driver/Src/stm32f0xx_hal_uart.c ****     huart->pRxBuffPtr = pData;
 1937              		.loc 1 1526 23 is_stmt 1
 1938 0060 FB68     		ldr	r3, [r7, #12]
 1939 0062 BA68     		ldr	r2, [r7, #8]
 1940 0064 5A65     		str	r2, [r3, #84]
1527:Drivers/STM32F0xx_HAL_Driver/Src/stm32f0xx_hal_uart.c ****     huart->RxXferSize = Size;
 1941              		.loc 1 1527 23
 1942 0066 FB68     		ldr	r3, [r7, #12]
 1943 0068 BA1D     		adds	r2, r7, #6
 1944 006a 5821     		movs	r1, #88
 1945 006c 1288     		ldrh	r2, [r2]
 1946 006e 5A52     		strh	r2, [r3, r1]
1528:Drivers/STM32F0xx_HAL_Driver/Src/stm32f0xx_hal_uart.c **** 
1529:Drivers/STM32F0xx_HAL_Driver/Src/stm32f0xx_hal_uart.c ****     huart->ErrorCode = HAL_UART_ERROR_NONE;
 1947              		.loc 1 1529 22
 1948 0070 FB68     		ldr	r3, [r7, #12]
 1949 0072 0022     		movs	r2, #0
 1950 0074 DA67     		str	r2, [r3, #124]
1530:Drivers/STM32F0xx_HAL_Driver/Src/stm32f0xx_hal_uart.c ****     huart->RxState = HAL_UART_STATE_BUSY_RX;
 1951              		.loc 1 1530 20
 1952 0076 FB68     		ldr	r3, [r7, #12]
 1953 0078 2222     		movs	r2, #34
 1954 007a 9A67     		str	r2, [r3, #120]
1531:Drivers/STM32F0xx_HAL_Driver/Src/stm32f0xx_hal_uart.c **** 
1532:Drivers/STM32F0xx_HAL_Driver/Src/stm32f0xx_hal_uart.c ****     if (huart->hdmarx != NULL)
 1955              		.loc 1 1532 14
 1956 007c FB68     		ldr	r3, [r7, #12]
 1957 007e DB6E     		ldr	r3, [r3, #108]
 1958              		.loc 1 1532 8
 1959 0080 002B     		cmp	r3, #0
 1960 0082 2AD0     		beq	.L111
1533:Drivers/STM32F0xx_HAL_Driver/Src/stm32f0xx_hal_uart.c ****     {
1534:Drivers/STM32F0xx_HAL_Driver/Src/stm32f0xx_hal_uart.c ****       /* Set the UART DMA transfer complete callback */
1535:Drivers/STM32F0xx_HAL_Driver/Src/stm32f0xx_hal_uart.c ****       huart->hdmarx->XferCpltCallback = UART_DMAReceiveCplt;
 1961              		.loc 1 1535 12
ARM GAS  /tmp/ccTcPcT8.s 			page 62


 1962 0084 FB68     		ldr	r3, [r7, #12]
 1963 0086 DB6E     		ldr	r3, [r3, #108]
 1964              		.loc 1 1535 39
 1965 0088 264A     		ldr	r2, .L112
 1966 008a 9A62     		str	r2, [r3, #40]
1536:Drivers/STM32F0xx_HAL_Driver/Src/stm32f0xx_hal_uart.c **** 
1537:Drivers/STM32F0xx_HAL_Driver/Src/stm32f0xx_hal_uart.c ****       /* Set the UART DMA Half transfer complete callback */
1538:Drivers/STM32F0xx_HAL_Driver/Src/stm32f0xx_hal_uart.c ****       huart->hdmarx->XferHalfCpltCallback = UART_DMARxHalfCplt;
 1967              		.loc 1 1538 12
 1968 008c FB68     		ldr	r3, [r7, #12]
 1969 008e DB6E     		ldr	r3, [r3, #108]
 1970              		.loc 1 1538 43
 1971 0090 254A     		ldr	r2, .L112+4
 1972 0092 DA62     		str	r2, [r3, #44]
1539:Drivers/STM32F0xx_HAL_Driver/Src/stm32f0xx_hal_uart.c **** 
1540:Drivers/STM32F0xx_HAL_Driver/Src/stm32f0xx_hal_uart.c ****       /* Set the DMA error callback */
1541:Drivers/STM32F0xx_HAL_Driver/Src/stm32f0xx_hal_uart.c ****       huart->hdmarx->XferErrorCallback = UART_DMAError;
 1973              		.loc 1 1541 12
 1974 0094 FB68     		ldr	r3, [r7, #12]
 1975 0096 DB6E     		ldr	r3, [r3, #108]
 1976              		.loc 1 1541 40
 1977 0098 244A     		ldr	r2, .L112+8
 1978 009a 1A63     		str	r2, [r3, #48]
1542:Drivers/STM32F0xx_HAL_Driver/Src/stm32f0xx_hal_uart.c **** 
1543:Drivers/STM32F0xx_HAL_Driver/Src/stm32f0xx_hal_uart.c ****       /* Set the DMA abort callback */
1544:Drivers/STM32F0xx_HAL_Driver/Src/stm32f0xx_hal_uart.c ****       huart->hdmarx->XferAbortCallback = NULL;
 1979              		.loc 1 1544 12
 1980 009c FB68     		ldr	r3, [r7, #12]
 1981 009e DB6E     		ldr	r3, [r3, #108]
 1982              		.loc 1 1544 40
 1983 00a0 0022     		movs	r2, #0
 1984 00a2 5A63     		str	r2, [r3, #52]
1545:Drivers/STM32F0xx_HAL_Driver/Src/stm32f0xx_hal_uart.c **** 
1546:Drivers/STM32F0xx_HAL_Driver/Src/stm32f0xx_hal_uart.c ****       /* Enable the DMA channel */
1547:Drivers/STM32F0xx_HAL_Driver/Src/stm32f0xx_hal_uart.c ****       if (HAL_DMA_Start_IT(huart->hdmarx, (uint32_t)&huart->Instance->RDR, (uint32_t)huart->pRxBuff
 1985              		.loc 1 1547 11
 1986 00a4 FB68     		ldr	r3, [r7, #12]
 1987 00a6 D86E     		ldr	r0, [r3, #108]
 1988              		.loc 1 1547 59
 1989 00a8 FB68     		ldr	r3, [r7, #12]
 1990 00aa 1B68     		ldr	r3, [r3]
 1991              		.loc 1 1547 53
 1992 00ac 2433     		adds	r3, r3, #36
 1993              		.loc 1 1547 11
 1994 00ae 1900     		movs	r1, r3
 1995              		.loc 1 1547 91
 1996 00b0 FB68     		ldr	r3, [r7, #12]
 1997 00b2 5B6D     		ldr	r3, [r3, #84]
 1998              		.loc 1 1547 11
 1999 00b4 1A00     		movs	r2, r3
 2000 00b6 BB1D     		adds	r3, r7, #6
 2001 00b8 1B88     		ldrh	r3, [r3]
 2002 00ba FFF7FEFF 		bl	HAL_DMA_Start_IT
 2003 00be 031E     		subs	r3, r0, #0
 2004              		.loc 1 1547 10 discriminator 1
 2005 00c0 0BD0     		beq	.L111
1548:Drivers/STM32F0xx_HAL_Driver/Src/stm32f0xx_hal_uart.c ****       {
ARM GAS  /tmp/ccTcPcT8.s 			page 63


1549:Drivers/STM32F0xx_HAL_Driver/Src/stm32f0xx_hal_uart.c ****         /* Set error code to DMA */
1550:Drivers/STM32F0xx_HAL_Driver/Src/stm32f0xx_hal_uart.c ****         huart->ErrorCode = HAL_UART_ERROR_DMA;
 2006              		.loc 1 1550 26
 2007 00c2 FB68     		ldr	r3, [r7, #12]
 2008 00c4 1022     		movs	r2, #16
 2009 00c6 DA67     		str	r2, [r3, #124]
1551:Drivers/STM32F0xx_HAL_Driver/Src/stm32f0xx_hal_uart.c **** 
1552:Drivers/STM32F0xx_HAL_Driver/Src/stm32f0xx_hal_uart.c ****         __HAL_UNLOCK(huart);
 2010              		.loc 1 1552 9
 2011 00c8 FB68     		ldr	r3, [r7, #12]
 2012 00ca 7022     		movs	r2, #112
 2013 00cc 0021     		movs	r1, #0
 2014 00ce 9954     		strb	r1, [r3, r2]
1553:Drivers/STM32F0xx_HAL_Driver/Src/stm32f0xx_hal_uart.c **** 
1554:Drivers/STM32F0xx_HAL_Driver/Src/stm32f0xx_hal_uart.c ****         /* Restore huart->gState to ready */
1555:Drivers/STM32F0xx_HAL_Driver/Src/stm32f0xx_hal_uart.c ****         huart->gState = HAL_UART_STATE_READY;
 2015              		.loc 1 1555 23
 2016 00d0 FB68     		ldr	r3, [r7, #12]
 2017 00d2 2022     		movs	r2, #32
 2018 00d4 5A67     		str	r2, [r3, #116]
1556:Drivers/STM32F0xx_HAL_Driver/Src/stm32f0xx_hal_uart.c **** 
1557:Drivers/STM32F0xx_HAL_Driver/Src/stm32f0xx_hal_uart.c ****         return HAL_ERROR;
 2019              		.loc 1 1557 16
 2020 00d6 0123     		movs	r3, #1
 2021 00d8 1FE0     		b	.L108
 2022              	.L111:
1558:Drivers/STM32F0xx_HAL_Driver/Src/stm32f0xx_hal_uart.c ****       }
1559:Drivers/STM32F0xx_HAL_Driver/Src/stm32f0xx_hal_uart.c ****     }
1560:Drivers/STM32F0xx_HAL_Driver/Src/stm32f0xx_hal_uart.c ****     __HAL_UNLOCK(huart);
 2023              		.loc 1 1560 5
 2024 00da FB68     		ldr	r3, [r7, #12]
 2025 00dc 7022     		movs	r2, #112
 2026 00de 0021     		movs	r1, #0
 2027 00e0 9954     		strb	r1, [r3, r2]
1561:Drivers/STM32F0xx_HAL_Driver/Src/stm32f0xx_hal_uart.c **** 
1562:Drivers/STM32F0xx_HAL_Driver/Src/stm32f0xx_hal_uart.c ****     /* Enable the UART Parity Error Interrupt */
1563:Drivers/STM32F0xx_HAL_Driver/Src/stm32f0xx_hal_uart.c ****     SET_BIT(huart->Instance->CR1, USART_CR1_PEIE);
 2028              		.loc 1 1563 5
 2029 00e2 FB68     		ldr	r3, [r7, #12]
 2030 00e4 1B68     		ldr	r3, [r3]
 2031 00e6 1A68     		ldr	r2, [r3]
 2032 00e8 FB68     		ldr	r3, [r7, #12]
 2033 00ea 1B68     		ldr	r3, [r3]
 2034 00ec 8021     		movs	r1, #128
 2035 00ee 4900     		lsls	r1, r1, #1
 2036 00f0 0A43     		orrs	r2, r1
 2037 00f2 1A60     		str	r2, [r3]
1564:Drivers/STM32F0xx_HAL_Driver/Src/stm32f0xx_hal_uart.c **** 
1565:Drivers/STM32F0xx_HAL_Driver/Src/stm32f0xx_hal_uart.c ****     /* Enable the UART Error Interrupt: (Frame error, noise error, overrun error) */
1566:Drivers/STM32F0xx_HAL_Driver/Src/stm32f0xx_hal_uart.c ****     SET_BIT(huart->Instance->CR3, USART_CR3_EIE);
 2038              		.loc 1 1566 5
 2039 00f4 FB68     		ldr	r3, [r7, #12]
 2040 00f6 1B68     		ldr	r3, [r3]
 2041 00f8 9A68     		ldr	r2, [r3, #8]
 2042 00fa FB68     		ldr	r3, [r7, #12]
 2043 00fc 1B68     		ldr	r3, [r3]
 2044 00fe 0121     		movs	r1, #1
ARM GAS  /tmp/ccTcPcT8.s 			page 64


 2045 0100 0A43     		orrs	r2, r1
 2046 0102 9A60     		str	r2, [r3, #8]
1567:Drivers/STM32F0xx_HAL_Driver/Src/stm32f0xx_hal_uart.c **** 
1568:Drivers/STM32F0xx_HAL_Driver/Src/stm32f0xx_hal_uart.c ****     /* Enable the DMA transfer for the receiver request by setting the DMAR bit
1569:Drivers/STM32F0xx_HAL_Driver/Src/stm32f0xx_hal_uart.c ****     in the UART CR3 register */
1570:Drivers/STM32F0xx_HAL_Driver/Src/stm32f0xx_hal_uart.c ****     SET_BIT(huart->Instance->CR3, USART_CR3_DMAR);
 2047              		.loc 1 1570 5
 2048 0104 FB68     		ldr	r3, [r7, #12]
 2049 0106 1B68     		ldr	r3, [r3]
 2050 0108 9A68     		ldr	r2, [r3, #8]
 2051 010a FB68     		ldr	r3, [r7, #12]
 2052 010c 1B68     		ldr	r3, [r3]
 2053 010e 4021     		movs	r1, #64
 2054 0110 0A43     		orrs	r2, r1
 2055 0112 9A60     		str	r2, [r3, #8]
1571:Drivers/STM32F0xx_HAL_Driver/Src/stm32f0xx_hal_uart.c **** 
1572:Drivers/STM32F0xx_HAL_Driver/Src/stm32f0xx_hal_uart.c ****     return HAL_OK;
 2056              		.loc 1 1572 12
 2057 0114 0023     		movs	r3, #0
 2058 0116 00E0     		b	.L108
 2059              	.L105:
1573:Drivers/STM32F0xx_HAL_Driver/Src/stm32f0xx_hal_uart.c ****   }
1574:Drivers/STM32F0xx_HAL_Driver/Src/stm32f0xx_hal_uart.c ****   else
1575:Drivers/STM32F0xx_HAL_Driver/Src/stm32f0xx_hal_uart.c ****   {
1576:Drivers/STM32F0xx_HAL_Driver/Src/stm32f0xx_hal_uart.c ****     return HAL_BUSY;
 2060              		.loc 1 1576 12
 2061 0118 0223     		movs	r3, #2
 2062              	.L108:
1577:Drivers/STM32F0xx_HAL_Driver/Src/stm32f0xx_hal_uart.c ****   }
1578:Drivers/STM32F0xx_HAL_Driver/Src/stm32f0xx_hal_uart.c **** }
 2063              		.loc 1 1578 1
 2064 011a 1800     		movs	r0, r3
 2065 011c BD46     		mov	sp, r7
 2066 011e 04B0     		add	sp, sp, #16
 2067              		@ sp needed
 2068 0120 80BD     		pop	{r7, pc}
 2069              	.L113:
 2070 0122 C046     		.align	2
 2071              	.L112:
 2072 0124 00000000 		.word	UART_DMAReceiveCplt
 2073 0128 00000000 		.word	UART_DMARxHalfCplt
 2074 012c 00000000 		.word	UART_DMAError
 2075              		.cfi_endproc
 2076              	.LFE51:
 2078              		.section	.text.HAL_UART_DMAPause,"ax",%progbits
 2079              		.align	1
 2080              		.global	HAL_UART_DMAPause
 2081              		.syntax unified
 2082              		.code	16
 2083              		.thumb_func
 2085              	HAL_UART_DMAPause:
 2086              	.LFB52:
1579:Drivers/STM32F0xx_HAL_Driver/Src/stm32f0xx_hal_uart.c **** 
1580:Drivers/STM32F0xx_HAL_Driver/Src/stm32f0xx_hal_uart.c **** /**
1581:Drivers/STM32F0xx_HAL_Driver/Src/stm32f0xx_hal_uart.c ****   * @brief Pause the DMA Transfer.
1582:Drivers/STM32F0xx_HAL_Driver/Src/stm32f0xx_hal_uart.c ****   * @param huart UART handle.
1583:Drivers/STM32F0xx_HAL_Driver/Src/stm32f0xx_hal_uart.c ****   * @retval HAL status
ARM GAS  /tmp/ccTcPcT8.s 			page 65


1584:Drivers/STM32F0xx_HAL_Driver/Src/stm32f0xx_hal_uart.c ****   */
1585:Drivers/STM32F0xx_HAL_Driver/Src/stm32f0xx_hal_uart.c **** HAL_StatusTypeDef HAL_UART_DMAPause(UART_HandleTypeDef *huart)
1586:Drivers/STM32F0xx_HAL_Driver/Src/stm32f0xx_hal_uart.c **** {
 2087              		.loc 1 1586 1
 2088              		.cfi_startproc
 2089              		@ args = 0, pretend = 0, frame = 16
 2090              		@ frame_needed = 1, uses_anonymous_args = 0
 2091 0000 80B5     		push	{r7, lr}
 2092              	.LCFI36:
 2093              		.cfi_def_cfa_offset 8
 2094              		.cfi_offset 7, -8
 2095              		.cfi_offset 14, -4
 2096 0002 84B0     		sub	sp, sp, #16
 2097              	.LCFI37:
 2098              		.cfi_def_cfa_offset 24
 2099 0004 00AF     		add	r7, sp, #0
 2100              	.LCFI38:
 2101              		.cfi_def_cfa_register 7
 2102 0006 7860     		str	r0, [r7, #4]
1587:Drivers/STM32F0xx_HAL_Driver/Src/stm32f0xx_hal_uart.c ****   const HAL_UART_StateTypeDef gstate = huart->gState;
 2103              		.loc 1 1587 31
 2104 0008 7B68     		ldr	r3, [r7, #4]
 2105 000a 5B6F     		ldr	r3, [r3, #116]
 2106 000c FB60     		str	r3, [r7, #12]
1588:Drivers/STM32F0xx_HAL_Driver/Src/stm32f0xx_hal_uart.c ****   const HAL_UART_StateTypeDef rxstate = huart->RxState;
 2107              		.loc 1 1588 31
 2108 000e 7B68     		ldr	r3, [r7, #4]
 2109 0010 9B6F     		ldr	r3, [r3, #120]
 2110 0012 BB60     		str	r3, [r7, #8]
1589:Drivers/STM32F0xx_HAL_Driver/Src/stm32f0xx_hal_uart.c **** 
1590:Drivers/STM32F0xx_HAL_Driver/Src/stm32f0xx_hal_uart.c ****   __HAL_LOCK(huart);
 2111              		.loc 1 1590 3
 2112 0014 7B68     		ldr	r3, [r7, #4]
 2113 0016 7022     		movs	r2, #112
 2114 0018 9B5C     		ldrb	r3, [r3, r2]
 2115 001a 012B     		cmp	r3, #1
 2116 001c 01D1     		bne	.L115
 2117              		.loc 1 1590 3 is_stmt 0 discriminator 1
 2118 001e 0223     		movs	r3, #2
 2119              		.loc 1 1590 3
 2120 0020 3CE0     		b	.L116
 2121              	.L115:
 2122              		.loc 1 1590 3 discriminator 2
 2123 0022 7B68     		ldr	r3, [r7, #4]
 2124 0024 7022     		movs	r2, #112
 2125 0026 0121     		movs	r1, #1
 2126 0028 9954     		strb	r1, [r3, r2]
1591:Drivers/STM32F0xx_HAL_Driver/Src/stm32f0xx_hal_uart.c **** 
1592:Drivers/STM32F0xx_HAL_Driver/Src/stm32f0xx_hal_uart.c ****   if ((HAL_IS_BIT_SET(huart->Instance->CR3, USART_CR3_DMAT)) &&
 2127              		.loc 1 1592 8 is_stmt 1
 2128 002a 7B68     		ldr	r3, [r7, #4]
 2129 002c 1B68     		ldr	r3, [r3]
 2130 002e 9B68     		ldr	r3, [r3, #8]
 2131 0030 8022     		movs	r2, #128
 2132 0032 1340     		ands	r3, r2
 2133              		.loc 1 1592 6
 2134 0034 802B     		cmp	r3, #128
ARM GAS  /tmp/ccTcPcT8.s 			page 66


 2135 0036 0AD1     		bne	.L117
 2136              		.loc 1 1592 62 discriminator 1
 2137 0038 FB68     		ldr	r3, [r7, #12]
 2138 003a 212B     		cmp	r3, #33
 2139 003c 07D1     		bne	.L117
1593:Drivers/STM32F0xx_HAL_Driver/Src/stm32f0xx_hal_uart.c ****       (gstate == HAL_UART_STATE_BUSY_TX))
1594:Drivers/STM32F0xx_HAL_Driver/Src/stm32f0xx_hal_uart.c ****   {
1595:Drivers/STM32F0xx_HAL_Driver/Src/stm32f0xx_hal_uart.c ****     /* Disable the UART DMA Tx request */
1596:Drivers/STM32F0xx_HAL_Driver/Src/stm32f0xx_hal_uart.c ****     CLEAR_BIT(huart->Instance->CR3, USART_CR3_DMAT);
 2140              		.loc 1 1596 5
 2141 003e 7B68     		ldr	r3, [r7, #4]
 2142 0040 1B68     		ldr	r3, [r3]
 2143 0042 9A68     		ldr	r2, [r3, #8]
 2144 0044 7B68     		ldr	r3, [r7, #4]
 2145 0046 1B68     		ldr	r3, [r3]
 2146 0048 8021     		movs	r1, #128
 2147 004a 8A43     		bics	r2, r1
 2148 004c 9A60     		str	r2, [r3, #8]
 2149              	.L117:
1597:Drivers/STM32F0xx_HAL_Driver/Src/stm32f0xx_hal_uart.c ****   }
1598:Drivers/STM32F0xx_HAL_Driver/Src/stm32f0xx_hal_uart.c ****   if ((HAL_IS_BIT_SET(huart->Instance->CR3, USART_CR3_DMAR)) &&
 2150              		.loc 1 1598 8
 2151 004e 7B68     		ldr	r3, [r7, #4]
 2152 0050 1B68     		ldr	r3, [r3]
 2153 0052 9B68     		ldr	r3, [r3, #8]
 2154 0054 4022     		movs	r2, #64
 2155 0056 1340     		ands	r3, r2
 2156              		.loc 1 1598 6
 2157 0058 402B     		cmp	r3, #64
 2158 005a 1AD1     		bne	.L118
 2159              		.loc 1 1598 62 discriminator 1
 2160 005c BB68     		ldr	r3, [r7, #8]
 2161 005e 222B     		cmp	r3, #34
 2162 0060 17D1     		bne	.L118
1599:Drivers/STM32F0xx_HAL_Driver/Src/stm32f0xx_hal_uart.c ****       (rxstate == HAL_UART_STATE_BUSY_RX))
1600:Drivers/STM32F0xx_HAL_Driver/Src/stm32f0xx_hal_uart.c ****   {
1601:Drivers/STM32F0xx_HAL_Driver/Src/stm32f0xx_hal_uart.c ****     /* Disable PE and ERR (Frame error, noise error, overrun error) interrupts */
1602:Drivers/STM32F0xx_HAL_Driver/Src/stm32f0xx_hal_uart.c ****     CLEAR_BIT(huart->Instance->CR1, USART_CR1_PEIE);
 2163              		.loc 1 1602 5
 2164 0062 7B68     		ldr	r3, [r7, #4]
 2165 0064 1B68     		ldr	r3, [r3]
 2166 0066 1A68     		ldr	r2, [r3]
 2167 0068 7B68     		ldr	r3, [r7, #4]
 2168 006a 1B68     		ldr	r3, [r3]
 2169 006c 0D49     		ldr	r1, .L119
 2170 006e 0A40     		ands	r2, r1
 2171 0070 1A60     		str	r2, [r3]
1603:Drivers/STM32F0xx_HAL_Driver/Src/stm32f0xx_hal_uart.c ****     CLEAR_BIT(huart->Instance->CR3, USART_CR3_EIE);
 2172              		.loc 1 1603 5
 2173 0072 7B68     		ldr	r3, [r7, #4]
 2174 0074 1B68     		ldr	r3, [r3]
 2175 0076 9A68     		ldr	r2, [r3, #8]
 2176 0078 7B68     		ldr	r3, [r7, #4]
 2177 007a 1B68     		ldr	r3, [r3]
 2178 007c 0121     		movs	r1, #1
 2179 007e 8A43     		bics	r2, r1
 2180 0080 9A60     		str	r2, [r3, #8]
ARM GAS  /tmp/ccTcPcT8.s 			page 67


1604:Drivers/STM32F0xx_HAL_Driver/Src/stm32f0xx_hal_uart.c **** 
1605:Drivers/STM32F0xx_HAL_Driver/Src/stm32f0xx_hal_uart.c ****     /* Disable the UART DMA Rx request */
1606:Drivers/STM32F0xx_HAL_Driver/Src/stm32f0xx_hal_uart.c ****     CLEAR_BIT(huart->Instance->CR3, USART_CR3_DMAR);
 2181              		.loc 1 1606 5
 2182 0082 7B68     		ldr	r3, [r7, #4]
 2183 0084 1B68     		ldr	r3, [r3]
 2184 0086 9A68     		ldr	r2, [r3, #8]
 2185 0088 7B68     		ldr	r3, [r7, #4]
 2186 008a 1B68     		ldr	r3, [r3]
 2187 008c 4021     		movs	r1, #64
 2188 008e 8A43     		bics	r2, r1
 2189 0090 9A60     		str	r2, [r3, #8]
 2190              	.L118:
1607:Drivers/STM32F0xx_HAL_Driver/Src/stm32f0xx_hal_uart.c ****   }
1608:Drivers/STM32F0xx_HAL_Driver/Src/stm32f0xx_hal_uart.c **** 
1609:Drivers/STM32F0xx_HAL_Driver/Src/stm32f0xx_hal_uart.c ****   __HAL_UNLOCK(huart);
 2191              		.loc 1 1609 3
 2192 0092 7B68     		ldr	r3, [r7, #4]
 2193 0094 7022     		movs	r2, #112
 2194 0096 0021     		movs	r1, #0
 2195 0098 9954     		strb	r1, [r3, r2]
1610:Drivers/STM32F0xx_HAL_Driver/Src/stm32f0xx_hal_uart.c **** 
1611:Drivers/STM32F0xx_HAL_Driver/Src/stm32f0xx_hal_uart.c ****   return HAL_OK;
 2196              		.loc 1 1611 10
 2197 009a 0023     		movs	r3, #0
 2198              	.L116:
1612:Drivers/STM32F0xx_HAL_Driver/Src/stm32f0xx_hal_uart.c **** }
 2199              		.loc 1 1612 1
 2200 009c 1800     		movs	r0, r3
 2201 009e BD46     		mov	sp, r7
 2202 00a0 04B0     		add	sp, sp, #16
 2203              		@ sp needed
 2204 00a2 80BD     		pop	{r7, pc}
 2205              	.L120:
 2206              		.align	2
 2207              	.L119:
 2208 00a4 FFFEFFFF 		.word	-257
 2209              		.cfi_endproc
 2210              	.LFE52:
 2212              		.section	.text.HAL_UART_DMAResume,"ax",%progbits
 2213              		.align	1
 2214              		.global	HAL_UART_DMAResume
 2215              		.syntax unified
 2216              		.code	16
 2217              		.thumb_func
 2219              	HAL_UART_DMAResume:
 2220              	.LFB53:
1613:Drivers/STM32F0xx_HAL_Driver/Src/stm32f0xx_hal_uart.c **** 
1614:Drivers/STM32F0xx_HAL_Driver/Src/stm32f0xx_hal_uart.c **** /**
1615:Drivers/STM32F0xx_HAL_Driver/Src/stm32f0xx_hal_uart.c ****   * @brief Resume the DMA Transfer.
1616:Drivers/STM32F0xx_HAL_Driver/Src/stm32f0xx_hal_uart.c ****   * @param huart UART handle.
1617:Drivers/STM32F0xx_HAL_Driver/Src/stm32f0xx_hal_uart.c ****   * @retval HAL status
1618:Drivers/STM32F0xx_HAL_Driver/Src/stm32f0xx_hal_uart.c ****   */
1619:Drivers/STM32F0xx_HAL_Driver/Src/stm32f0xx_hal_uart.c **** HAL_StatusTypeDef HAL_UART_DMAResume(UART_HandleTypeDef *huart)
1620:Drivers/STM32F0xx_HAL_Driver/Src/stm32f0xx_hal_uart.c **** {
 2221              		.loc 1 1620 1
 2222              		.cfi_startproc
ARM GAS  /tmp/ccTcPcT8.s 			page 68


 2223              		@ args = 0, pretend = 0, frame = 8
 2224              		@ frame_needed = 1, uses_anonymous_args = 0
 2225 0000 80B5     		push	{r7, lr}
 2226              	.LCFI39:
 2227              		.cfi_def_cfa_offset 8
 2228              		.cfi_offset 7, -8
 2229              		.cfi_offset 14, -4
 2230 0002 82B0     		sub	sp, sp, #8
 2231              	.LCFI40:
 2232              		.cfi_def_cfa_offset 16
 2233 0004 00AF     		add	r7, sp, #0
 2234              	.LCFI41:
 2235              		.cfi_def_cfa_register 7
 2236 0006 7860     		str	r0, [r7, #4]
1621:Drivers/STM32F0xx_HAL_Driver/Src/stm32f0xx_hal_uart.c ****   __HAL_LOCK(huart);
 2237              		.loc 1 1621 3
 2238 0008 7B68     		ldr	r3, [r7, #4]
 2239 000a 7022     		movs	r2, #112
 2240 000c 9B5C     		ldrb	r3, [r3, r2]
 2241 000e 012B     		cmp	r3, #1
 2242 0010 01D1     		bne	.L122
 2243              		.loc 1 1621 3 is_stmt 0 discriminator 1
 2244 0012 0223     		movs	r3, #2
 2245              		.loc 1 1621 3
 2246 0014 35E0     		b	.L123
 2247              	.L122:
 2248              		.loc 1 1621 3 discriminator 2
 2249 0016 7B68     		ldr	r3, [r7, #4]
 2250 0018 7022     		movs	r2, #112
 2251 001a 0121     		movs	r1, #1
 2252 001c 9954     		strb	r1, [r3, r2]
1622:Drivers/STM32F0xx_HAL_Driver/Src/stm32f0xx_hal_uart.c **** 
1623:Drivers/STM32F0xx_HAL_Driver/Src/stm32f0xx_hal_uart.c ****   if (huart->gState == HAL_UART_STATE_BUSY_TX)
 2253              		.loc 1 1623 12 is_stmt 1
 2254 001e 7B68     		ldr	r3, [r7, #4]
 2255 0020 5B6F     		ldr	r3, [r3, #116]
 2256              		.loc 1 1623 6
 2257 0022 212B     		cmp	r3, #33
 2258 0024 07D1     		bne	.L124
1624:Drivers/STM32F0xx_HAL_Driver/Src/stm32f0xx_hal_uart.c ****   {
1625:Drivers/STM32F0xx_HAL_Driver/Src/stm32f0xx_hal_uart.c ****     /* Enable the UART DMA Tx request */
1626:Drivers/STM32F0xx_HAL_Driver/Src/stm32f0xx_hal_uart.c ****     SET_BIT(huart->Instance->CR3, USART_CR3_DMAT);
 2259              		.loc 1 1626 5
 2260 0026 7B68     		ldr	r3, [r7, #4]
 2261 0028 1B68     		ldr	r3, [r3]
 2262 002a 9A68     		ldr	r2, [r3, #8]
 2263 002c 7B68     		ldr	r3, [r7, #4]
 2264 002e 1B68     		ldr	r3, [r3]
 2265 0030 8021     		movs	r1, #128
 2266 0032 0A43     		orrs	r2, r1
 2267 0034 9A60     		str	r2, [r3, #8]
 2268              	.L124:
1627:Drivers/STM32F0xx_HAL_Driver/Src/stm32f0xx_hal_uart.c ****   }
1628:Drivers/STM32F0xx_HAL_Driver/Src/stm32f0xx_hal_uart.c ****   if (huart->RxState == HAL_UART_STATE_BUSY_RX)
 2269              		.loc 1 1628 12
 2270 0036 7B68     		ldr	r3, [r7, #4]
 2271 0038 9B6F     		ldr	r3, [r3, #120]
ARM GAS  /tmp/ccTcPcT8.s 			page 69


 2272              		.loc 1 1628 6
 2273 003a 222B     		cmp	r3, #34
 2274 003c 1CD1     		bne	.L125
1629:Drivers/STM32F0xx_HAL_Driver/Src/stm32f0xx_hal_uart.c ****   {
1630:Drivers/STM32F0xx_HAL_Driver/Src/stm32f0xx_hal_uart.c ****     /* Clear the Overrun flag before resuming the Rx transfer */
1631:Drivers/STM32F0xx_HAL_Driver/Src/stm32f0xx_hal_uart.c ****     __HAL_UART_CLEAR_FLAG(huart, UART_CLEAR_OREF);
 2275              		.loc 1 1631 5
 2276 003e 7B68     		ldr	r3, [r7, #4]
 2277 0040 1B68     		ldr	r3, [r3]
 2278 0042 0822     		movs	r2, #8
 2279 0044 1A62     		str	r2, [r3, #32]
1632:Drivers/STM32F0xx_HAL_Driver/Src/stm32f0xx_hal_uart.c **** 
1633:Drivers/STM32F0xx_HAL_Driver/Src/stm32f0xx_hal_uart.c ****     /* Reenable PE and ERR (Frame error, noise error, overrun error) interrupts */
1634:Drivers/STM32F0xx_HAL_Driver/Src/stm32f0xx_hal_uart.c ****     SET_BIT(huart->Instance->CR1, USART_CR1_PEIE);
 2280              		.loc 1 1634 5
 2281 0046 7B68     		ldr	r3, [r7, #4]
 2282 0048 1B68     		ldr	r3, [r3]
 2283 004a 1A68     		ldr	r2, [r3]
 2284 004c 7B68     		ldr	r3, [r7, #4]
 2285 004e 1B68     		ldr	r3, [r3]
 2286 0050 8021     		movs	r1, #128
 2287 0052 4900     		lsls	r1, r1, #1
 2288 0054 0A43     		orrs	r2, r1
 2289 0056 1A60     		str	r2, [r3]
1635:Drivers/STM32F0xx_HAL_Driver/Src/stm32f0xx_hal_uart.c ****     SET_BIT(huart->Instance->CR3, USART_CR3_EIE);
 2290              		.loc 1 1635 5
 2291 0058 7B68     		ldr	r3, [r7, #4]
 2292 005a 1B68     		ldr	r3, [r3]
 2293 005c 9A68     		ldr	r2, [r3, #8]
 2294 005e 7B68     		ldr	r3, [r7, #4]
 2295 0060 1B68     		ldr	r3, [r3]
 2296 0062 0121     		movs	r1, #1
 2297 0064 0A43     		orrs	r2, r1
 2298 0066 9A60     		str	r2, [r3, #8]
1636:Drivers/STM32F0xx_HAL_Driver/Src/stm32f0xx_hal_uart.c **** 
1637:Drivers/STM32F0xx_HAL_Driver/Src/stm32f0xx_hal_uart.c ****     /* Enable the UART DMA Rx request */
1638:Drivers/STM32F0xx_HAL_Driver/Src/stm32f0xx_hal_uart.c ****     SET_BIT(huart->Instance->CR3, USART_CR3_DMAR);
 2299              		.loc 1 1638 5
 2300 0068 7B68     		ldr	r3, [r7, #4]
 2301 006a 1B68     		ldr	r3, [r3]
 2302 006c 9A68     		ldr	r2, [r3, #8]
 2303 006e 7B68     		ldr	r3, [r7, #4]
 2304 0070 1B68     		ldr	r3, [r3]
 2305 0072 4021     		movs	r1, #64
 2306 0074 0A43     		orrs	r2, r1
 2307 0076 9A60     		str	r2, [r3, #8]
 2308              	.L125:
1639:Drivers/STM32F0xx_HAL_Driver/Src/stm32f0xx_hal_uart.c ****   }
1640:Drivers/STM32F0xx_HAL_Driver/Src/stm32f0xx_hal_uart.c **** 
1641:Drivers/STM32F0xx_HAL_Driver/Src/stm32f0xx_hal_uart.c ****   __HAL_UNLOCK(huart);
 2309              		.loc 1 1641 3
 2310 0078 7B68     		ldr	r3, [r7, #4]
 2311 007a 7022     		movs	r2, #112
 2312 007c 0021     		movs	r1, #0
 2313 007e 9954     		strb	r1, [r3, r2]
1642:Drivers/STM32F0xx_HAL_Driver/Src/stm32f0xx_hal_uart.c **** 
1643:Drivers/STM32F0xx_HAL_Driver/Src/stm32f0xx_hal_uart.c ****   return HAL_OK;
ARM GAS  /tmp/ccTcPcT8.s 			page 70


 2314              		.loc 1 1643 10
 2315 0080 0023     		movs	r3, #0
 2316              	.L123:
1644:Drivers/STM32F0xx_HAL_Driver/Src/stm32f0xx_hal_uart.c **** }
 2317              		.loc 1 1644 1
 2318 0082 1800     		movs	r0, r3
 2319 0084 BD46     		mov	sp, r7
 2320 0086 02B0     		add	sp, sp, #8
 2321              		@ sp needed
 2322 0088 80BD     		pop	{r7, pc}
 2323              		.cfi_endproc
 2324              	.LFE53:
 2326              		.section	.text.HAL_UART_DMAStop,"ax",%progbits
 2327              		.align	1
 2328              		.global	HAL_UART_DMAStop
 2329              		.syntax unified
 2330              		.code	16
 2331              		.thumb_func
 2333              	HAL_UART_DMAStop:
 2334              	.LFB54:
1645:Drivers/STM32F0xx_HAL_Driver/Src/stm32f0xx_hal_uart.c **** 
1646:Drivers/STM32F0xx_HAL_Driver/Src/stm32f0xx_hal_uart.c **** /**
1647:Drivers/STM32F0xx_HAL_Driver/Src/stm32f0xx_hal_uart.c ****   * @brief Stop the DMA Transfer.
1648:Drivers/STM32F0xx_HAL_Driver/Src/stm32f0xx_hal_uart.c ****   * @param huart UART handle.
1649:Drivers/STM32F0xx_HAL_Driver/Src/stm32f0xx_hal_uart.c ****   * @retval HAL status
1650:Drivers/STM32F0xx_HAL_Driver/Src/stm32f0xx_hal_uart.c ****   */
