ARM GAS  /tmp/ccVMOeEl.s 			page 1


   1              		.cpu cortex-m0
   2              		.arch armv6s-m
   3              		.fpu softvfp
   4              		.eabi_attribute 20, 1
   5              		.eabi_attribute 21, 1
   6              		.eabi_attribute 23, 3
   7              		.eabi_attribute 24, 1
   8              		.eabi_attribute 25, 1
   9              		.eabi_attribute 26, 1
  10              		.eabi_attribute 30, 6
  11              		.eabi_attribute 34, 0
  12              		.eabi_attribute 18, 4
  13              		.file	"stm32f0xx_hal_i2c.c"
  14              		.text
  15              	.Ltext0:
  16              		.cfi_sections	.debug_frame
  17              		.file 1 "Drivers/STM32F0xx_HAL_Driver/Src/stm32f0xx_hal_i2c.c"
  18              		.section	.text.HAL_I2C_Init,"ax",%progbits
  19              		.align	1
  20              		.global	HAL_I2C_Init
  21              		.syntax unified
  22              		.code	16
  23              		.thumb_func
  25              	HAL_I2C_Init:
  26              	.LFB40:
   1:Drivers/STM32F0xx_HAL_Driver/Src/stm32f0xx_hal_i2c.c **** /**
   2:Drivers/STM32F0xx_HAL_Driver/Src/stm32f0xx_hal_i2c.c ****   ******************************************************************************
   3:Drivers/STM32F0xx_HAL_Driver/Src/stm32f0xx_hal_i2c.c ****   * @file    stm32f0xx_hal_i2c.c
   4:Drivers/STM32F0xx_HAL_Driver/Src/stm32f0xx_hal_i2c.c ****   * @author  MCD Application Team
   5:Drivers/STM32F0xx_HAL_Driver/Src/stm32f0xx_hal_i2c.c ****   * @brief   I2C HAL module driver.
   6:Drivers/STM32F0xx_HAL_Driver/Src/stm32f0xx_hal_i2c.c ****   *          This file provides firmware functions to manage the following
   7:Drivers/STM32F0xx_HAL_Driver/Src/stm32f0xx_hal_i2c.c ****   *          functionalities of the Inter Integrated Circuit (I2C) peripheral:
   8:Drivers/STM32F0xx_HAL_Driver/Src/stm32f0xx_hal_i2c.c ****   *           + Initialization and de-initialization functions
   9:Drivers/STM32F0xx_HAL_Driver/Src/stm32f0xx_hal_i2c.c ****   *           + IO operation functions
  10:Drivers/STM32F0xx_HAL_Driver/Src/stm32f0xx_hal_i2c.c ****   *           + Peripheral State and Errors functions
  11:Drivers/STM32F0xx_HAL_Driver/Src/stm32f0xx_hal_i2c.c ****   *
  12:Drivers/STM32F0xx_HAL_Driver/Src/stm32f0xx_hal_i2c.c ****   @verbatim
  13:Drivers/STM32F0xx_HAL_Driver/Src/stm32f0xx_hal_i2c.c ****   ==============================================================================
  14:Drivers/STM32F0xx_HAL_Driver/Src/stm32f0xx_hal_i2c.c ****                         ##### How to use this driver #####
  15:Drivers/STM32F0xx_HAL_Driver/Src/stm32f0xx_hal_i2c.c ****   ==============================================================================
  16:Drivers/STM32F0xx_HAL_Driver/Src/stm32f0xx_hal_i2c.c ****     [..]
  17:Drivers/STM32F0xx_HAL_Driver/Src/stm32f0xx_hal_i2c.c ****     The I2C HAL driver can be used as follows:
  18:Drivers/STM32F0xx_HAL_Driver/Src/stm32f0xx_hal_i2c.c **** 
  19:Drivers/STM32F0xx_HAL_Driver/Src/stm32f0xx_hal_i2c.c ****     (#) Declare a I2C_HandleTypeDef handle structure, for example:
  20:Drivers/STM32F0xx_HAL_Driver/Src/stm32f0xx_hal_i2c.c ****         I2C_HandleTypeDef  hi2c;
  21:Drivers/STM32F0xx_HAL_Driver/Src/stm32f0xx_hal_i2c.c **** 
  22:Drivers/STM32F0xx_HAL_Driver/Src/stm32f0xx_hal_i2c.c ****     (#)Initialize the I2C low level resources by implementing the @ref HAL_I2C_MspInit() API:
  23:Drivers/STM32F0xx_HAL_Driver/Src/stm32f0xx_hal_i2c.c ****         (##) Enable the I2Cx interface clock
  24:Drivers/STM32F0xx_HAL_Driver/Src/stm32f0xx_hal_i2c.c ****         (##) I2C pins configuration
  25:Drivers/STM32F0xx_HAL_Driver/Src/stm32f0xx_hal_i2c.c ****             (+++) Enable the clock for the I2C GPIOs
  26:Drivers/STM32F0xx_HAL_Driver/Src/stm32f0xx_hal_i2c.c ****             (+++) Configure I2C pins as alternate function open-drain
  27:Drivers/STM32F0xx_HAL_Driver/Src/stm32f0xx_hal_i2c.c ****         (##) NVIC configuration if you need to use interrupt process
  28:Drivers/STM32F0xx_HAL_Driver/Src/stm32f0xx_hal_i2c.c ****             (+++) Configure the I2Cx interrupt priority
  29:Drivers/STM32F0xx_HAL_Driver/Src/stm32f0xx_hal_i2c.c ****             (+++) Enable the NVIC I2C IRQ Channel
  30:Drivers/STM32F0xx_HAL_Driver/Src/stm32f0xx_hal_i2c.c ****         (##) DMA Configuration if you need to use DMA process
  31:Drivers/STM32F0xx_HAL_Driver/Src/stm32f0xx_hal_i2c.c ****             (+++) Declare a DMA_HandleTypeDef handle structure for the transmit or receive channel
  32:Drivers/STM32F0xx_HAL_Driver/Src/stm32f0xx_hal_i2c.c ****             (+++) Enable the DMAx interface clock using
ARM GAS  /tmp/ccVMOeEl.s 			page 2


  33:Drivers/STM32F0xx_HAL_Driver/Src/stm32f0xx_hal_i2c.c ****             (+++) Configure the DMA handle parameters
  34:Drivers/STM32F0xx_HAL_Driver/Src/stm32f0xx_hal_i2c.c ****             (+++) Configure the DMA Tx or Rx channel
  35:Drivers/STM32F0xx_HAL_Driver/Src/stm32f0xx_hal_i2c.c ****             (+++) Associate the initialized DMA handle to the hi2c DMA Tx or Rx handle
  36:Drivers/STM32F0xx_HAL_Driver/Src/stm32f0xx_hal_i2c.c ****             (+++) Configure the priority and enable the NVIC for the transfer complete interrupt on
  37:Drivers/STM32F0xx_HAL_Driver/Src/stm32f0xx_hal_i2c.c ****                   the DMA Tx or Rx channel
  38:Drivers/STM32F0xx_HAL_Driver/Src/stm32f0xx_hal_i2c.c **** 
  39:Drivers/STM32F0xx_HAL_Driver/Src/stm32f0xx_hal_i2c.c ****     (#) Configure the Communication Clock Timing, Own Address1, Master Addressing mode, Dual Addres
  40:Drivers/STM32F0xx_HAL_Driver/Src/stm32f0xx_hal_i2c.c ****         Own Address2, Own Address2 Mask, General call and Nostretch mode in the hi2c Init structure
  41:Drivers/STM32F0xx_HAL_Driver/Src/stm32f0xx_hal_i2c.c **** 
  42:Drivers/STM32F0xx_HAL_Driver/Src/stm32f0xx_hal_i2c.c ****     (#) Initialize the I2C registers by calling the @ref HAL_I2C_Init(), configures also the low le
  43:Drivers/STM32F0xx_HAL_Driver/Src/stm32f0xx_hal_i2c.c ****         (GPIO, CLOCK, NVIC...etc) by calling the customized @ref HAL_I2C_MspInit(&hi2c) API.
  44:Drivers/STM32F0xx_HAL_Driver/Src/stm32f0xx_hal_i2c.c **** 
  45:Drivers/STM32F0xx_HAL_Driver/Src/stm32f0xx_hal_i2c.c ****     (#) To check if target device is ready for communication, use the function @ref HAL_I2C_IsDevic
  46:Drivers/STM32F0xx_HAL_Driver/Src/stm32f0xx_hal_i2c.c **** 
  47:Drivers/STM32F0xx_HAL_Driver/Src/stm32f0xx_hal_i2c.c ****     (#) For I2C IO and IO MEM operations, three operation modes are available within this driver :
  48:Drivers/STM32F0xx_HAL_Driver/Src/stm32f0xx_hal_i2c.c **** 
  49:Drivers/STM32F0xx_HAL_Driver/Src/stm32f0xx_hal_i2c.c ****     *** Polling mode IO operation ***
  50:Drivers/STM32F0xx_HAL_Driver/Src/stm32f0xx_hal_i2c.c ****     =================================
  51:Drivers/STM32F0xx_HAL_Driver/Src/stm32f0xx_hal_i2c.c ****     [..]
  52:Drivers/STM32F0xx_HAL_Driver/Src/stm32f0xx_hal_i2c.c ****       (+) Transmit in master mode an amount of data in blocking mode using @ref HAL_I2C_Master_Tran
  53:Drivers/STM32F0xx_HAL_Driver/Src/stm32f0xx_hal_i2c.c ****       (+) Receive in master mode an amount of data in blocking mode using @ref HAL_I2C_Master_Recei
  54:Drivers/STM32F0xx_HAL_Driver/Src/stm32f0xx_hal_i2c.c ****       (+) Transmit in slave mode an amount of data in blocking mode using @ref HAL_I2C_Slave_Transm
  55:Drivers/STM32F0xx_HAL_Driver/Src/stm32f0xx_hal_i2c.c ****       (+) Receive in slave mode an amount of data in blocking mode using @ref HAL_I2C_Slave_Receive
  56:Drivers/STM32F0xx_HAL_Driver/Src/stm32f0xx_hal_i2c.c **** 
  57:Drivers/STM32F0xx_HAL_Driver/Src/stm32f0xx_hal_i2c.c ****     *** Polling mode IO MEM operation ***
  58:Drivers/STM32F0xx_HAL_Driver/Src/stm32f0xx_hal_i2c.c ****     =====================================
  59:Drivers/STM32F0xx_HAL_Driver/Src/stm32f0xx_hal_i2c.c ****     [..]
  60:Drivers/STM32F0xx_HAL_Driver/Src/stm32f0xx_hal_i2c.c ****       (+) Write an amount of data in blocking mode to a specific memory address using @ref HAL_I2C_
  61:Drivers/STM32F0xx_HAL_Driver/Src/stm32f0xx_hal_i2c.c ****       (+) Read an amount of data in blocking mode from a specific memory address using @ref HAL_I2C
  62:Drivers/STM32F0xx_HAL_Driver/Src/stm32f0xx_hal_i2c.c **** 
  63:Drivers/STM32F0xx_HAL_Driver/Src/stm32f0xx_hal_i2c.c **** 
  64:Drivers/STM32F0xx_HAL_Driver/Src/stm32f0xx_hal_i2c.c ****     *** Interrupt mode IO operation ***
  65:Drivers/STM32F0xx_HAL_Driver/Src/stm32f0xx_hal_i2c.c ****     ===================================
  66:Drivers/STM32F0xx_HAL_Driver/Src/stm32f0xx_hal_i2c.c ****     [..]
  67:Drivers/STM32F0xx_HAL_Driver/Src/stm32f0xx_hal_i2c.c ****       (+) Transmit in master mode an amount of data in non-blocking mode using @ref HAL_I2C_Master_
  68:Drivers/STM32F0xx_HAL_Driver/Src/stm32f0xx_hal_i2c.c ****       (+) At transmission end of transfer, @ref HAL_I2C_MasterTxCpltCallback() is executed and user
  69:Drivers/STM32F0xx_HAL_Driver/Src/stm32f0xx_hal_i2c.c ****            add his own code by customization of function pointer @ref HAL_I2C_MasterTxCpltCallback(
  70:Drivers/STM32F0xx_HAL_Driver/Src/stm32f0xx_hal_i2c.c ****       (+) Receive in master mode an amount of data in non-blocking mode using @ref HAL_I2C_Master_R
  71:Drivers/STM32F0xx_HAL_Driver/Src/stm32f0xx_hal_i2c.c ****       (+) At reception end of transfer, @ref HAL_I2C_MasterRxCpltCallback() is executed and user ca
  72:Drivers/STM32F0xx_HAL_Driver/Src/stm32f0xx_hal_i2c.c ****            add his own code by customization of function pointer @ref HAL_I2C_MasterRxCpltCallback(
  73:Drivers/STM32F0xx_HAL_Driver/Src/stm32f0xx_hal_i2c.c ****       (+) Transmit in slave mode an amount of data in non-blocking mode using @ref HAL_I2C_Slave_Tr
  74:Drivers/STM32F0xx_HAL_Driver/Src/stm32f0xx_hal_i2c.c ****       (+) At transmission end of transfer, @ref HAL_I2C_SlaveTxCpltCallback() is executed and user 
  75:Drivers/STM32F0xx_HAL_Driver/Src/stm32f0xx_hal_i2c.c ****            add his own code by customization of function pointer @ref HAL_I2C_SlaveTxCpltCallback()
  76:Drivers/STM32F0xx_HAL_Driver/Src/stm32f0xx_hal_i2c.c ****       (+) Receive in slave mode an amount of data in non-blocking mode using @ref HAL_I2C_Slave_Rec
  77:Drivers/STM32F0xx_HAL_Driver/Src/stm32f0xx_hal_i2c.c ****       (+) At reception end of transfer, @ref HAL_I2C_SlaveRxCpltCallback() is executed and user can
  78:Drivers/STM32F0xx_HAL_Driver/Src/stm32f0xx_hal_i2c.c ****            add his own code by customization of function pointer @ref HAL_I2C_SlaveRxCpltCallback()
  79:Drivers/STM32F0xx_HAL_Driver/Src/stm32f0xx_hal_i2c.c ****       (+) In case of transfer Error, @ref HAL_I2C_ErrorCallback() function is executed and user can
  80:Drivers/STM32F0xx_HAL_Driver/Src/stm32f0xx_hal_i2c.c ****            add his own code by customization of function pointer @ref HAL_I2C_ErrorCallback()
  81:Drivers/STM32F0xx_HAL_Driver/Src/stm32f0xx_hal_i2c.c ****       (+) Abort a master I2C process communication with Interrupt using @ref HAL_I2C_Master_Abort_I
  82:Drivers/STM32F0xx_HAL_Driver/Src/stm32f0xx_hal_i2c.c ****       (+) End of abort process, @ref HAL_I2C_AbortCpltCallback() is executed and user can
  83:Drivers/STM32F0xx_HAL_Driver/Src/stm32f0xx_hal_i2c.c ****            add his own code by customization of function pointer @ref HAL_I2C_AbortCpltCallback()
  84:Drivers/STM32F0xx_HAL_Driver/Src/stm32f0xx_hal_i2c.c ****       (+) Discard a slave I2C process communication using @ref __HAL_I2C_GENERATE_NACK() macro.
  85:Drivers/STM32F0xx_HAL_Driver/Src/stm32f0xx_hal_i2c.c ****            This action will inform Master to generate a Stop condition to discard the communication
  86:Drivers/STM32F0xx_HAL_Driver/Src/stm32f0xx_hal_i2c.c **** 
  87:Drivers/STM32F0xx_HAL_Driver/Src/stm32f0xx_hal_i2c.c **** 
  88:Drivers/STM32F0xx_HAL_Driver/Src/stm32f0xx_hal_i2c.c ****     *** Interrupt mode or DMA mode IO sequential operation ***
  89:Drivers/STM32F0xx_HAL_Driver/Src/stm32f0xx_hal_i2c.c ****     ==========================================================
ARM GAS  /tmp/ccVMOeEl.s 			page 3


  90:Drivers/STM32F0xx_HAL_Driver/Src/stm32f0xx_hal_i2c.c ****     [..]
  91:Drivers/STM32F0xx_HAL_Driver/Src/stm32f0xx_hal_i2c.c ****       (@) These interfaces allow to manage a sequential transfer with a repeated start condition
  92:Drivers/STM32F0xx_HAL_Driver/Src/stm32f0xx_hal_i2c.c ****           when a direction change during transfer
  93:Drivers/STM32F0xx_HAL_Driver/Src/stm32f0xx_hal_i2c.c ****     [..]
  94:Drivers/STM32F0xx_HAL_Driver/Src/stm32f0xx_hal_i2c.c ****       (+) A specific option field manage the different steps of a sequential transfer
  95:Drivers/STM32F0xx_HAL_Driver/Src/stm32f0xx_hal_i2c.c ****       (+) Option field values are defined through @ref I2C_XFEROPTIONS and are listed below:
  96:Drivers/STM32F0xx_HAL_Driver/Src/stm32f0xx_hal_i2c.c ****       (++) I2C_FIRST_AND_LAST_FRAME: No sequential usage, functionnal is same as associated interfa
  97:Drivers/STM32F0xx_HAL_Driver/Src/stm32f0xx_hal_i2c.c ****       (++) I2C_FIRST_FRAME: Sequential usage, this option allow to manage a sequence with start con
  98:Drivers/STM32F0xx_HAL_Driver/Src/stm32f0xx_hal_i2c.c ****                             and data to transfer without a final stop condition
  99:Drivers/STM32F0xx_HAL_Driver/Src/stm32f0xx_hal_i2c.c ****       (++) I2C_FIRST_AND_NEXT_FRAME: Sequential usage (Master only), this option allow to manage a 
 100:Drivers/STM32F0xx_HAL_Driver/Src/stm32f0xx_hal_i2c.c ****                             and data to transfer without a final stop condition, an then permit a c
 101:Drivers/STM32F0xx_HAL_Driver/Src/stm32f0xx_hal_i2c.c ****                             several times (like @ref HAL_I2C_Master_Seq_Transmit_IT() then @ref HAL
 102:Drivers/STM32F0xx_HAL_Driver/Src/stm32f0xx_hal_i2c.c ****                             or @ref HAL_I2C_Master_Seq_Transmit_DMA() then @ref HAL_I2C_Master_Seq_
 103:Drivers/STM32F0xx_HAL_Driver/Src/stm32f0xx_hal_i2c.c ****       (++) I2C_NEXT_FRAME: Sequential usage, this option allow to manage a sequence with a restart 
 104:Drivers/STM32F0xx_HAL_Driver/Src/stm32f0xx_hal_i2c.c ****                             and with new data to transfer if the direction change or manage only th
 105:Drivers/STM32F0xx_HAL_Driver/Src/stm32f0xx_hal_i2c.c ****                             if no direction change and without a final stop condition in both cases
 106:Drivers/STM32F0xx_HAL_Driver/Src/stm32f0xx_hal_i2c.c ****       (++) I2C_LAST_FRAME: Sequential usage, this option allow to manage a sequance with a restart 
 107:Drivers/STM32F0xx_HAL_Driver/Src/stm32f0xx_hal_i2c.c ****                             and with new data to transfer if the direction change or manage only th
 108:Drivers/STM32F0xx_HAL_Driver/Src/stm32f0xx_hal_i2c.c ****                             if no direction change and with a final stop condition in both cases
 109:Drivers/STM32F0xx_HAL_Driver/Src/stm32f0xx_hal_i2c.c ****       (++) I2C_LAST_FRAME_NO_STOP: Sequential usage (Master only), this option allow to manage a re
 110:Drivers/STM32F0xx_HAL_Driver/Src/stm32f0xx_hal_i2c.c ****                             interface several times (link with option I2C_FIRST_AND_NEXT_FRAME).
 111:Drivers/STM32F0xx_HAL_Driver/Src/stm32f0xx_hal_i2c.c ****                             Usage can, transfer several bytes one by one using HAL_I2C_Master_Seq_T
 112:Drivers/STM32F0xx_HAL_Driver/Src/stm32f0xx_hal_i2c.c ****                               or HAL_I2C_Master_Seq_Receive_IT(option I2C_FIRST_AND_NEXT_FRAME then
 113:Drivers/STM32F0xx_HAL_Driver/Src/stm32f0xx_hal_i2c.c ****                               or HAL_I2C_Master_Seq_Transmit_DMA(option I2C_FIRST_AND_NEXT_FRAME th
 114:Drivers/STM32F0xx_HAL_Driver/Src/stm32f0xx_hal_i2c.c ****                               or HAL_I2C_Master_Seq_Receive_DMA(option I2C_FIRST_AND_NEXT_FRAME the
 115:Drivers/STM32F0xx_HAL_Driver/Src/stm32f0xx_hal_i2c.c ****                             Then usage of this option I2C_LAST_FRAME_NO_STOP at the last Transmit o
 116:Drivers/STM32F0xx_HAL_Driver/Src/stm32f0xx_hal_i2c.c ****                               without stopping the communication and so generate a restart conditio
 117:Drivers/STM32F0xx_HAL_Driver/Src/stm32f0xx_hal_i2c.c ****       (++) I2C_OTHER_FRAME: Sequential usage (Master only), this option allow to manage a restart c
 118:Drivers/STM32F0xx_HAL_Driver/Src/stm32f0xx_hal_i2c.c ****                             interface.
 119:Drivers/STM32F0xx_HAL_Driver/Src/stm32f0xx_hal_i2c.c ****                             Usage can, transfer several bytes one by one with a restart with slave 
 120:Drivers/STM32F0xx_HAL_Driver/Src/stm32f0xx_hal_i2c.c ****                               or HAL_I2C_Master_Seq_Receive_IT(option I2C_FIRST_FRAME then I2C_OTHE
 121:Drivers/STM32F0xx_HAL_Driver/Src/stm32f0xx_hal_i2c.c ****                               or HAL_I2C_Master_Seq_Transmit_DMA(option I2C_FIRST_FRAME then I2C_OT
 122:Drivers/STM32F0xx_HAL_Driver/Src/stm32f0xx_hal_i2c.c ****                               or HAL_I2C_Master_Seq_Receive_DMA(option I2C_FIRST_FRAME then I2C_OTH
 123:Drivers/STM32F0xx_HAL_Driver/Src/stm32f0xx_hal_i2c.c ****                             Then usage of this option I2C_OTHER_AND_LAST_FRAME at the last frame to
 124:Drivers/STM32F0xx_HAL_Driver/Src/stm32f0xx_hal_i2c.c **** 
 125:Drivers/STM32F0xx_HAL_Driver/Src/stm32f0xx_hal_i2c.c ****       (+) Differents sequential I2C interfaces are listed below:
 126:Drivers/STM32F0xx_HAL_Driver/Src/stm32f0xx_hal_i2c.c ****       (++) Sequential transmit in master I2C mode an amount of data in non-blocking mode using @ref
 127:Drivers/STM32F0xx_HAL_Driver/Src/stm32f0xx_hal_i2c.c ****             or using @ref HAL_I2C_Master_Seq_Transmit_DMA()
 128:Drivers/STM32F0xx_HAL_Driver/Src/stm32f0xx_hal_i2c.c ****       (+++) At transmission end of current frame transfer, @ref HAL_I2C_MasterTxCpltCallback() is e
 129:Drivers/STM32F0xx_HAL_Driver/Src/stm32f0xx_hal_i2c.c ****            add his own code by customization of function pointer @ref HAL_I2C_MasterTxCpltCallback(
 130:Drivers/STM32F0xx_HAL_Driver/Src/stm32f0xx_hal_i2c.c ****       (++) Sequential receive in master I2C mode an amount of data in non-blocking mode using @ref 
 131:Drivers/STM32F0xx_HAL_Driver/Src/stm32f0xx_hal_i2c.c ****             or using @ref HAL_I2C_Master_Seq_Receive_DMA()
 132:Drivers/STM32F0xx_HAL_Driver/Src/stm32f0xx_hal_i2c.c ****       (+++) At reception end of current frame transfer, @ref HAL_I2C_MasterRxCpltCallback() is exec
 133:Drivers/STM32F0xx_HAL_Driver/Src/stm32f0xx_hal_i2c.c ****            add his own code by customization of function pointer @ref HAL_I2C_MasterRxCpltCallback(
 134:Drivers/STM32F0xx_HAL_Driver/Src/stm32f0xx_hal_i2c.c ****       (++) Abort a master IT or DMA I2C process communication with Interrupt using @ref HAL_I2C_Mas
 135:Drivers/STM32F0xx_HAL_Driver/Src/stm32f0xx_hal_i2c.c ****       (+++) End of abort process, @ref HAL_I2C_AbortCpltCallback() is executed and user can
 136:Drivers/STM32F0xx_HAL_Driver/Src/stm32f0xx_hal_i2c.c ****            add his own code by customization of function pointer @ref HAL_I2C_AbortCpltCallback()
 137:Drivers/STM32F0xx_HAL_Driver/Src/stm32f0xx_hal_i2c.c ****       (++) Enable/disable the Address listen mode in slave I2C mode using @ref HAL_I2C_EnableListen
 138:Drivers/STM32F0xx_HAL_Driver/Src/stm32f0xx_hal_i2c.c ****       (+++) When address slave I2C match, @ref HAL_I2C_AddrCallback() is executed and user can
 139:Drivers/STM32F0xx_HAL_Driver/Src/stm32f0xx_hal_i2c.c ****            add his own code to check the Address Match Code and the transmission direction request 
 140:Drivers/STM32F0xx_HAL_Driver/Src/stm32f0xx_hal_i2c.c ****       (+++) At Listen mode end @ref HAL_I2C_ListenCpltCallback() is executed and user can
 141:Drivers/STM32F0xx_HAL_Driver/Src/stm32f0xx_hal_i2c.c ****            add his own code by customization of function pointer @ref HAL_I2C_ListenCpltCallback()
 142:Drivers/STM32F0xx_HAL_Driver/Src/stm32f0xx_hal_i2c.c ****       (++) Sequential transmit in slave I2C mode an amount of data in non-blocking mode using @ref 
 143:Drivers/STM32F0xx_HAL_Driver/Src/stm32f0xx_hal_i2c.c ****             or using @ref HAL_I2C_Slave_Seq_Transmit_DMA()
 144:Drivers/STM32F0xx_HAL_Driver/Src/stm32f0xx_hal_i2c.c ****       (+++) At transmission end of current frame transfer, @ref HAL_I2C_SlaveTxCpltCallback() is ex
 145:Drivers/STM32F0xx_HAL_Driver/Src/stm32f0xx_hal_i2c.c ****            add his own code by customization of function pointer @ref HAL_I2C_SlaveTxCpltCallback()
 146:Drivers/STM32F0xx_HAL_Driver/Src/stm32f0xx_hal_i2c.c ****       (++) Sequential receive in slave I2C mode an amount of data in non-blocking mode using @ref H
ARM GAS  /tmp/ccVMOeEl.s 			page 4


 147:Drivers/STM32F0xx_HAL_Driver/Src/stm32f0xx_hal_i2c.c ****             or using @ref HAL_I2C_Slave_Seq_Receive_DMA()
 148:Drivers/STM32F0xx_HAL_Driver/Src/stm32f0xx_hal_i2c.c ****       (+++) At reception end of current frame transfer, @ref HAL_I2C_SlaveRxCpltCallback() is execu
 149:Drivers/STM32F0xx_HAL_Driver/Src/stm32f0xx_hal_i2c.c ****            add his own code by customization of function pointer @ref HAL_I2C_SlaveRxCpltCallback()
 150:Drivers/STM32F0xx_HAL_Driver/Src/stm32f0xx_hal_i2c.c ****       (++) In case of transfer Error, @ref HAL_I2C_ErrorCallback() function is executed and user ca
 151:Drivers/STM32F0xx_HAL_Driver/Src/stm32f0xx_hal_i2c.c ****            add his own code by customization of function pointer @ref HAL_I2C_ErrorCallback()
 152:Drivers/STM32F0xx_HAL_Driver/Src/stm32f0xx_hal_i2c.c ****       (++) Discard a slave I2C process communication using @ref __HAL_I2C_GENERATE_NACK() macro.
 153:Drivers/STM32F0xx_HAL_Driver/Src/stm32f0xx_hal_i2c.c ****            This action will inform Master to generate a Stop condition to discard the communication
 154:Drivers/STM32F0xx_HAL_Driver/Src/stm32f0xx_hal_i2c.c **** 
 155:Drivers/STM32F0xx_HAL_Driver/Src/stm32f0xx_hal_i2c.c ****     *** Interrupt mode IO MEM operation ***
 156:Drivers/STM32F0xx_HAL_Driver/Src/stm32f0xx_hal_i2c.c ****     =======================================
 157:Drivers/STM32F0xx_HAL_Driver/Src/stm32f0xx_hal_i2c.c ****     [..]
 158:Drivers/STM32F0xx_HAL_Driver/Src/stm32f0xx_hal_i2c.c ****       (+) Write an amount of data in non-blocking mode with Interrupt to a specific memory address 
 159:Drivers/STM32F0xx_HAL_Driver/Src/stm32f0xx_hal_i2c.c ****           @ref HAL_I2C_Mem_Write_IT()
 160:Drivers/STM32F0xx_HAL_Driver/Src/stm32f0xx_hal_i2c.c ****       (+) At Memory end of write transfer, @ref HAL_I2C_MemTxCpltCallback() is executed and user ca
 161:Drivers/STM32F0xx_HAL_Driver/Src/stm32f0xx_hal_i2c.c ****            add his own code by customization of function pointer @ref HAL_I2C_MemTxCpltCallback()
 162:Drivers/STM32F0xx_HAL_Driver/Src/stm32f0xx_hal_i2c.c ****       (+) Read an amount of data in non-blocking mode with Interrupt from a specific memory address
 163:Drivers/STM32F0xx_HAL_Driver/Src/stm32f0xx_hal_i2c.c ****           @ref HAL_I2C_Mem_Read_IT()
 164:Drivers/STM32F0xx_HAL_Driver/Src/stm32f0xx_hal_i2c.c ****       (+) At Memory end of read transfer, @ref HAL_I2C_MemRxCpltCallback() is executed and user can
 165:Drivers/STM32F0xx_HAL_Driver/Src/stm32f0xx_hal_i2c.c ****            add his own code by customization of function pointer @ref HAL_I2C_MemRxCpltCallback()
 166:Drivers/STM32F0xx_HAL_Driver/Src/stm32f0xx_hal_i2c.c ****       (+) In case of transfer Error, @ref HAL_I2C_ErrorCallback() function is executed and user can
 167:Drivers/STM32F0xx_HAL_Driver/Src/stm32f0xx_hal_i2c.c ****            add his own code by customization of function pointer @ref HAL_I2C_ErrorCallback()
 168:Drivers/STM32F0xx_HAL_Driver/Src/stm32f0xx_hal_i2c.c **** 
 169:Drivers/STM32F0xx_HAL_Driver/Src/stm32f0xx_hal_i2c.c ****     *** DMA mode IO operation ***
 170:Drivers/STM32F0xx_HAL_Driver/Src/stm32f0xx_hal_i2c.c ****     ==============================
 171:Drivers/STM32F0xx_HAL_Driver/Src/stm32f0xx_hal_i2c.c ****     [..]
 172:Drivers/STM32F0xx_HAL_Driver/Src/stm32f0xx_hal_i2c.c ****       (+) Transmit in master mode an amount of data in non-blocking mode (DMA) using
 173:Drivers/STM32F0xx_HAL_Driver/Src/stm32f0xx_hal_i2c.c ****           @ref HAL_I2C_Master_Transmit_DMA()
 174:Drivers/STM32F0xx_HAL_Driver/Src/stm32f0xx_hal_i2c.c ****       (+) At transmission end of transfer, @ref HAL_I2C_MasterTxCpltCallback() is executed and user
 175:Drivers/STM32F0xx_HAL_Driver/Src/stm32f0xx_hal_i2c.c ****            add his own code by customization of function pointer @ref HAL_I2C_MasterTxCpltCallback(
 176:Drivers/STM32F0xx_HAL_Driver/Src/stm32f0xx_hal_i2c.c ****       (+) Receive in master mode an amount of data in non-blocking mode (DMA) using
 177:Drivers/STM32F0xx_HAL_Driver/Src/stm32f0xx_hal_i2c.c ****           @ref HAL_I2C_Master_Receive_DMA()
 178:Drivers/STM32F0xx_HAL_Driver/Src/stm32f0xx_hal_i2c.c ****       (+) At reception end of transfer, @ref HAL_I2C_MasterRxCpltCallback() is executed and user ca
 179:Drivers/STM32F0xx_HAL_Driver/Src/stm32f0xx_hal_i2c.c ****            add his own code by customization of function pointer @ref HAL_I2C_MasterRxCpltCallback(
 180:Drivers/STM32F0xx_HAL_Driver/Src/stm32f0xx_hal_i2c.c ****       (+) Transmit in slave mode an amount of data in non-blocking mode (DMA) using
 181:Drivers/STM32F0xx_HAL_Driver/Src/stm32f0xx_hal_i2c.c ****           @ref HAL_I2C_Slave_Transmit_DMA()
 182:Drivers/STM32F0xx_HAL_Driver/Src/stm32f0xx_hal_i2c.c ****       (+) At transmission end of transfer, @ref HAL_I2C_SlaveTxCpltCallback() is executed and user 
 183:Drivers/STM32F0xx_HAL_Driver/Src/stm32f0xx_hal_i2c.c ****            add his own code by customization of function pointer @ref HAL_I2C_SlaveTxCpltCallback()
 184:Drivers/STM32F0xx_HAL_Driver/Src/stm32f0xx_hal_i2c.c ****       (+) Receive in slave mode an amount of data in non-blocking mode (DMA) using
 185:Drivers/STM32F0xx_HAL_Driver/Src/stm32f0xx_hal_i2c.c ****           @ref HAL_I2C_Slave_Receive_DMA()
 186:Drivers/STM32F0xx_HAL_Driver/Src/stm32f0xx_hal_i2c.c ****       (+) At reception end of transfer, @ref HAL_I2C_SlaveRxCpltCallback() is executed and user can
 187:Drivers/STM32F0xx_HAL_Driver/Src/stm32f0xx_hal_i2c.c ****            add his own code by customization of function pointer @ref HAL_I2C_SlaveRxCpltCallback()
 188:Drivers/STM32F0xx_HAL_Driver/Src/stm32f0xx_hal_i2c.c ****       (+) In case of transfer Error, @ref HAL_I2C_ErrorCallback() function is executed and user can
 189:Drivers/STM32F0xx_HAL_Driver/Src/stm32f0xx_hal_i2c.c ****            add his own code by customization of function pointer @ref HAL_I2C_ErrorCallback()
 190:Drivers/STM32F0xx_HAL_Driver/Src/stm32f0xx_hal_i2c.c ****       (+) Abort a master I2C process communication with Interrupt using @ref HAL_I2C_Master_Abort_I
 191:Drivers/STM32F0xx_HAL_Driver/Src/stm32f0xx_hal_i2c.c ****       (+) End of abort process, @ref HAL_I2C_AbortCpltCallback() is executed and user can
 192:Drivers/STM32F0xx_HAL_Driver/Src/stm32f0xx_hal_i2c.c ****            add his own code by customization of function pointer @ref HAL_I2C_AbortCpltCallback()
 193:Drivers/STM32F0xx_HAL_Driver/Src/stm32f0xx_hal_i2c.c ****       (+) Discard a slave I2C process communication using @ref __HAL_I2C_GENERATE_NACK() macro.
 194:Drivers/STM32F0xx_HAL_Driver/Src/stm32f0xx_hal_i2c.c ****            This action will inform Master to generate a Stop condition to discard the communication
 195:Drivers/STM32F0xx_HAL_Driver/Src/stm32f0xx_hal_i2c.c **** 
 196:Drivers/STM32F0xx_HAL_Driver/Src/stm32f0xx_hal_i2c.c ****     *** DMA mode IO MEM operation ***
 197:Drivers/STM32F0xx_HAL_Driver/Src/stm32f0xx_hal_i2c.c ****     =================================
 198:Drivers/STM32F0xx_HAL_Driver/Src/stm32f0xx_hal_i2c.c ****     [..]
 199:Drivers/STM32F0xx_HAL_Driver/Src/stm32f0xx_hal_i2c.c ****       (+) Write an amount of data in non-blocking mode with DMA to a specific memory address using
 200:Drivers/STM32F0xx_HAL_Driver/Src/stm32f0xx_hal_i2c.c ****           @ref HAL_I2C_Mem_Write_DMA()
 201:Drivers/STM32F0xx_HAL_Driver/Src/stm32f0xx_hal_i2c.c ****       (+) At Memory end of write transfer, @ref HAL_I2C_MemTxCpltCallback() is executed and user ca
 202:Drivers/STM32F0xx_HAL_Driver/Src/stm32f0xx_hal_i2c.c ****            add his own code by customization of function pointer @ref HAL_I2C_MemTxCpltCallback()
 203:Drivers/STM32F0xx_HAL_Driver/Src/stm32f0xx_hal_i2c.c ****       (+) Read an amount of data in non-blocking mode with DMA from a specific memory address using
ARM GAS  /tmp/ccVMOeEl.s 			page 5


 204:Drivers/STM32F0xx_HAL_Driver/Src/stm32f0xx_hal_i2c.c ****           @ref HAL_I2C_Mem_Read_DMA()
 205:Drivers/STM32F0xx_HAL_Driver/Src/stm32f0xx_hal_i2c.c ****       (+) At Memory end of read transfer, @ref HAL_I2C_MemRxCpltCallback() is executed and user can
 206:Drivers/STM32F0xx_HAL_Driver/Src/stm32f0xx_hal_i2c.c ****            add his own code by customization of function pointer @ref HAL_I2C_MemRxCpltCallback()
 207:Drivers/STM32F0xx_HAL_Driver/Src/stm32f0xx_hal_i2c.c ****       (+) In case of transfer Error, @ref HAL_I2C_ErrorCallback() function is executed and user can
 208:Drivers/STM32F0xx_HAL_Driver/Src/stm32f0xx_hal_i2c.c ****            add his own code by customization of function pointer @ref HAL_I2C_ErrorCallback()
 209:Drivers/STM32F0xx_HAL_Driver/Src/stm32f0xx_hal_i2c.c **** 
 210:Drivers/STM32F0xx_HAL_Driver/Src/stm32f0xx_hal_i2c.c **** 
 211:Drivers/STM32F0xx_HAL_Driver/Src/stm32f0xx_hal_i2c.c ****      *** I2C HAL driver macros list ***
 212:Drivers/STM32F0xx_HAL_Driver/Src/stm32f0xx_hal_i2c.c ****      ==================================
 213:Drivers/STM32F0xx_HAL_Driver/Src/stm32f0xx_hal_i2c.c ****      [..]
 214:Drivers/STM32F0xx_HAL_Driver/Src/stm32f0xx_hal_i2c.c ****        Below the list of most used macros in I2C HAL driver.
 215:Drivers/STM32F0xx_HAL_Driver/Src/stm32f0xx_hal_i2c.c **** 
 216:Drivers/STM32F0xx_HAL_Driver/Src/stm32f0xx_hal_i2c.c ****       (+) @ref __HAL_I2C_ENABLE: Enable the I2C peripheral
 217:Drivers/STM32F0xx_HAL_Driver/Src/stm32f0xx_hal_i2c.c ****       (+) @ref __HAL_I2C_DISABLE: Disable the I2C peripheral
 218:Drivers/STM32F0xx_HAL_Driver/Src/stm32f0xx_hal_i2c.c ****       (+) @ref __HAL_I2C_GENERATE_NACK: Generate a Non-Acknowledge I2C peripheral in Slave mode
 219:Drivers/STM32F0xx_HAL_Driver/Src/stm32f0xx_hal_i2c.c ****       (+) @ref __HAL_I2C_GET_FLAG: Check whether the specified I2C flag is set or not
 220:Drivers/STM32F0xx_HAL_Driver/Src/stm32f0xx_hal_i2c.c ****       (+) @ref __HAL_I2C_CLEAR_FLAG: Clear the specified I2C pending flag
 221:Drivers/STM32F0xx_HAL_Driver/Src/stm32f0xx_hal_i2c.c ****       (+) @ref __HAL_I2C_ENABLE_IT: Enable the specified I2C interrupt
 222:Drivers/STM32F0xx_HAL_Driver/Src/stm32f0xx_hal_i2c.c ****       (+) @ref __HAL_I2C_DISABLE_IT: Disable the specified I2C interrupt
 223:Drivers/STM32F0xx_HAL_Driver/Src/stm32f0xx_hal_i2c.c **** 
 224:Drivers/STM32F0xx_HAL_Driver/Src/stm32f0xx_hal_i2c.c ****      *** Callback registration ***
 225:Drivers/STM32F0xx_HAL_Driver/Src/stm32f0xx_hal_i2c.c ****      =============================================
 226:Drivers/STM32F0xx_HAL_Driver/Src/stm32f0xx_hal_i2c.c ****     [..]
 227:Drivers/STM32F0xx_HAL_Driver/Src/stm32f0xx_hal_i2c.c ****      The compilation flag USE_HAL_I2C_REGISTER_CALLBACKS when set to 1
 228:Drivers/STM32F0xx_HAL_Driver/Src/stm32f0xx_hal_i2c.c ****      allows the user to configure dynamically the driver callbacks.
 229:Drivers/STM32F0xx_HAL_Driver/Src/stm32f0xx_hal_i2c.c ****      Use Functions @ref HAL_I2C_RegisterCallback() or @ref HAL_I2C_RegisterAddrCallback()
 230:Drivers/STM32F0xx_HAL_Driver/Src/stm32f0xx_hal_i2c.c ****      to register an interrupt callback.
 231:Drivers/STM32F0xx_HAL_Driver/Src/stm32f0xx_hal_i2c.c ****     [..]
 232:Drivers/STM32F0xx_HAL_Driver/Src/stm32f0xx_hal_i2c.c ****      Function @ref HAL_I2C_RegisterCallback() allows to register following callbacks:
 233:Drivers/STM32F0xx_HAL_Driver/Src/stm32f0xx_hal_i2c.c ****        (+) MasterTxCpltCallback : callback for Master transmission end of transfer.
 234:Drivers/STM32F0xx_HAL_Driver/Src/stm32f0xx_hal_i2c.c ****        (+) MasterRxCpltCallback : callback for Master reception end of transfer.
 235:Drivers/STM32F0xx_HAL_Driver/Src/stm32f0xx_hal_i2c.c ****        (+) SlaveTxCpltCallback  : callback for Slave transmission end of transfer.
 236:Drivers/STM32F0xx_HAL_Driver/Src/stm32f0xx_hal_i2c.c ****        (+) SlaveRxCpltCallback  : callback for Slave reception end of transfer.
 237:Drivers/STM32F0xx_HAL_Driver/Src/stm32f0xx_hal_i2c.c ****        (+) ListenCpltCallback   : callback for end of listen mode.
 238:Drivers/STM32F0xx_HAL_Driver/Src/stm32f0xx_hal_i2c.c ****        (+) MemTxCpltCallback    : callback for Memory transmission end of transfer.
 239:Drivers/STM32F0xx_HAL_Driver/Src/stm32f0xx_hal_i2c.c ****        (+) MemRxCpltCallback    : callback for Memory reception end of transfer.
 240:Drivers/STM32F0xx_HAL_Driver/Src/stm32f0xx_hal_i2c.c ****        (+) ErrorCallback        : callback for error detection.
 241:Drivers/STM32F0xx_HAL_Driver/Src/stm32f0xx_hal_i2c.c ****        (+) AbortCpltCallback    : callback for abort completion process.
 242:Drivers/STM32F0xx_HAL_Driver/Src/stm32f0xx_hal_i2c.c ****        (+) MspInitCallback      : callback for Msp Init.
 243:Drivers/STM32F0xx_HAL_Driver/Src/stm32f0xx_hal_i2c.c ****        (+) MspDeInitCallback    : callback for Msp DeInit.
 244:Drivers/STM32F0xx_HAL_Driver/Src/stm32f0xx_hal_i2c.c ****      This function takes as parameters the HAL peripheral handle, the Callback ID
 245:Drivers/STM32F0xx_HAL_Driver/Src/stm32f0xx_hal_i2c.c ****      and a pointer to the user callback function.
 246:Drivers/STM32F0xx_HAL_Driver/Src/stm32f0xx_hal_i2c.c ****     [..]
 247:Drivers/STM32F0xx_HAL_Driver/Src/stm32f0xx_hal_i2c.c ****      For specific callback AddrCallback use dedicated register callbacks : @ref HAL_I2C_RegisterAdd
 248:Drivers/STM32F0xx_HAL_Driver/Src/stm32f0xx_hal_i2c.c ****     [..]
 249:Drivers/STM32F0xx_HAL_Driver/Src/stm32f0xx_hal_i2c.c ****      Use function @ref HAL_I2C_UnRegisterCallback to reset a callback to the default
 250:Drivers/STM32F0xx_HAL_Driver/Src/stm32f0xx_hal_i2c.c ****      weak function.
 251:Drivers/STM32F0xx_HAL_Driver/Src/stm32f0xx_hal_i2c.c ****      @ref HAL_I2C_UnRegisterCallback takes as parameters the HAL peripheral handle,
 252:Drivers/STM32F0xx_HAL_Driver/Src/stm32f0xx_hal_i2c.c ****      and the Callback ID.
 253:Drivers/STM32F0xx_HAL_Driver/Src/stm32f0xx_hal_i2c.c ****      This function allows to reset following callbacks:
 254:Drivers/STM32F0xx_HAL_Driver/Src/stm32f0xx_hal_i2c.c ****        (+) MasterTxCpltCallback : callback for Master transmission end of transfer.
 255:Drivers/STM32F0xx_HAL_Driver/Src/stm32f0xx_hal_i2c.c ****        (+) MasterRxCpltCallback : callback for Master reception end of transfer.
 256:Drivers/STM32F0xx_HAL_Driver/Src/stm32f0xx_hal_i2c.c ****        (+) SlaveTxCpltCallback  : callback for Slave transmission end of transfer.
 257:Drivers/STM32F0xx_HAL_Driver/Src/stm32f0xx_hal_i2c.c ****        (+) SlaveRxCpltCallback  : callback for Slave reception end of transfer.
 258:Drivers/STM32F0xx_HAL_Driver/Src/stm32f0xx_hal_i2c.c ****        (+) ListenCpltCallback   : callback for end of listen mode.
 259:Drivers/STM32F0xx_HAL_Driver/Src/stm32f0xx_hal_i2c.c ****        (+) MemTxCpltCallback    : callback for Memory transmission end of transfer.
 260:Drivers/STM32F0xx_HAL_Driver/Src/stm32f0xx_hal_i2c.c ****        (+) MemRxCpltCallback    : callback for Memory reception end of transfer.
ARM GAS  /tmp/ccVMOeEl.s 			page 6


 261:Drivers/STM32F0xx_HAL_Driver/Src/stm32f0xx_hal_i2c.c ****        (+) ErrorCallback        : callback for error detection.
 262:Drivers/STM32F0xx_HAL_Driver/Src/stm32f0xx_hal_i2c.c ****        (+) AbortCpltCallback    : callback for abort completion process.
 263:Drivers/STM32F0xx_HAL_Driver/Src/stm32f0xx_hal_i2c.c ****        (+) MspInitCallback      : callback for Msp Init.
 264:Drivers/STM32F0xx_HAL_Driver/Src/stm32f0xx_hal_i2c.c ****        (+) MspDeInitCallback    : callback for Msp DeInit.
 265:Drivers/STM32F0xx_HAL_Driver/Src/stm32f0xx_hal_i2c.c ****     [..]
 266:Drivers/STM32F0xx_HAL_Driver/Src/stm32f0xx_hal_i2c.c ****      For callback AddrCallback use dedicated register callbacks : @ref HAL_I2C_UnRegisterAddrCallba
 267:Drivers/STM32F0xx_HAL_Driver/Src/stm32f0xx_hal_i2c.c ****     [..]
 268:Drivers/STM32F0xx_HAL_Driver/Src/stm32f0xx_hal_i2c.c ****      By default, after the @ref HAL_I2C_Init() and when the state is @ref HAL_I2C_STATE_RESET
 269:Drivers/STM32F0xx_HAL_Driver/Src/stm32f0xx_hal_i2c.c ****      all callbacks are set to the corresponding weak functions:
 270:Drivers/STM32F0xx_HAL_Driver/Src/stm32f0xx_hal_i2c.c ****      examples @ref HAL_I2C_MasterTxCpltCallback(), @ref HAL_I2C_MasterRxCpltCallback().
 271:Drivers/STM32F0xx_HAL_Driver/Src/stm32f0xx_hal_i2c.c ****      Exception done for MspInit and MspDeInit functions that are
 272:Drivers/STM32F0xx_HAL_Driver/Src/stm32f0xx_hal_i2c.c ****      reset to the legacy weak functions in the @ref HAL_I2C_Init()/ @ref HAL_I2C_DeInit() only when
 273:Drivers/STM32F0xx_HAL_Driver/Src/stm32f0xx_hal_i2c.c ****      these callbacks are null (not registered beforehand).
 274:Drivers/STM32F0xx_HAL_Driver/Src/stm32f0xx_hal_i2c.c ****      If MspInit or MspDeInit are not null, the @ref HAL_I2C_Init()/ @ref HAL_I2C_DeInit()
 275:Drivers/STM32F0xx_HAL_Driver/Src/stm32f0xx_hal_i2c.c ****      keep and use the user MspInit/MspDeInit callbacks (registered beforehand) whatever the state.
 276:Drivers/STM32F0xx_HAL_Driver/Src/stm32f0xx_hal_i2c.c ****     [..]
 277:Drivers/STM32F0xx_HAL_Driver/Src/stm32f0xx_hal_i2c.c ****      Callbacks can be registered/unregistered in @ref HAL_I2C_STATE_READY state only.
 278:Drivers/STM32F0xx_HAL_Driver/Src/stm32f0xx_hal_i2c.c ****      Exception done MspInit/MspDeInit functions that can be registered/unregistered
 279:Drivers/STM32F0xx_HAL_Driver/Src/stm32f0xx_hal_i2c.c ****      in @ref HAL_I2C_STATE_READY or @ref HAL_I2C_STATE_RESET state,
 280:Drivers/STM32F0xx_HAL_Driver/Src/stm32f0xx_hal_i2c.c ****      thus registered (user) MspInit/DeInit callbacks can be used during the Init/DeInit.
 281:Drivers/STM32F0xx_HAL_Driver/Src/stm32f0xx_hal_i2c.c ****      Then, the user first registers the MspInit/MspDeInit user callbacks
 282:Drivers/STM32F0xx_HAL_Driver/Src/stm32f0xx_hal_i2c.c ****      using @ref HAL_I2C_RegisterCallback() before calling @ref HAL_I2C_DeInit()
 283:Drivers/STM32F0xx_HAL_Driver/Src/stm32f0xx_hal_i2c.c ****      or @ref HAL_I2C_Init() function.
 284:Drivers/STM32F0xx_HAL_Driver/Src/stm32f0xx_hal_i2c.c ****     [..]
 285:Drivers/STM32F0xx_HAL_Driver/Src/stm32f0xx_hal_i2c.c ****      When the compilation flag USE_HAL_I2C_REGISTER_CALLBACKS is set to 0 or
 286:Drivers/STM32F0xx_HAL_Driver/Src/stm32f0xx_hal_i2c.c ****      not defined, the callback registration feature is not available and all callbacks
 287:Drivers/STM32F0xx_HAL_Driver/Src/stm32f0xx_hal_i2c.c ****      are set to the corresponding weak functions.
 288:Drivers/STM32F0xx_HAL_Driver/Src/stm32f0xx_hal_i2c.c **** 
 289:Drivers/STM32F0xx_HAL_Driver/Src/stm32f0xx_hal_i2c.c ****      [..]
 290:Drivers/STM32F0xx_HAL_Driver/Src/stm32f0xx_hal_i2c.c ****        (@) You can refer to the I2C HAL driver header file for more useful macros
 291:Drivers/STM32F0xx_HAL_Driver/Src/stm32f0xx_hal_i2c.c **** 
 292:Drivers/STM32F0xx_HAL_Driver/Src/stm32f0xx_hal_i2c.c ****   @endverbatim
 293:Drivers/STM32F0xx_HAL_Driver/Src/stm32f0xx_hal_i2c.c ****   ******************************************************************************
 294:Drivers/STM32F0xx_HAL_Driver/Src/stm32f0xx_hal_i2c.c ****   * @attention
 295:Drivers/STM32F0xx_HAL_Driver/Src/stm32f0xx_hal_i2c.c ****   *
 296:Drivers/STM32F0xx_HAL_Driver/Src/stm32f0xx_hal_i2c.c ****   * <h2><center>&copy; Copyright (c) 2016 STMicroelectronics.
 297:Drivers/STM32F0xx_HAL_Driver/Src/stm32f0xx_hal_i2c.c ****   * All rights reserved.</center></h2>
 298:Drivers/STM32F0xx_HAL_Driver/Src/stm32f0xx_hal_i2c.c ****   *
 299:Drivers/STM32F0xx_HAL_Driver/Src/stm32f0xx_hal_i2c.c ****   * This software component is licensed by ST under BSD 3-Clause license,
 300:Drivers/STM32F0xx_HAL_Driver/Src/stm32f0xx_hal_i2c.c ****   * the "License"; You may not use this file except in compliance with the
 301:Drivers/STM32F0xx_HAL_Driver/Src/stm32f0xx_hal_i2c.c ****   * License. You may obtain a copy of the License at:
 302:Drivers/STM32F0xx_HAL_Driver/Src/stm32f0xx_hal_i2c.c ****   *                        opensource.org/licenses/BSD-3-Clause
 303:Drivers/STM32F0xx_HAL_Driver/Src/stm32f0xx_hal_i2c.c ****   *
 304:Drivers/STM32F0xx_HAL_Driver/Src/stm32f0xx_hal_i2c.c ****   ******************************************************************************
 305:Drivers/STM32F0xx_HAL_Driver/Src/stm32f0xx_hal_i2c.c ****   */
 306:Drivers/STM32F0xx_HAL_Driver/Src/stm32f0xx_hal_i2c.c **** 
 307:Drivers/STM32F0xx_HAL_Driver/Src/stm32f0xx_hal_i2c.c **** /* Includes ------------------------------------------------------------------*/
 308:Drivers/STM32F0xx_HAL_Driver/Src/stm32f0xx_hal_i2c.c **** #include "stm32f0xx_hal.h"
 309:Drivers/STM32F0xx_HAL_Driver/Src/stm32f0xx_hal_i2c.c **** 
 310:Drivers/STM32F0xx_HAL_Driver/Src/stm32f0xx_hal_i2c.c **** /** @addtogroup STM32F0xx_HAL_Driver
 311:Drivers/STM32F0xx_HAL_Driver/Src/stm32f0xx_hal_i2c.c ****   * @{
 312:Drivers/STM32F0xx_HAL_Driver/Src/stm32f0xx_hal_i2c.c ****   */
 313:Drivers/STM32F0xx_HAL_Driver/Src/stm32f0xx_hal_i2c.c **** 
 314:Drivers/STM32F0xx_HAL_Driver/Src/stm32f0xx_hal_i2c.c **** /** @defgroup I2C I2C
 315:Drivers/STM32F0xx_HAL_Driver/Src/stm32f0xx_hal_i2c.c ****   * @brief I2C HAL module driver
 316:Drivers/STM32F0xx_HAL_Driver/Src/stm32f0xx_hal_i2c.c ****   * @{
 317:Drivers/STM32F0xx_HAL_Driver/Src/stm32f0xx_hal_i2c.c ****   */
ARM GAS  /tmp/ccVMOeEl.s 			page 7


 318:Drivers/STM32F0xx_HAL_Driver/Src/stm32f0xx_hal_i2c.c **** 
 319:Drivers/STM32F0xx_HAL_Driver/Src/stm32f0xx_hal_i2c.c **** #ifdef HAL_I2C_MODULE_ENABLED
 320:Drivers/STM32F0xx_HAL_Driver/Src/stm32f0xx_hal_i2c.c **** 
 321:Drivers/STM32F0xx_HAL_Driver/Src/stm32f0xx_hal_i2c.c **** /* Private typedef -----------------------------------------------------------*/
 322:Drivers/STM32F0xx_HAL_Driver/Src/stm32f0xx_hal_i2c.c **** /* Private define ------------------------------------------------------------*/
 323:Drivers/STM32F0xx_HAL_Driver/Src/stm32f0xx_hal_i2c.c **** 
 324:Drivers/STM32F0xx_HAL_Driver/Src/stm32f0xx_hal_i2c.c **** /** @defgroup I2C_Private_Define I2C Private Define
 325:Drivers/STM32F0xx_HAL_Driver/Src/stm32f0xx_hal_i2c.c ****   * @{
 326:Drivers/STM32F0xx_HAL_Driver/Src/stm32f0xx_hal_i2c.c ****   */
 327:Drivers/STM32F0xx_HAL_Driver/Src/stm32f0xx_hal_i2c.c **** #define TIMING_CLEAR_MASK   (0xF0FFFFFFU)  /*!< I2C TIMING clear register Mask */
 328:Drivers/STM32F0xx_HAL_Driver/Src/stm32f0xx_hal_i2c.c **** #define I2C_TIMEOUT_ADDR    (10000U)       /*!< 10 s  */
 329:Drivers/STM32F0xx_HAL_Driver/Src/stm32f0xx_hal_i2c.c **** #define I2C_TIMEOUT_BUSY    (25U)          /*!< 25 ms */
 330:Drivers/STM32F0xx_HAL_Driver/Src/stm32f0xx_hal_i2c.c **** #define I2C_TIMEOUT_DIR     (25U)          /*!< 25 ms */
 331:Drivers/STM32F0xx_HAL_Driver/Src/stm32f0xx_hal_i2c.c **** #define I2C_TIMEOUT_RXNE    (25U)          /*!< 25 ms */
 332:Drivers/STM32F0xx_HAL_Driver/Src/stm32f0xx_hal_i2c.c **** #define I2C_TIMEOUT_STOPF   (25U)          /*!< 25 ms */
 333:Drivers/STM32F0xx_HAL_Driver/Src/stm32f0xx_hal_i2c.c **** #define I2C_TIMEOUT_TC      (25U)          /*!< 25 ms */
 334:Drivers/STM32F0xx_HAL_Driver/Src/stm32f0xx_hal_i2c.c **** #define I2C_TIMEOUT_TCR     (25U)          /*!< 25 ms */
 335:Drivers/STM32F0xx_HAL_Driver/Src/stm32f0xx_hal_i2c.c **** #define I2C_TIMEOUT_TXIS    (25U)          /*!< 25 ms */
 336:Drivers/STM32F0xx_HAL_Driver/Src/stm32f0xx_hal_i2c.c **** #define I2C_TIMEOUT_FLAG    (25U)          /*!< 25 ms */
 337:Drivers/STM32F0xx_HAL_Driver/Src/stm32f0xx_hal_i2c.c **** 
 338:Drivers/STM32F0xx_HAL_Driver/Src/stm32f0xx_hal_i2c.c **** #define MAX_NBYTE_SIZE      255U
 339:Drivers/STM32F0xx_HAL_Driver/Src/stm32f0xx_hal_i2c.c **** #define SlaveAddr_SHIFT     7U
 340:Drivers/STM32F0xx_HAL_Driver/Src/stm32f0xx_hal_i2c.c **** #define SlaveAddr_MSK       0x06U
 341:Drivers/STM32F0xx_HAL_Driver/Src/stm32f0xx_hal_i2c.c **** 
 342:Drivers/STM32F0xx_HAL_Driver/Src/stm32f0xx_hal_i2c.c **** /* Private define for @ref PreviousState usage */
 343:Drivers/STM32F0xx_HAL_Driver/Src/stm32f0xx_hal_i2c.c **** #define I2C_STATE_MSK             ((uint32_t)((uint32_t)((uint32_t)HAL_I2C_STATE_BUSY_TX | (uint32_
 344:Drivers/STM32F0xx_HAL_Driver/Src/stm32f0xx_hal_i2c.c **** #define I2C_STATE_NONE            ((uint32_t)(HAL_I2C_MODE_NONE))                                  
 345:Drivers/STM32F0xx_HAL_Driver/Src/stm32f0xx_hal_i2c.c **** #define I2C_STATE_MASTER_BUSY_TX  ((uint32_t)(((uint32_t)HAL_I2C_STATE_BUSY_TX & I2C_STATE_MSK) | (
 346:Drivers/STM32F0xx_HAL_Driver/Src/stm32f0xx_hal_i2c.c **** #define I2C_STATE_MASTER_BUSY_RX  ((uint32_t)(((uint32_t)HAL_I2C_STATE_BUSY_RX & I2C_STATE_MSK) | (
 347:Drivers/STM32F0xx_HAL_Driver/Src/stm32f0xx_hal_i2c.c **** #define I2C_STATE_SLAVE_BUSY_TX   ((uint32_t)(((uint32_t)HAL_I2C_STATE_BUSY_TX & I2C_STATE_MSK) | (
 348:Drivers/STM32F0xx_HAL_Driver/Src/stm32f0xx_hal_i2c.c **** #define I2C_STATE_SLAVE_BUSY_RX   ((uint32_t)(((uint32_t)HAL_I2C_STATE_BUSY_RX & I2C_STATE_MSK) | (
 349:Drivers/STM32F0xx_HAL_Driver/Src/stm32f0xx_hal_i2c.c **** #define I2C_STATE_MEM_BUSY_TX     ((uint32_t)(((uint32_t)HAL_I2C_STATE_BUSY_TX & I2C_STATE_MSK) | (
 350:Drivers/STM32F0xx_HAL_Driver/Src/stm32f0xx_hal_i2c.c **** #define I2C_STATE_MEM_BUSY_RX     ((uint32_t)(((uint32_t)HAL_I2C_STATE_BUSY_RX & I2C_STATE_MSK) | (
 351:Drivers/STM32F0xx_HAL_Driver/Src/stm32f0xx_hal_i2c.c **** 
 352:Drivers/STM32F0xx_HAL_Driver/Src/stm32f0xx_hal_i2c.c **** 
 353:Drivers/STM32F0xx_HAL_Driver/Src/stm32f0xx_hal_i2c.c **** /* Private define to centralize the enable/disable of Interrupts */
 354:Drivers/STM32F0xx_HAL_Driver/Src/stm32f0xx_hal_i2c.c **** #define I2C_XFER_TX_IT          (0x00000001U)
 355:Drivers/STM32F0xx_HAL_Driver/Src/stm32f0xx_hal_i2c.c **** #define I2C_XFER_RX_IT          (0x00000002U)
 356:Drivers/STM32F0xx_HAL_Driver/Src/stm32f0xx_hal_i2c.c **** #define I2C_XFER_LISTEN_IT      (0x00000004U)
 357:Drivers/STM32F0xx_HAL_Driver/Src/stm32f0xx_hal_i2c.c **** 
 358:Drivers/STM32F0xx_HAL_Driver/Src/stm32f0xx_hal_i2c.c **** #define I2C_XFER_ERROR_IT       (0x00000011U)
 359:Drivers/STM32F0xx_HAL_Driver/Src/stm32f0xx_hal_i2c.c **** #define I2C_XFER_CPLT_IT        (0x00000012U)
 360:Drivers/STM32F0xx_HAL_Driver/Src/stm32f0xx_hal_i2c.c **** #define I2C_XFER_RELOAD_IT      (0x00000012U)
 361:Drivers/STM32F0xx_HAL_Driver/Src/stm32f0xx_hal_i2c.c **** 
 362:Drivers/STM32F0xx_HAL_Driver/Src/stm32f0xx_hal_i2c.c **** /* Private define Sequential Transfer Options default/reset value */
 363:Drivers/STM32F0xx_HAL_Driver/Src/stm32f0xx_hal_i2c.c **** #define I2C_NO_OPTION_FRAME     (0xFFFF0000U)
 364:Drivers/STM32F0xx_HAL_Driver/Src/stm32f0xx_hal_i2c.c **** /**
 365:Drivers/STM32F0xx_HAL_Driver/Src/stm32f0xx_hal_i2c.c ****   * @}
 366:Drivers/STM32F0xx_HAL_Driver/Src/stm32f0xx_hal_i2c.c ****   */
 367:Drivers/STM32F0xx_HAL_Driver/Src/stm32f0xx_hal_i2c.c **** 
 368:Drivers/STM32F0xx_HAL_Driver/Src/stm32f0xx_hal_i2c.c **** /* Private macro -------------------------------------------------------------*/
 369:Drivers/STM32F0xx_HAL_Driver/Src/stm32f0xx_hal_i2c.c **** /* Private variables ---------------------------------------------------------*/
 370:Drivers/STM32F0xx_HAL_Driver/Src/stm32f0xx_hal_i2c.c **** /* Private function prototypes -----------------------------------------------*/
 371:Drivers/STM32F0xx_HAL_Driver/Src/stm32f0xx_hal_i2c.c **** 
 372:Drivers/STM32F0xx_HAL_Driver/Src/stm32f0xx_hal_i2c.c **** /** @defgroup I2C_Private_Functions I2C Private Functions
 373:Drivers/STM32F0xx_HAL_Driver/Src/stm32f0xx_hal_i2c.c ****   * @{
 374:Drivers/STM32F0xx_HAL_Driver/Src/stm32f0xx_hal_i2c.c ****   */
ARM GAS  /tmp/ccVMOeEl.s 			page 8


 375:Drivers/STM32F0xx_HAL_Driver/Src/stm32f0xx_hal_i2c.c **** /* Private functions to handle DMA transfer */
 376:Drivers/STM32F0xx_HAL_Driver/Src/stm32f0xx_hal_i2c.c **** static void I2C_DMAMasterTransmitCplt(DMA_HandleTypeDef *hdma);
 377:Drivers/STM32F0xx_HAL_Driver/Src/stm32f0xx_hal_i2c.c **** static void I2C_DMAMasterReceiveCplt(DMA_HandleTypeDef *hdma);
 378:Drivers/STM32F0xx_HAL_Driver/Src/stm32f0xx_hal_i2c.c **** static void I2C_DMASlaveTransmitCplt(DMA_HandleTypeDef *hdma);
 379:Drivers/STM32F0xx_HAL_Driver/Src/stm32f0xx_hal_i2c.c **** static void I2C_DMASlaveReceiveCplt(DMA_HandleTypeDef *hdma);
 380:Drivers/STM32F0xx_HAL_Driver/Src/stm32f0xx_hal_i2c.c **** static void I2C_DMAError(DMA_HandleTypeDef *hdma);
 381:Drivers/STM32F0xx_HAL_Driver/Src/stm32f0xx_hal_i2c.c **** static void I2C_DMAAbort(DMA_HandleTypeDef *hdma);
 382:Drivers/STM32F0xx_HAL_Driver/Src/stm32f0xx_hal_i2c.c **** 
 383:Drivers/STM32F0xx_HAL_Driver/Src/stm32f0xx_hal_i2c.c **** /* Private functions to handle IT transfer */
 384:Drivers/STM32F0xx_HAL_Driver/Src/stm32f0xx_hal_i2c.c **** static void I2C_ITAddrCplt(I2C_HandleTypeDef *hi2c, uint32_t ITFlags);
 385:Drivers/STM32F0xx_HAL_Driver/Src/stm32f0xx_hal_i2c.c **** static void I2C_ITMasterSeqCplt(I2C_HandleTypeDef *hi2c);
 386:Drivers/STM32F0xx_HAL_Driver/Src/stm32f0xx_hal_i2c.c **** static void I2C_ITSlaveSeqCplt(I2C_HandleTypeDef *hi2c);
 387:Drivers/STM32F0xx_HAL_Driver/Src/stm32f0xx_hal_i2c.c **** static void I2C_ITMasterCplt(I2C_HandleTypeDef *hi2c, uint32_t ITFlags);
 388:Drivers/STM32F0xx_HAL_Driver/Src/stm32f0xx_hal_i2c.c **** static void I2C_ITSlaveCplt(I2C_HandleTypeDef *hi2c, uint32_t ITFlags);
 389:Drivers/STM32F0xx_HAL_Driver/Src/stm32f0xx_hal_i2c.c **** static void I2C_ITListenCplt(I2C_HandleTypeDef *hi2c, uint32_t ITFlags);
 390:Drivers/STM32F0xx_HAL_Driver/Src/stm32f0xx_hal_i2c.c **** static void I2C_ITError(I2C_HandleTypeDef *hi2c, uint32_t ErrorCode);
 391:Drivers/STM32F0xx_HAL_Driver/Src/stm32f0xx_hal_i2c.c **** 
 392:Drivers/STM32F0xx_HAL_Driver/Src/stm32f0xx_hal_i2c.c **** /* Private functions to handle IT transfer */
 393:Drivers/STM32F0xx_HAL_Driver/Src/stm32f0xx_hal_i2c.c **** static HAL_StatusTypeDef I2C_RequestMemoryWrite(I2C_HandleTypeDef *hi2c, uint16_t DevAddress, uint1
 394:Drivers/STM32F0xx_HAL_Driver/Src/stm32f0xx_hal_i2c.c **** static HAL_StatusTypeDef I2C_RequestMemoryRead(I2C_HandleTypeDef *hi2c, uint16_t DevAddress, uint16
 395:Drivers/STM32F0xx_HAL_Driver/Src/stm32f0xx_hal_i2c.c **** 
 396:Drivers/STM32F0xx_HAL_Driver/Src/stm32f0xx_hal_i2c.c **** /* Private functions for I2C transfer IRQ handler */
 397:Drivers/STM32F0xx_HAL_Driver/Src/stm32f0xx_hal_i2c.c **** static HAL_StatusTypeDef I2C_Master_ISR_IT(struct __I2C_HandleTypeDef *hi2c, uint32_t ITFlags, uint
 398:Drivers/STM32F0xx_HAL_Driver/Src/stm32f0xx_hal_i2c.c **** static HAL_StatusTypeDef I2C_Slave_ISR_IT(struct __I2C_HandleTypeDef *hi2c, uint32_t ITFlags, uint3
 399:Drivers/STM32F0xx_HAL_Driver/Src/stm32f0xx_hal_i2c.c **** static HAL_StatusTypeDef I2C_Master_ISR_DMA(struct __I2C_HandleTypeDef *hi2c, uint32_t ITFlags, uin
 400:Drivers/STM32F0xx_HAL_Driver/Src/stm32f0xx_hal_i2c.c **** static HAL_StatusTypeDef I2C_Slave_ISR_DMA(struct __I2C_HandleTypeDef *hi2c, uint32_t ITFlags, uint
 401:Drivers/STM32F0xx_HAL_Driver/Src/stm32f0xx_hal_i2c.c **** 
 402:Drivers/STM32F0xx_HAL_Driver/Src/stm32f0xx_hal_i2c.c **** /* Private functions to handle flags during polling transfer */
 403:Drivers/STM32F0xx_HAL_Driver/Src/stm32f0xx_hal_i2c.c **** static HAL_StatusTypeDef I2C_WaitOnFlagUntilTimeout(I2C_HandleTypeDef *hi2c, uint32_t Flag, FlagSta
 404:Drivers/STM32F0xx_HAL_Driver/Src/stm32f0xx_hal_i2c.c **** static HAL_StatusTypeDef I2C_WaitOnTXISFlagUntilTimeout(I2C_HandleTypeDef *hi2c, uint32_t Timeout, 
 405:Drivers/STM32F0xx_HAL_Driver/Src/stm32f0xx_hal_i2c.c **** static HAL_StatusTypeDef I2C_WaitOnRXNEFlagUntilTimeout(I2C_HandleTypeDef *hi2c, uint32_t Timeout, 
 406:Drivers/STM32F0xx_HAL_Driver/Src/stm32f0xx_hal_i2c.c **** static HAL_StatusTypeDef I2C_WaitOnSTOPFlagUntilTimeout(I2C_HandleTypeDef *hi2c, uint32_t Timeout, 
 407:Drivers/STM32F0xx_HAL_Driver/Src/stm32f0xx_hal_i2c.c **** static HAL_StatusTypeDef I2C_IsAcknowledgeFailed(I2C_HandleTypeDef *hi2c, uint32_t Timeout, uint32_
 408:Drivers/STM32F0xx_HAL_Driver/Src/stm32f0xx_hal_i2c.c **** 
 409:Drivers/STM32F0xx_HAL_Driver/Src/stm32f0xx_hal_i2c.c **** /* Private functions to centralize the enable/disable of Interrupts */
 410:Drivers/STM32F0xx_HAL_Driver/Src/stm32f0xx_hal_i2c.c **** static void I2C_Enable_IRQ(I2C_HandleTypeDef *hi2c, uint16_t InterruptRequest);
 411:Drivers/STM32F0xx_HAL_Driver/Src/stm32f0xx_hal_i2c.c **** static void I2C_Disable_IRQ(I2C_HandleTypeDef *hi2c, uint16_t InterruptRequest);
 412:Drivers/STM32F0xx_HAL_Driver/Src/stm32f0xx_hal_i2c.c **** 
 413:Drivers/STM32F0xx_HAL_Driver/Src/stm32f0xx_hal_i2c.c **** /* Private function to flush TXDR register */
 414:Drivers/STM32F0xx_HAL_Driver/Src/stm32f0xx_hal_i2c.c **** static void I2C_Flush_TXDR(I2C_HandleTypeDef *hi2c);
 415:Drivers/STM32F0xx_HAL_Driver/Src/stm32f0xx_hal_i2c.c **** 
 416:Drivers/STM32F0xx_HAL_Driver/Src/stm32f0xx_hal_i2c.c **** /* Private function to handle  start, restart or stop a transfer */
 417:Drivers/STM32F0xx_HAL_Driver/Src/stm32f0xx_hal_i2c.c **** static void I2C_TransferConfig(I2C_HandleTypeDef *hi2c, uint16_t DevAddress, uint8_t Size, uint32_t
 418:Drivers/STM32F0xx_HAL_Driver/Src/stm32f0xx_hal_i2c.c **** 
 419:Drivers/STM32F0xx_HAL_Driver/Src/stm32f0xx_hal_i2c.c **** /* Private function to Convert Specific options */
 420:Drivers/STM32F0xx_HAL_Driver/Src/stm32f0xx_hal_i2c.c **** static void I2C_ConvertOtherXferOptions(I2C_HandleTypeDef *hi2c);
 421:Drivers/STM32F0xx_HAL_Driver/Src/stm32f0xx_hal_i2c.c **** /**
 422:Drivers/STM32F0xx_HAL_Driver/Src/stm32f0xx_hal_i2c.c ****   * @}
 423:Drivers/STM32F0xx_HAL_Driver/Src/stm32f0xx_hal_i2c.c ****   */
 424:Drivers/STM32F0xx_HAL_Driver/Src/stm32f0xx_hal_i2c.c **** 
 425:Drivers/STM32F0xx_HAL_Driver/Src/stm32f0xx_hal_i2c.c **** /* Exported functions --------------------------------------------------------*/
 426:Drivers/STM32F0xx_HAL_Driver/Src/stm32f0xx_hal_i2c.c **** 
 427:Drivers/STM32F0xx_HAL_Driver/Src/stm32f0xx_hal_i2c.c **** /** @defgroup I2C_Exported_Functions I2C Exported Functions
 428:Drivers/STM32F0xx_HAL_Driver/Src/stm32f0xx_hal_i2c.c ****   * @{
 429:Drivers/STM32F0xx_HAL_Driver/Src/stm32f0xx_hal_i2c.c ****   */
 430:Drivers/STM32F0xx_HAL_Driver/Src/stm32f0xx_hal_i2c.c **** 
 431:Drivers/STM32F0xx_HAL_Driver/Src/stm32f0xx_hal_i2c.c **** /** @defgroup I2C_Exported_Functions_Group1 Initialization and de-initialization functions
ARM GAS  /tmp/ccVMOeEl.s 			page 9


 432:Drivers/STM32F0xx_HAL_Driver/Src/stm32f0xx_hal_i2c.c ****  *  @brief    Initialization and Configuration functions
 433:Drivers/STM32F0xx_HAL_Driver/Src/stm32f0xx_hal_i2c.c ****  *
 434:Drivers/STM32F0xx_HAL_Driver/Src/stm32f0xx_hal_i2c.c **** @verbatim
 435:Drivers/STM32F0xx_HAL_Driver/Src/stm32f0xx_hal_i2c.c ****  ===============================================================================
 436:Drivers/STM32F0xx_HAL_Driver/Src/stm32f0xx_hal_i2c.c ****               ##### Initialization and de-initialization functions #####
 437:Drivers/STM32F0xx_HAL_Driver/Src/stm32f0xx_hal_i2c.c ****  ===============================================================================
 438:Drivers/STM32F0xx_HAL_Driver/Src/stm32f0xx_hal_i2c.c ****     [..]  This subsection provides a set of functions allowing to initialize and
 439:Drivers/STM32F0xx_HAL_Driver/Src/stm32f0xx_hal_i2c.c ****           deinitialize the I2Cx peripheral:
 440:Drivers/STM32F0xx_HAL_Driver/Src/stm32f0xx_hal_i2c.c **** 
 441:Drivers/STM32F0xx_HAL_Driver/Src/stm32f0xx_hal_i2c.c ****       (+) User must Implement HAL_I2C_MspInit() function in which he configures
 442:Drivers/STM32F0xx_HAL_Driver/Src/stm32f0xx_hal_i2c.c ****           all related peripherals resources (CLOCK, GPIO, DMA, IT and NVIC ).
 443:Drivers/STM32F0xx_HAL_Driver/Src/stm32f0xx_hal_i2c.c **** 
 444:Drivers/STM32F0xx_HAL_Driver/Src/stm32f0xx_hal_i2c.c ****       (+) Call the function HAL_I2C_Init() to configure the selected device with
 445:Drivers/STM32F0xx_HAL_Driver/Src/stm32f0xx_hal_i2c.c ****           the selected configuration:
 446:Drivers/STM32F0xx_HAL_Driver/Src/stm32f0xx_hal_i2c.c ****         (++) Clock Timing
 447:Drivers/STM32F0xx_HAL_Driver/Src/stm32f0xx_hal_i2c.c ****         (++) Own Address 1
 448:Drivers/STM32F0xx_HAL_Driver/Src/stm32f0xx_hal_i2c.c ****         (++) Addressing mode (Master, Slave)
 449:Drivers/STM32F0xx_HAL_Driver/Src/stm32f0xx_hal_i2c.c ****         (++) Dual Addressing mode
 450:Drivers/STM32F0xx_HAL_Driver/Src/stm32f0xx_hal_i2c.c ****         (++) Own Address 2
 451:Drivers/STM32F0xx_HAL_Driver/Src/stm32f0xx_hal_i2c.c ****         (++) Own Address 2 Mask
 452:Drivers/STM32F0xx_HAL_Driver/Src/stm32f0xx_hal_i2c.c ****         (++) General call mode
 453:Drivers/STM32F0xx_HAL_Driver/Src/stm32f0xx_hal_i2c.c ****         (++) Nostretch mode
 454:Drivers/STM32F0xx_HAL_Driver/Src/stm32f0xx_hal_i2c.c **** 
 455:Drivers/STM32F0xx_HAL_Driver/Src/stm32f0xx_hal_i2c.c ****       (+) Call the function HAL_I2C_DeInit() to restore the default configuration
 456:Drivers/STM32F0xx_HAL_Driver/Src/stm32f0xx_hal_i2c.c ****           of the selected I2Cx peripheral.
 457:Drivers/STM32F0xx_HAL_Driver/Src/stm32f0xx_hal_i2c.c **** 
 458:Drivers/STM32F0xx_HAL_Driver/Src/stm32f0xx_hal_i2c.c **** @endverbatim
 459:Drivers/STM32F0xx_HAL_Driver/Src/stm32f0xx_hal_i2c.c ****   * @{
 460:Drivers/STM32F0xx_HAL_Driver/Src/stm32f0xx_hal_i2c.c ****   */
 461:Drivers/STM32F0xx_HAL_Driver/Src/stm32f0xx_hal_i2c.c **** 
 462:Drivers/STM32F0xx_HAL_Driver/Src/stm32f0xx_hal_i2c.c **** /**
 463:Drivers/STM32F0xx_HAL_Driver/Src/stm32f0xx_hal_i2c.c ****   * @brief  Initializes the I2C according to the specified parameters
 464:Drivers/STM32F0xx_HAL_Driver/Src/stm32f0xx_hal_i2c.c ****   *         in the I2C_InitTypeDef and initialize the associated handle.
 465:Drivers/STM32F0xx_HAL_Driver/Src/stm32f0xx_hal_i2c.c ****   * @param  hi2c Pointer to a I2C_HandleTypeDef structure that contains
 466:Drivers/STM32F0xx_HAL_Driver/Src/stm32f0xx_hal_i2c.c ****   *                the configuration information for the specified I2C.
 467:Drivers/STM32F0xx_HAL_Driver/Src/stm32f0xx_hal_i2c.c ****   * @retval HAL status
 468:Drivers/STM32F0xx_HAL_Driver/Src/stm32f0xx_hal_i2c.c ****   */
 469:Drivers/STM32F0xx_HAL_Driver/Src/stm32f0xx_hal_i2c.c **** HAL_StatusTypeDef HAL_I2C_Init(I2C_HandleTypeDef *hi2c)
 470:Drivers/STM32F0xx_HAL_Driver/Src/stm32f0xx_hal_i2c.c **** {
  27              		.loc 1 470 1
  28              		.cfi_startproc
  29              		@ args = 0, pretend = 0, frame = 8
  30              		@ frame_needed = 1, uses_anonymous_args = 0
  31 0000 80B5     		push	{r7, lr}
  32              	.LCFI0:
  33              		.cfi_def_cfa_offset 8
  34              		.cfi_offset 7, -8
  35              		.cfi_offset 14, -4
  36 0002 82B0     		sub	sp, sp, #8
  37              	.LCFI1:
  38              		.cfi_def_cfa_offset 16
  39 0004 00AF     		add	r7, sp, #0
  40              	.LCFI2:
  41              		.cfi_def_cfa_register 7
  42 0006 7860     		str	r0, [r7, #4]
 471:Drivers/STM32F0xx_HAL_Driver/Src/stm32f0xx_hal_i2c.c ****   /* Check the I2C handle allocation */
 472:Drivers/STM32F0xx_HAL_Driver/Src/stm32f0xx_hal_i2c.c ****   if (hi2c == NULL)
ARM GAS  /tmp/ccVMOeEl.s 			page 10


  43              		.loc 1 472 6
  44 0008 7B68     		ldr	r3, [r7, #4]
  45 000a 002B     		cmp	r3, #0
  46 000c 01D1     		bne	.L2
 473:Drivers/STM32F0xx_HAL_Driver/Src/stm32f0xx_hal_i2c.c ****   {
 474:Drivers/STM32F0xx_HAL_Driver/Src/stm32f0xx_hal_i2c.c ****     return HAL_ERROR;
  47              		.loc 1 474 12
  48 000e 0123     		movs	r3, #1
  49 0010 82E0     		b	.L3
  50              	.L2:
 475:Drivers/STM32F0xx_HAL_Driver/Src/stm32f0xx_hal_i2c.c ****   }
 476:Drivers/STM32F0xx_HAL_Driver/Src/stm32f0xx_hal_i2c.c **** 
 477:Drivers/STM32F0xx_HAL_Driver/Src/stm32f0xx_hal_i2c.c ****   /* Check the parameters */
 478:Drivers/STM32F0xx_HAL_Driver/Src/stm32f0xx_hal_i2c.c ****   assert_param(IS_I2C_ALL_INSTANCE(hi2c->Instance));
 479:Drivers/STM32F0xx_HAL_Driver/Src/stm32f0xx_hal_i2c.c ****   assert_param(IS_I2C_OWN_ADDRESS1(hi2c->Init.OwnAddress1));
 480:Drivers/STM32F0xx_HAL_Driver/Src/stm32f0xx_hal_i2c.c ****   assert_param(IS_I2C_ADDRESSING_MODE(hi2c->Init.AddressingMode));
 481:Drivers/STM32F0xx_HAL_Driver/Src/stm32f0xx_hal_i2c.c ****   assert_param(IS_I2C_DUAL_ADDRESS(hi2c->Init.DualAddressMode));
 482:Drivers/STM32F0xx_HAL_Driver/Src/stm32f0xx_hal_i2c.c ****   assert_param(IS_I2C_OWN_ADDRESS2(hi2c->Init.OwnAddress2));
 483:Drivers/STM32F0xx_HAL_Driver/Src/stm32f0xx_hal_i2c.c ****   assert_param(IS_I2C_OWN_ADDRESS2_MASK(hi2c->Init.OwnAddress2Masks));
 484:Drivers/STM32F0xx_HAL_Driver/Src/stm32f0xx_hal_i2c.c ****   assert_param(IS_I2C_GENERAL_CALL(hi2c->Init.GeneralCallMode));
 485:Drivers/STM32F0xx_HAL_Driver/Src/stm32f0xx_hal_i2c.c ****   assert_param(IS_I2C_NO_STRETCH(hi2c->Init.NoStretchMode));
 486:Drivers/STM32F0xx_HAL_Driver/Src/stm32f0xx_hal_i2c.c **** 
 487:Drivers/STM32F0xx_HAL_Driver/Src/stm32f0xx_hal_i2c.c ****   if (hi2c->State == HAL_I2C_STATE_RESET)
  51              		.loc 1 487 11
  52 0012 7B68     		ldr	r3, [r7, #4]
  53 0014 4122     		movs	r2, #65
  54 0016 9B5C     		ldrb	r3, [r3, r2]
  55 0018 DBB2     		uxtb	r3, r3
  56              		.loc 1 487 6
  57 001a 002B     		cmp	r3, #0
  58 001c 07D1     		bne	.L4
 488:Drivers/STM32F0xx_HAL_Driver/Src/stm32f0xx_hal_i2c.c ****   {
 489:Drivers/STM32F0xx_HAL_Driver/Src/stm32f0xx_hal_i2c.c ****     /* Allocate lock resource and initialize it */
 490:Drivers/STM32F0xx_HAL_Driver/Src/stm32f0xx_hal_i2c.c ****     hi2c->Lock = HAL_UNLOCKED;
  59              		.loc 1 490 16
  60 001e 7B68     		ldr	r3, [r7, #4]
  61 0020 4022     		movs	r2, #64
  62 0022 0021     		movs	r1, #0
  63 0024 9954     		strb	r1, [r3, r2]
 491:Drivers/STM32F0xx_HAL_Driver/Src/stm32f0xx_hal_i2c.c **** 
 492:Drivers/STM32F0xx_HAL_Driver/Src/stm32f0xx_hal_i2c.c **** #if (USE_HAL_I2C_REGISTER_CALLBACKS == 1)
 493:Drivers/STM32F0xx_HAL_Driver/Src/stm32f0xx_hal_i2c.c ****     /* Init the I2C Callback settings */
 494:Drivers/STM32F0xx_HAL_Driver/Src/stm32f0xx_hal_i2c.c ****     hi2c->MasterTxCpltCallback = HAL_I2C_MasterTxCpltCallback; /* Legacy weak MasterTxCpltCallback 
 495:Drivers/STM32F0xx_HAL_Driver/Src/stm32f0xx_hal_i2c.c ****     hi2c->MasterRxCpltCallback = HAL_I2C_MasterRxCpltCallback; /* Legacy weak MasterRxCpltCallback 
 496:Drivers/STM32F0xx_HAL_Driver/Src/stm32f0xx_hal_i2c.c ****     hi2c->SlaveTxCpltCallback  = HAL_I2C_SlaveTxCpltCallback;  /* Legacy weak SlaveTxCpltCallback  
 497:Drivers/STM32F0xx_HAL_Driver/Src/stm32f0xx_hal_i2c.c ****     hi2c->SlaveRxCpltCallback  = HAL_I2C_SlaveRxCpltCallback;  /* Legacy weak SlaveRxCpltCallback  
 498:Drivers/STM32F0xx_HAL_Driver/Src/stm32f0xx_hal_i2c.c ****     hi2c->ListenCpltCallback   = HAL_I2C_ListenCpltCallback;   /* Legacy weak ListenCpltCallback   
 499:Drivers/STM32F0xx_HAL_Driver/Src/stm32f0xx_hal_i2c.c ****     hi2c->MemTxCpltCallback    = HAL_I2C_MemTxCpltCallback;    /* Legacy weak MemTxCpltCallback    
 500:Drivers/STM32F0xx_HAL_Driver/Src/stm32f0xx_hal_i2c.c ****     hi2c->MemRxCpltCallback    = HAL_I2C_MemRxCpltCallback;    /* Legacy weak MemRxCpltCallback    
 501:Drivers/STM32F0xx_HAL_Driver/Src/stm32f0xx_hal_i2c.c ****     hi2c->ErrorCallback        = HAL_I2C_ErrorCallback;        /* Legacy weak ErrorCallback        
 502:Drivers/STM32F0xx_HAL_Driver/Src/stm32f0xx_hal_i2c.c ****     hi2c->AbortCpltCallback    = HAL_I2C_AbortCpltCallback;    /* Legacy weak AbortCpltCallback    
 503:Drivers/STM32F0xx_HAL_Driver/Src/stm32f0xx_hal_i2c.c ****     hi2c->AddrCallback         = HAL_I2C_AddrCallback;         /* Legacy weak AddrCallback         
 504:Drivers/STM32F0xx_HAL_Driver/Src/stm32f0xx_hal_i2c.c **** 
 505:Drivers/STM32F0xx_HAL_Driver/Src/stm32f0xx_hal_i2c.c ****     if (hi2c->MspInitCallback == NULL)
 506:Drivers/STM32F0xx_HAL_Driver/Src/stm32f0xx_hal_i2c.c ****     {
 507:Drivers/STM32F0xx_HAL_Driver/Src/stm32f0xx_hal_i2c.c ****       hi2c->MspInitCallback = HAL_I2C_MspInit; /* Legacy weak MspInit  */
 508:Drivers/STM32F0xx_HAL_Driver/Src/stm32f0xx_hal_i2c.c ****     }
ARM GAS  /tmp/ccVMOeEl.s 			page 11


 509:Drivers/STM32F0xx_HAL_Driver/Src/stm32f0xx_hal_i2c.c **** 
 510:Drivers/STM32F0xx_HAL_Driver/Src/stm32f0xx_hal_i2c.c ****     /* Init the low level hardware : GPIO, CLOCK, CORTEX...etc */
 511:Drivers/STM32F0xx_HAL_Driver/Src/stm32f0xx_hal_i2c.c ****     hi2c->MspInitCallback(hi2c);
 512:Drivers/STM32F0xx_HAL_Driver/Src/stm32f0xx_hal_i2c.c **** #else
 513:Drivers/STM32F0xx_HAL_Driver/Src/stm32f0xx_hal_i2c.c ****     /* Init the low level hardware : GPIO, CLOCK, CORTEX...etc */
 514:Drivers/STM32F0xx_HAL_Driver/Src/stm32f0xx_hal_i2c.c ****     HAL_I2C_MspInit(hi2c);
  64              		.loc 1 514 5
  65 0026 7B68     		ldr	r3, [r7, #4]
  66 0028 1800     		movs	r0, r3
  67 002a FFF7FEFF 		bl	HAL_I2C_MspInit
  68              	.L4:
 515:Drivers/STM32F0xx_HAL_Driver/Src/stm32f0xx_hal_i2c.c **** #endif /* USE_HAL_I2C_REGISTER_CALLBACKS */
 516:Drivers/STM32F0xx_HAL_Driver/Src/stm32f0xx_hal_i2c.c ****   }
 517:Drivers/STM32F0xx_HAL_Driver/Src/stm32f0xx_hal_i2c.c **** 
 518:Drivers/STM32F0xx_HAL_Driver/Src/stm32f0xx_hal_i2c.c ****   hi2c->State = HAL_I2C_STATE_BUSY;
  69              		.loc 1 518 15
  70 002e 7B68     		ldr	r3, [r7, #4]
  71 0030 4122     		movs	r2, #65
  72 0032 2421     		movs	r1, #36
  73 0034 9954     		strb	r1, [r3, r2]
 519:Drivers/STM32F0xx_HAL_Driver/Src/stm32f0xx_hal_i2c.c **** 
 520:Drivers/STM32F0xx_HAL_Driver/Src/stm32f0xx_hal_i2c.c ****   /* Disable the selected I2C peripheral */
 521:Drivers/STM32F0xx_HAL_Driver/Src/stm32f0xx_hal_i2c.c ****   __HAL_I2C_DISABLE(hi2c);
  74              		.loc 1 521 3
  75 0036 7B68     		ldr	r3, [r7, #4]
  76 0038 1B68     		ldr	r3, [r3]
  77 003a 1A68     		ldr	r2, [r3]
  78 003c 7B68     		ldr	r3, [r7, #4]
  79 003e 1B68     		ldr	r3, [r3]
  80 0040 0121     		movs	r1, #1
  81 0042 8A43     		bics	r2, r1
  82 0044 1A60     		str	r2, [r3]
 522:Drivers/STM32F0xx_HAL_Driver/Src/stm32f0xx_hal_i2c.c **** 
 523:Drivers/STM32F0xx_HAL_Driver/Src/stm32f0xx_hal_i2c.c ****   /*---------------------------- I2Cx TIMINGR Configuration ------------------*/
 524:Drivers/STM32F0xx_HAL_Driver/Src/stm32f0xx_hal_i2c.c ****   /* Configure I2Cx: Frequency range */
 525:Drivers/STM32F0xx_HAL_Driver/Src/stm32f0xx_hal_i2c.c ****   hi2c->Instance->TIMINGR = hi2c->Init.Timing & TIMING_CLEAR_MASK;
  83              		.loc 1 525 39
  84 0046 7B68     		ldr	r3, [r7, #4]
  85 0048 5A68     		ldr	r2, [r3, #4]
  86              		.loc 1 525 7
  87 004a 7B68     		ldr	r3, [r7, #4]
  88 004c 1B68     		ldr	r3, [r3]
  89              		.loc 1 525 47
  90 004e 3449     		ldr	r1, .L8
  91 0050 0A40     		ands	r2, r1
  92              		.loc 1 525 27
  93 0052 1A61     		str	r2, [r3, #16]
 526:Drivers/STM32F0xx_HAL_Driver/Src/stm32f0xx_hal_i2c.c **** 
 527:Drivers/STM32F0xx_HAL_Driver/Src/stm32f0xx_hal_i2c.c ****   /*---------------------------- I2Cx OAR1 Configuration ---------------------*/
 528:Drivers/STM32F0xx_HAL_Driver/Src/stm32f0xx_hal_i2c.c ****   /* Disable Own Address1 before set the Own Address1 configuration */
 529:Drivers/STM32F0xx_HAL_Driver/Src/stm32f0xx_hal_i2c.c ****   hi2c->Instance->OAR1 &= ~I2C_OAR1_OA1EN;
  94              		.loc 1 529 7
  95 0054 7B68     		ldr	r3, [r7, #4]
  96 0056 1B68     		ldr	r3, [r3]
  97              		.loc 1 529 17
  98 0058 9A68     		ldr	r2, [r3, #8]
  99              		.loc 1 529 7
ARM GAS  /tmp/ccVMOeEl.s 			page 12


 100 005a 7B68     		ldr	r3, [r7, #4]
 101 005c 1B68     		ldr	r3, [r3]
 102              		.loc 1 529 24
 103 005e 3149     		ldr	r1, .L8+4
 104 0060 0A40     		ands	r2, r1
 105 0062 9A60     		str	r2, [r3, #8]
 530:Drivers/STM32F0xx_HAL_Driver/Src/stm32f0xx_hal_i2c.c **** 
 531:Drivers/STM32F0xx_HAL_Driver/Src/stm32f0xx_hal_i2c.c ****   /* Configure I2Cx: Own Address1 and ack own address1 mode */
 532:Drivers/STM32F0xx_HAL_Driver/Src/stm32f0xx_hal_i2c.c ****   if (hi2c->Init.AddressingMode == I2C_ADDRESSINGMODE_7BIT)
 106              		.loc 1 532 17
 107 0064 7B68     		ldr	r3, [r7, #4]
 108 0066 DB68     		ldr	r3, [r3, #12]
 109              		.loc 1 532 6
 110 0068 012B     		cmp	r3, #1
 111 006a 08D1     		bne	.L5
 533:Drivers/STM32F0xx_HAL_Driver/Src/stm32f0xx_hal_i2c.c ****   {
 534:Drivers/STM32F0xx_HAL_Driver/Src/stm32f0xx_hal_i2c.c ****     hi2c->Instance->OAR1 = (I2C_OAR1_OA1EN | hi2c->Init.OwnAddress1);
 112              		.loc 1 534 56
 113 006c 7B68     		ldr	r3, [r7, #4]
 114 006e 9A68     		ldr	r2, [r3, #8]
 115              		.loc 1 534 9
 116 0070 7B68     		ldr	r3, [r7, #4]
 117 0072 1B68     		ldr	r3, [r3]
 118              		.loc 1 534 44
 119 0074 8021     		movs	r1, #128
 120 0076 0902     		lsls	r1, r1, #8
 121 0078 0A43     		orrs	r2, r1
 122              		.loc 1 534 26
 123 007a 9A60     		str	r2, [r3, #8]
 124 007c 07E0     		b	.L6
 125              	.L5:
 535:Drivers/STM32F0xx_HAL_Driver/Src/stm32f0xx_hal_i2c.c ****   }
 536:Drivers/STM32F0xx_HAL_Driver/Src/stm32f0xx_hal_i2c.c ****   else /* I2C_ADDRESSINGMODE_10BIT */
 537:Drivers/STM32F0xx_HAL_Driver/Src/stm32f0xx_hal_i2c.c ****   {
 538:Drivers/STM32F0xx_HAL_Driver/Src/stm32f0xx_hal_i2c.c ****     hi2c->Instance->OAR1 = (I2C_OAR1_OA1EN | I2C_OAR1_OA1MODE | hi2c->Init.OwnAddress1);
 126              		.loc 1 538 75
 127 007e 7B68     		ldr	r3, [r7, #4]
 128 0080 9A68     		ldr	r2, [r3, #8]
 129              		.loc 1 538 9
 130 0082 7B68     		ldr	r3, [r7, #4]
 131 0084 1B68     		ldr	r3, [r3]
 132              		.loc 1 538 63
 133 0086 8421     		movs	r1, #132
 134 0088 0902     		lsls	r1, r1, #8
 135 008a 0A43     		orrs	r2, r1
 136              		.loc 1 538 26
 137 008c 9A60     		str	r2, [r3, #8]
 138              	.L6:
 539:Drivers/STM32F0xx_HAL_Driver/Src/stm32f0xx_hal_i2c.c ****   }
 540:Drivers/STM32F0xx_HAL_Driver/Src/stm32f0xx_hal_i2c.c **** 
 541:Drivers/STM32F0xx_HAL_Driver/Src/stm32f0xx_hal_i2c.c ****   /*---------------------------- I2Cx CR2 Configuration ----------------------*/
 542:Drivers/STM32F0xx_HAL_Driver/Src/stm32f0xx_hal_i2c.c ****   /* Configure I2Cx: Addressing Master mode */
 543:Drivers/STM32F0xx_HAL_Driver/Src/stm32f0xx_hal_i2c.c ****   if (hi2c->Init.AddressingMode == I2C_ADDRESSINGMODE_10BIT)
 139              		.loc 1 543 17
 140 008e 7B68     		ldr	r3, [r7, #4]
 141 0090 DB68     		ldr	r3, [r3, #12]
 142              		.loc 1 543 6
ARM GAS  /tmp/ccVMOeEl.s 			page 13


 143 0092 022B     		cmp	r3, #2
 144 0094 04D1     		bne	.L7
 544:Drivers/STM32F0xx_HAL_Driver/Src/stm32f0xx_hal_i2c.c ****   {
 545:Drivers/STM32F0xx_HAL_Driver/Src/stm32f0xx_hal_i2c.c ****     hi2c->Instance->CR2 = (I2C_CR2_ADD10);
 145              		.loc 1 545 9
 146 0096 7B68     		ldr	r3, [r7, #4]
 147 0098 1B68     		ldr	r3, [r3]
 148              		.loc 1 545 25
 149 009a 8022     		movs	r2, #128
 150 009c 1201     		lsls	r2, r2, #4
 151 009e 5A60     		str	r2, [r3, #4]
 152              	.L7:
 546:Drivers/STM32F0xx_HAL_Driver/Src/stm32f0xx_hal_i2c.c ****   }
 547:Drivers/STM32F0xx_HAL_Driver/Src/stm32f0xx_hal_i2c.c ****   /* Enable the AUTOEND by default, and enable NACK (should be disable only during Slave process */
 548:Drivers/STM32F0xx_HAL_Driver/Src/stm32f0xx_hal_i2c.c ****   hi2c->Instance->CR2 |= (I2C_CR2_AUTOEND | I2C_CR2_NACK);
 153              		.loc 1 548 7
 154 00a0 7B68     		ldr	r3, [r7, #4]
 155 00a2 1B68     		ldr	r3, [r3]
 156              		.loc 1 548 17
 157 00a4 5A68     		ldr	r2, [r3, #4]
 158              		.loc 1 548 7
 159 00a6 7B68     		ldr	r3, [r7, #4]
 160 00a8 1B68     		ldr	r3, [r3]
 161              		.loc 1 548 23
 162 00aa 1F49     		ldr	r1, .L8+8
 163 00ac 0A43     		orrs	r2, r1
 164 00ae 5A60     		str	r2, [r3, #4]
 549:Drivers/STM32F0xx_HAL_Driver/Src/stm32f0xx_hal_i2c.c **** 
 550:Drivers/STM32F0xx_HAL_Driver/Src/stm32f0xx_hal_i2c.c ****   /*---------------------------- I2Cx OAR2 Configuration ---------------------*/
 551:Drivers/STM32F0xx_HAL_Driver/Src/stm32f0xx_hal_i2c.c ****   /* Disable Own Address2 before set the Own Address2 configuration */
 552:Drivers/STM32F0xx_HAL_Driver/Src/stm32f0xx_hal_i2c.c ****   hi2c->Instance->OAR2 &= ~I2C_DUALADDRESS_ENABLE;
 165              		.loc 1 552 7
 166 00b0 7B68     		ldr	r3, [r7, #4]
 167 00b2 1B68     		ldr	r3, [r3]
 168              		.loc 1 552 17
 169 00b4 DA68     		ldr	r2, [r3, #12]
 170              		.loc 1 552 7
 171 00b6 7B68     		ldr	r3, [r7, #4]
 172 00b8 1B68     		ldr	r3, [r3]
 173              		.loc 1 552 24
 174 00ba 1A49     		ldr	r1, .L8+4
 175 00bc 0A40     		ands	r2, r1
 176 00be DA60     		str	r2, [r3, #12]
 553:Drivers/STM32F0xx_HAL_Driver/Src/stm32f0xx_hal_i2c.c **** 
 554:Drivers/STM32F0xx_HAL_Driver/Src/stm32f0xx_hal_i2c.c ****   /* Configure I2Cx: Dual mode and Own Address2 */
 555:Drivers/STM32F0xx_HAL_Driver/Src/stm32f0xx_hal_i2c.c ****   hi2c->Instance->OAR2 = (hi2c->Init.DualAddressMode | hi2c->Init.OwnAddress2 | (hi2c->Init.OwnAddr
 177              		.loc 1 555 37
 178 00c0 7B68     		ldr	r3, [r7, #4]
 179 00c2 1A69     		ldr	r2, [r3, #16]
 180              		.loc 1 555 66
 181 00c4 7B68     		ldr	r3, [r7, #4]
 182 00c6 5B69     		ldr	r3, [r3, #20]
 183              		.loc 1 555 54
 184 00c8 1A43     		orrs	r2, r3
 185 00ca 1100     		movs	r1, r2
 186              		.loc 1 555 92
 187 00cc 7B68     		ldr	r3, [r7, #4]
ARM GAS  /tmp/ccVMOeEl.s 			page 14


 188 00ce 9B69     		ldr	r3, [r3, #24]
 189              		.loc 1 555 110
 190 00d0 1A02     		lsls	r2, r3, #8
 191              		.loc 1 555 7
 192 00d2 7B68     		ldr	r3, [r7, #4]
 193 00d4 1B68     		ldr	r3, [r3]
 194              		.loc 1 555 79
 195 00d6 0A43     		orrs	r2, r1
 196              		.loc 1 555 24
 197 00d8 DA60     		str	r2, [r3, #12]
 556:Drivers/STM32F0xx_HAL_Driver/Src/stm32f0xx_hal_i2c.c **** 
 557:Drivers/STM32F0xx_HAL_Driver/Src/stm32f0xx_hal_i2c.c ****   /*---------------------------- I2Cx CR1 Configuration ----------------------*/
 558:Drivers/STM32F0xx_HAL_Driver/Src/stm32f0xx_hal_i2c.c ****   /* Configure I2Cx: Generalcall and NoStretch mode */
 559:Drivers/STM32F0xx_HAL_Driver/Src/stm32f0xx_hal_i2c.c ****   hi2c->Instance->CR1 = (hi2c->Init.GeneralCallMode | hi2c->Init.NoStretchMode);
 198              		.loc 1 559 36
 199 00da 7B68     		ldr	r3, [r7, #4]
 200 00dc D969     		ldr	r1, [r3, #28]
 201              		.loc 1 559 65
 202 00de 7B68     		ldr	r3, [r7, #4]
 203 00e0 1A6A     		ldr	r2, [r3, #32]
 204              		.loc 1 559 7
 205 00e2 7B68     		ldr	r3, [r7, #4]
 206 00e4 1B68     		ldr	r3, [r3]
 207              		.loc 1 559 53
 208 00e6 0A43     		orrs	r2, r1
 209              		.loc 1 559 23
 210 00e8 1A60     		str	r2, [r3]
 560:Drivers/STM32F0xx_HAL_Driver/Src/stm32f0xx_hal_i2c.c **** 
 561:Drivers/STM32F0xx_HAL_Driver/Src/stm32f0xx_hal_i2c.c ****   /* Enable the selected I2C peripheral */
 562:Drivers/STM32F0xx_HAL_Driver/Src/stm32f0xx_hal_i2c.c ****   __HAL_I2C_ENABLE(hi2c);
 211              		.loc 1 562 3
 212 00ea 7B68     		ldr	r3, [r7, #4]
 213 00ec 1B68     		ldr	r3, [r3]
 214 00ee 1A68     		ldr	r2, [r3]
 215 00f0 7B68     		ldr	r3, [r7, #4]
 216 00f2 1B68     		ldr	r3, [r3]
 217 00f4 0121     		movs	r1, #1
 218 00f6 0A43     		orrs	r2, r1
 219 00f8 1A60     		str	r2, [r3]
 563:Drivers/STM32F0xx_HAL_Driver/Src/stm32f0xx_hal_i2c.c **** 
 564:Drivers/STM32F0xx_HAL_Driver/Src/stm32f0xx_hal_i2c.c ****   hi2c->ErrorCode = HAL_I2C_ERROR_NONE;
 220              		.loc 1 564 19
 221 00fa 7B68     		ldr	r3, [r7, #4]
 222 00fc 0022     		movs	r2, #0
 223 00fe 5A64     		str	r2, [r3, #68]
 565:Drivers/STM32F0xx_HAL_Driver/Src/stm32f0xx_hal_i2c.c ****   hi2c->State = HAL_I2C_STATE_READY;
 224              		.loc 1 565 15
 225 0100 7B68     		ldr	r3, [r7, #4]
 226 0102 4122     		movs	r2, #65
 227 0104 2021     		movs	r1, #32
 228 0106 9954     		strb	r1, [r3, r2]
 566:Drivers/STM32F0xx_HAL_Driver/Src/stm32f0xx_hal_i2c.c ****   hi2c->PreviousState = I2C_STATE_NONE;
 229              		.loc 1 566 23
 230 0108 7B68     		ldr	r3, [r7, #4]
 231 010a 0022     		movs	r2, #0
 232 010c 1A63     		str	r2, [r3, #48]
 567:Drivers/STM32F0xx_HAL_Driver/Src/stm32f0xx_hal_i2c.c ****   hi2c->Mode = HAL_I2C_MODE_NONE;
ARM GAS  /tmp/ccVMOeEl.s 			page 15


 233              		.loc 1 567 14
 234 010e 7B68     		ldr	r3, [r7, #4]
 235 0110 4222     		movs	r2, #66
 236 0112 0021     		movs	r1, #0
 237 0114 9954     		strb	r1, [r3, r2]
 568:Drivers/STM32F0xx_HAL_Driver/Src/stm32f0xx_hal_i2c.c **** 
 569:Drivers/STM32F0xx_HAL_Driver/Src/stm32f0xx_hal_i2c.c ****   return HAL_OK;
 238              		.loc 1 569 10
 239 0116 0023     		movs	r3, #0
 240              	.L3:
 570:Drivers/STM32F0xx_HAL_Driver/Src/stm32f0xx_hal_i2c.c **** }
 241              		.loc 1 570 1
 242 0118 1800     		movs	r0, r3
 243 011a BD46     		mov	sp, r7
 244 011c 02B0     		add	sp, sp, #8
 245              		@ sp needed
 246 011e 80BD     		pop	{r7, pc}
 247              	.L9:
 248              		.align	2
 249              	.L8:
 250 0120 FFFFFFF0 		.word	-251658241
 251 0124 FF7FFFFF 		.word	-32769
 252 0128 00800002 		.word	33587200
 253              		.cfi_endproc
 254              	.LFE40:
 256              		.section	.text.HAL_I2C_DeInit,"ax",%progbits
 257              		.align	1
 258              		.global	HAL_I2C_DeInit
 259              		.syntax unified
 260              		.code	16
 261              		.thumb_func
 263              	HAL_I2C_DeInit:
 264              	.LFB41:
 571:Drivers/STM32F0xx_HAL_Driver/Src/stm32f0xx_hal_i2c.c **** 
 572:Drivers/STM32F0xx_HAL_Driver/Src/stm32f0xx_hal_i2c.c **** /**
 573:Drivers/STM32F0xx_HAL_Driver/Src/stm32f0xx_hal_i2c.c ****   * @brief  DeInitialize the I2C peripheral.
 574:Drivers/STM32F0xx_HAL_Driver/Src/stm32f0xx_hal_i2c.c ****   * @param  hi2c Pointer to a I2C_HandleTypeDef structure that contains
 575:Drivers/STM32F0xx_HAL_Driver/Src/stm32f0xx_hal_i2c.c ****   *                the configuration information for the specified I2C.
 576:Drivers/STM32F0xx_HAL_Driver/Src/stm32f0xx_hal_i2c.c ****   * @retval HAL status
 577:Drivers/STM32F0xx_HAL_Driver/Src/stm32f0xx_hal_i2c.c ****   */
 578:Drivers/STM32F0xx_HAL_Driver/Src/stm32f0xx_hal_i2c.c **** HAL_StatusTypeDef HAL_I2C_DeInit(I2C_HandleTypeDef *hi2c)
 579:Drivers/STM32F0xx_HAL_Driver/Src/stm32f0xx_hal_i2c.c **** {
 265              		.loc 1 579 1
 266              		.cfi_startproc
 267              		@ args = 0, pretend = 0, frame = 8
 268              		@ frame_needed = 1, uses_anonymous_args = 0
 269 0000 80B5     		push	{r7, lr}
 270              	.LCFI3:
 271              		.cfi_def_cfa_offset 8
 272              		.cfi_offset 7, -8
 273              		.cfi_offset 14, -4
 274 0002 82B0     		sub	sp, sp, #8
 275              	.LCFI4:
 276              		.cfi_def_cfa_offset 16
 277 0004 00AF     		add	r7, sp, #0
 278              	.LCFI5:
 279              		.cfi_def_cfa_register 7
ARM GAS  /tmp/ccVMOeEl.s 			page 16


 280 0006 7860     		str	r0, [r7, #4]
 580:Drivers/STM32F0xx_HAL_Driver/Src/stm32f0xx_hal_i2c.c ****   /* Check the I2C handle allocation */
 581:Drivers/STM32F0xx_HAL_Driver/Src/stm32f0xx_hal_i2c.c ****   if (hi2c == NULL)
 281              		.loc 1 581 6
 282 0008 7B68     		ldr	r3, [r7, #4]
 283 000a 002B     		cmp	r3, #0
 284 000c 01D1     		bne	.L11
 582:Drivers/STM32F0xx_HAL_Driver/Src/stm32f0xx_hal_i2c.c ****   {
 583:Drivers/STM32F0xx_HAL_Driver/Src/stm32f0xx_hal_i2c.c ****     return HAL_ERROR;
 285              		.loc 1 583 12
 286 000e 0123     		movs	r3, #1
 287 0010 22E0     		b	.L12
 288              	.L11:
 584:Drivers/STM32F0xx_HAL_Driver/Src/stm32f0xx_hal_i2c.c ****   }
 585:Drivers/STM32F0xx_HAL_Driver/Src/stm32f0xx_hal_i2c.c **** 
 586:Drivers/STM32F0xx_HAL_Driver/Src/stm32f0xx_hal_i2c.c ****   /* Check the parameters */
 587:Drivers/STM32F0xx_HAL_Driver/Src/stm32f0xx_hal_i2c.c ****   assert_param(IS_I2C_ALL_INSTANCE(hi2c->Instance));
 588:Drivers/STM32F0xx_HAL_Driver/Src/stm32f0xx_hal_i2c.c **** 
 589:Drivers/STM32F0xx_HAL_Driver/Src/stm32f0xx_hal_i2c.c ****   hi2c->State = HAL_I2C_STATE_BUSY;
 289              		.loc 1 589 15
 290 0012 7B68     		ldr	r3, [r7, #4]
 291 0014 4122     		movs	r2, #65
 292 0016 2421     		movs	r1, #36
 293 0018 9954     		strb	r1, [r3, r2]
 590:Drivers/STM32F0xx_HAL_Driver/Src/stm32f0xx_hal_i2c.c **** 
 591:Drivers/STM32F0xx_HAL_Driver/Src/stm32f0xx_hal_i2c.c ****   /* Disable the I2C Peripheral Clock */
 592:Drivers/STM32F0xx_HAL_Driver/Src/stm32f0xx_hal_i2c.c ****   __HAL_I2C_DISABLE(hi2c);
 294              		.loc 1 592 3
 295 001a 7B68     		ldr	r3, [r7, #4]
 296 001c 1B68     		ldr	r3, [r3]
 297 001e 1A68     		ldr	r2, [r3]
 298 0020 7B68     		ldr	r3, [r7, #4]
 299 0022 1B68     		ldr	r3, [r3]
 300 0024 0121     		movs	r1, #1
 301 0026 8A43     		bics	r2, r1
 302 0028 1A60     		str	r2, [r3]
 593:Drivers/STM32F0xx_HAL_Driver/Src/stm32f0xx_hal_i2c.c **** 
 594:Drivers/STM32F0xx_HAL_Driver/Src/stm32f0xx_hal_i2c.c **** #if (USE_HAL_I2C_REGISTER_CALLBACKS == 1)
 595:Drivers/STM32F0xx_HAL_Driver/Src/stm32f0xx_hal_i2c.c ****   if (hi2c->MspDeInitCallback == NULL)
 596:Drivers/STM32F0xx_HAL_Driver/Src/stm32f0xx_hal_i2c.c ****   {
 597:Drivers/STM32F0xx_HAL_Driver/Src/stm32f0xx_hal_i2c.c ****     hi2c->MspDeInitCallback = HAL_I2C_MspDeInit; /* Legacy weak MspDeInit  */
 598:Drivers/STM32F0xx_HAL_Driver/Src/stm32f0xx_hal_i2c.c ****   }
 599:Drivers/STM32F0xx_HAL_Driver/Src/stm32f0xx_hal_i2c.c **** 
 600:Drivers/STM32F0xx_HAL_Driver/Src/stm32f0xx_hal_i2c.c ****   /* DeInit the low level hardware: GPIO, CLOCK, NVIC */
 601:Drivers/STM32F0xx_HAL_Driver/Src/stm32f0xx_hal_i2c.c ****   hi2c->MspDeInitCallback(hi2c);
 602:Drivers/STM32F0xx_HAL_Driver/Src/stm32f0xx_hal_i2c.c **** #else
 603:Drivers/STM32F0xx_HAL_Driver/Src/stm32f0xx_hal_i2c.c ****   /* DeInit the low level hardware: GPIO, CLOCK, NVIC */
 604:Drivers/STM32F0xx_HAL_Driver/Src/stm32f0xx_hal_i2c.c ****   HAL_I2C_MspDeInit(hi2c);
 303              		.loc 1 604 3
 304 002a 7B68     		ldr	r3, [r7, #4]
 305 002c 1800     		movs	r0, r3
 306 002e FFF7FEFF 		bl	HAL_I2C_MspDeInit
 605:Drivers/STM32F0xx_HAL_Driver/Src/stm32f0xx_hal_i2c.c **** #endif /* USE_HAL_I2C_REGISTER_CALLBACKS */
 606:Drivers/STM32F0xx_HAL_Driver/Src/stm32f0xx_hal_i2c.c **** 
 607:Drivers/STM32F0xx_HAL_Driver/Src/stm32f0xx_hal_i2c.c ****   hi2c->ErrorCode = HAL_I2C_ERROR_NONE;
 307              		.loc 1 607 19
 308 0032 7B68     		ldr	r3, [r7, #4]
ARM GAS  /tmp/ccVMOeEl.s 			page 17


 309 0034 0022     		movs	r2, #0
 310 0036 5A64     		str	r2, [r3, #68]
 608:Drivers/STM32F0xx_HAL_Driver/Src/stm32f0xx_hal_i2c.c ****   hi2c->State = HAL_I2C_STATE_RESET;
 311              		.loc 1 608 15
 312 0038 7B68     		ldr	r3, [r7, #4]
 313 003a 4122     		movs	r2, #65
 314 003c 0021     		movs	r1, #0
 315 003e 9954     		strb	r1, [r3, r2]
 609:Drivers/STM32F0xx_HAL_Driver/Src/stm32f0xx_hal_i2c.c ****   hi2c->PreviousState = I2C_STATE_NONE;
 316              		.loc 1 609 23
 317 0040 7B68     		ldr	r3, [r7, #4]
 318 0042 0022     		movs	r2, #0
 319 0044 1A63     		str	r2, [r3, #48]
 610:Drivers/STM32F0xx_HAL_Driver/Src/stm32f0xx_hal_i2c.c ****   hi2c->Mode = HAL_I2C_MODE_NONE;
 320              		.loc 1 610 14
 321 0046 7B68     		ldr	r3, [r7, #4]
 322 0048 4222     		movs	r2, #66
 323 004a 0021     		movs	r1, #0
 324 004c 9954     		strb	r1, [r3, r2]
 611:Drivers/STM32F0xx_HAL_Driver/Src/stm32f0xx_hal_i2c.c **** 
 612:Drivers/STM32F0xx_HAL_Driver/Src/stm32f0xx_hal_i2c.c ****   /* Release Lock */
 613:Drivers/STM32F0xx_HAL_Driver/Src/stm32f0xx_hal_i2c.c ****   __HAL_UNLOCK(hi2c);
 325              		.loc 1 613 3
 326 004e 7B68     		ldr	r3, [r7, #4]
 327 0050 4022     		movs	r2, #64
 328 0052 0021     		movs	r1, #0
 329 0054 9954     		strb	r1, [r3, r2]
 614:Drivers/STM32F0xx_HAL_Driver/Src/stm32f0xx_hal_i2c.c **** 
 615:Drivers/STM32F0xx_HAL_Driver/Src/stm32f0xx_hal_i2c.c ****   return HAL_OK;
 330              		.loc 1 615 10
 331 0056 0023     		movs	r3, #0
 332              	.L12:
 616:Drivers/STM32F0xx_HAL_Driver/Src/stm32f0xx_hal_i2c.c **** }
 333              		.loc 1 616 1
 334 0058 1800     		movs	r0, r3
 335 005a BD46     		mov	sp, r7
 336 005c 02B0     		add	sp, sp, #8
 337              		@ sp needed
 338 005e 80BD     		pop	{r7, pc}
 339              		.cfi_endproc
 340              	.LFE41:
 342              		.section	.text.HAL_I2C_MspInit,"ax",%progbits
 343              		.align	1
 344              		.weak	HAL_I2C_MspInit
 345              		.syntax unified
 346              		.code	16
 347              		.thumb_func
 349              	HAL_I2C_MspInit:
 350              	.LFB42:
 617:Drivers/STM32F0xx_HAL_Driver/Src/stm32f0xx_hal_i2c.c **** 
 618:Drivers/STM32F0xx_HAL_Driver/Src/stm32f0xx_hal_i2c.c **** /**
 619:Drivers/STM32F0xx_HAL_Driver/Src/stm32f0xx_hal_i2c.c ****   * @brief Initialize the I2C MSP.
 620:Drivers/STM32F0xx_HAL_Driver/Src/stm32f0xx_hal_i2c.c ****   * @param  hi2c Pointer to a I2C_HandleTypeDef structure that contains
 621:Drivers/STM32F0xx_HAL_Driver/Src/stm32f0xx_hal_i2c.c ****   *                the configuration information for the specified I2C.
 622:Drivers/STM32F0xx_HAL_Driver/Src/stm32f0xx_hal_i2c.c ****   * @retval None
 623:Drivers/STM32F0xx_HAL_Driver/Src/stm32f0xx_hal_i2c.c ****   */
 624:Drivers/STM32F0xx_HAL_Driver/Src/stm32f0xx_hal_i2c.c **** __weak void HAL_I2C_MspInit(I2C_HandleTypeDef *hi2c)
ARM GAS  /tmp/ccVMOeEl.s 			page 18


 625:Drivers/STM32F0xx_HAL_Driver/Src/stm32f0xx_hal_i2c.c **** {
 351              		.loc 1 625 1
 352              		.cfi_startproc
 353              		@ args = 0, pretend = 0, frame = 8
 354              		@ frame_needed = 1, uses_anonymous_args = 0
 355 0000 80B5     		push	{r7, lr}
 356              	.LCFI6:
 357              		.cfi_def_cfa_offset 8
 358              		.cfi_offset 7, -8
 359              		.cfi_offset 14, -4
 360 0002 82B0     		sub	sp, sp, #8
 361              	.LCFI7:
 362              		.cfi_def_cfa_offset 16
 363 0004 00AF     		add	r7, sp, #0
 364              	.LCFI8:
 365              		.cfi_def_cfa_register 7
 366 0006 7860     		str	r0, [r7, #4]
 626:Drivers/STM32F0xx_HAL_Driver/Src/stm32f0xx_hal_i2c.c ****   /* Prevent unused argument(s) compilation warning */
 627:Drivers/STM32F0xx_HAL_Driver/Src/stm32f0xx_hal_i2c.c ****   UNUSED(hi2c);
 628:Drivers/STM32F0xx_HAL_Driver/Src/stm32f0xx_hal_i2c.c **** 
 629:Drivers/STM32F0xx_HAL_Driver/Src/stm32f0xx_hal_i2c.c ****   /* NOTE : This function should not be modified, when the callback is needed,
 630:Drivers/STM32F0xx_HAL_Driver/Src/stm32f0xx_hal_i2c.c ****             the HAL_I2C_MspInit could be implemented in the user file
 631:Drivers/STM32F0xx_HAL_Driver/Src/stm32f0xx_hal_i2c.c ****    */
 632:Drivers/STM32F0xx_HAL_Driver/Src/stm32f0xx_hal_i2c.c **** }
 367              		.loc 1 632 1
 368 0008 C046     		nop
 369 000a BD46     		mov	sp, r7
 370 000c 02B0     		add	sp, sp, #8
 371              		@ sp needed
 372 000e 80BD     		pop	{r7, pc}
 373              		.cfi_endproc
 374              	.LFE42:
 376              		.section	.text.HAL_I2C_MspDeInit,"ax",%progbits
 377              		.align	1
 378              		.weak	HAL_I2C_MspDeInit
 379              		.syntax unified
 380              		.code	16
 381              		.thumb_func
 383              	HAL_I2C_MspDeInit:
 384              	.LFB43:
 633:Drivers/STM32F0xx_HAL_Driver/Src/stm32f0xx_hal_i2c.c **** 
 634:Drivers/STM32F0xx_HAL_Driver/Src/stm32f0xx_hal_i2c.c **** /**
 635:Drivers/STM32F0xx_HAL_Driver/Src/stm32f0xx_hal_i2c.c ****   * @brief DeInitialize the I2C MSP.
 636:Drivers/STM32F0xx_HAL_Driver/Src/stm32f0xx_hal_i2c.c ****   * @param  hi2c Pointer to a I2C_HandleTypeDef structure that contains
 637:Drivers/STM32F0xx_HAL_Driver/Src/stm32f0xx_hal_i2c.c ****   *                the configuration information for the specified I2C.
 638:Drivers/STM32F0xx_HAL_Driver/Src/stm32f0xx_hal_i2c.c ****   * @retval None
 639:Drivers/STM32F0xx_HAL_Driver/Src/stm32f0xx_hal_i2c.c ****   */
 640:Drivers/STM32F0xx_HAL_Driver/Src/stm32f0xx_hal_i2c.c **** __weak void HAL_I2C_MspDeInit(I2C_HandleTypeDef *hi2c)
 641:Drivers/STM32F0xx_HAL_Driver/Src/stm32f0xx_hal_i2c.c **** {
 385              		.loc 1 641 1
 386              		.cfi_startproc
 387              		@ args = 0, pretend = 0, frame = 8
 388              		@ frame_needed = 1, uses_anonymous_args = 0
 389 0000 80B5     		push	{r7, lr}
 390              	.LCFI9:
 391              		.cfi_def_cfa_offset 8
 392              		.cfi_offset 7, -8
ARM GAS  /tmp/ccVMOeEl.s 			page 19


 393              		.cfi_offset 14, -4
 394 0002 82B0     		sub	sp, sp, #8
 395              	.LCFI10:
 396              		.cfi_def_cfa_offset 16
 397 0004 00AF     		add	r7, sp, #0
 398              	.LCFI11:
 399              		.cfi_def_cfa_register 7
 400 0006 7860     		str	r0, [r7, #4]
 642:Drivers/STM32F0xx_HAL_Driver/Src/stm32f0xx_hal_i2c.c ****   /* Prevent unused argument(s) compilation warning */
 643:Drivers/STM32F0xx_HAL_Driver/Src/stm32f0xx_hal_i2c.c ****   UNUSED(hi2c);
 644:Drivers/STM32F0xx_HAL_Driver/Src/stm32f0xx_hal_i2c.c **** 
 645:Drivers/STM32F0xx_HAL_Driver/Src/stm32f0xx_hal_i2c.c ****   /* NOTE : This function should not be modified, when the callback is needed,
 646:Drivers/STM32F0xx_HAL_Driver/Src/stm32f0xx_hal_i2c.c ****             the HAL_I2C_MspDeInit could be implemented in the user file
 647:Drivers/STM32F0xx_HAL_Driver/Src/stm32f0xx_hal_i2c.c ****    */
 648:Drivers/STM32F0xx_HAL_Driver/Src/stm32f0xx_hal_i2c.c **** }
 401              		.loc 1 648 1
 402 0008 C046     		nop
 403 000a BD46     		mov	sp, r7
 404 000c 02B0     		add	sp, sp, #8
 405              		@ sp needed
 406 000e 80BD     		pop	{r7, pc}
 407              		.cfi_endproc
 408              	.LFE43:
 410              		.section	.text.HAL_I2C_Master_Transmit,"ax",%progbits
 411              		.align	1
 412              		.global	HAL_I2C_Master_Transmit
 413              		.syntax unified
 414              		.code	16
 415              		.thumb_func
 417              	HAL_I2C_Master_Transmit:
 418              	.LFB44:
 649:Drivers/STM32F0xx_HAL_Driver/Src/stm32f0xx_hal_i2c.c **** 
 650:Drivers/STM32F0xx_HAL_Driver/Src/stm32f0xx_hal_i2c.c **** #if (USE_HAL_I2C_REGISTER_CALLBACKS == 1)
 651:Drivers/STM32F0xx_HAL_Driver/Src/stm32f0xx_hal_i2c.c **** /**
 652:Drivers/STM32F0xx_HAL_Driver/Src/stm32f0xx_hal_i2c.c ****   * @brief  Register a User I2C Callback
 653:Drivers/STM32F0xx_HAL_Driver/Src/stm32f0xx_hal_i2c.c ****   *         To be used instead of the weak predefined callback
 654:Drivers/STM32F0xx_HAL_Driver/Src/stm32f0xx_hal_i2c.c ****   * @param  hi2c Pointer to a I2C_HandleTypeDef structure that contains
 655:Drivers/STM32F0xx_HAL_Driver/Src/stm32f0xx_hal_i2c.c ****   *                the configuration information for the specified I2C.
 656:Drivers/STM32F0xx_HAL_Driver/Src/stm32f0xx_hal_i2c.c ****   * @param  CallbackID ID of the callback to be registered
 657:Drivers/STM32F0xx_HAL_Driver/Src/stm32f0xx_hal_i2c.c ****   *         This parameter can be one of the following values:
 658:Drivers/STM32F0xx_HAL_Driver/Src/stm32f0xx_hal_i2c.c ****   *          @arg @ref HAL_I2C_MASTER_TX_COMPLETE_CB_ID Master Tx Transfer completed callback ID
 659:Drivers/STM32F0xx_HAL_Driver/Src/stm32f0xx_hal_i2c.c ****   *          @arg @ref HAL_I2C_MASTER_RX_COMPLETE_CB_ID Master Rx Transfer completed callback ID
 660:Drivers/STM32F0xx_HAL_Driver/Src/stm32f0xx_hal_i2c.c ****   *          @arg @ref HAL_I2C_SLAVE_TX_COMPLETE_CB_ID Slave Tx Transfer completed callback ID
 661:Drivers/STM32F0xx_HAL_Driver/Src/stm32f0xx_hal_i2c.c ****   *          @arg @ref HAL_I2C_SLAVE_RX_COMPLETE_CB_ID Slave Rx Transfer completed callback ID
 662:Drivers/STM32F0xx_HAL_Driver/Src/stm32f0xx_hal_i2c.c ****   *          @arg @ref HAL_I2C_LISTEN_COMPLETE_CB_ID Listen Complete callback ID
 663:Drivers/STM32F0xx_HAL_Driver/Src/stm32f0xx_hal_i2c.c ****   *          @arg @ref HAL_I2C_MEM_TX_COMPLETE_CB_ID Memory Tx Transfer callback ID
 664:Drivers/STM32F0xx_HAL_Driver/Src/stm32f0xx_hal_i2c.c ****   *          @arg @ref HAL_I2C_MEM_RX_COMPLETE_CB_ID Memory Rx Transfer completed callback ID
 665:Drivers/STM32F0xx_HAL_Driver/Src/stm32f0xx_hal_i2c.c ****   *          @arg @ref HAL_I2C_ERROR_CB_ID Error callback ID
 666:Drivers/STM32F0xx_HAL_Driver/Src/stm32f0xx_hal_i2c.c ****   *          @arg @ref HAL_I2C_ABORT_CB_ID Abort callback ID
 667:Drivers/STM32F0xx_HAL_Driver/Src/stm32f0xx_hal_i2c.c ****   *          @arg @ref HAL_I2C_MSPINIT_CB_ID MspInit callback ID
 668:Drivers/STM32F0xx_HAL_Driver/Src/stm32f0xx_hal_i2c.c ****   *          @arg @ref HAL_I2C_MSPDEINIT_CB_ID MspDeInit callback ID
 669:Drivers/STM32F0xx_HAL_Driver/Src/stm32f0xx_hal_i2c.c ****   * @param  pCallback pointer to the Callback function
 670:Drivers/STM32F0xx_HAL_Driver/Src/stm32f0xx_hal_i2c.c ****   * @retval HAL status
 671:Drivers/STM32F0xx_HAL_Driver/Src/stm32f0xx_hal_i2c.c ****   */
 672:Drivers/STM32F0xx_HAL_Driver/Src/stm32f0xx_hal_i2c.c **** HAL_StatusTypeDef HAL_I2C_RegisterCallback(I2C_HandleTypeDef *hi2c, HAL_I2C_CallbackIDTypeDef Callb
 673:Drivers/STM32F0xx_HAL_Driver/Src/stm32f0xx_hal_i2c.c **** {
 674:Drivers/STM32F0xx_HAL_Driver/Src/stm32f0xx_hal_i2c.c ****   HAL_StatusTypeDef status = HAL_OK;
ARM GAS  /tmp/ccVMOeEl.s 			page 20


 675:Drivers/STM32F0xx_HAL_Driver/Src/stm32f0xx_hal_i2c.c **** 
 676:Drivers/STM32F0xx_HAL_Driver/Src/stm32f0xx_hal_i2c.c ****   if (pCallback == NULL)
 677:Drivers/STM32F0xx_HAL_Driver/Src/stm32f0xx_hal_i2c.c ****   {
 678:Drivers/STM32F0xx_HAL_Driver/Src/stm32f0xx_hal_i2c.c ****     /* Update the error code */
 679:Drivers/STM32F0xx_HAL_Driver/Src/stm32f0xx_hal_i2c.c ****     hi2c->ErrorCode |= HAL_I2C_ERROR_INVALID_CALLBACK;
 680:Drivers/STM32F0xx_HAL_Driver/Src/stm32f0xx_hal_i2c.c **** 
 681:Drivers/STM32F0xx_HAL_Driver/Src/stm32f0xx_hal_i2c.c ****     return HAL_ERROR;
 682:Drivers/STM32F0xx_HAL_Driver/Src/stm32f0xx_hal_i2c.c ****   }
 683:Drivers/STM32F0xx_HAL_Driver/Src/stm32f0xx_hal_i2c.c ****   /* Process locked */
 684:Drivers/STM32F0xx_HAL_Driver/Src/stm32f0xx_hal_i2c.c ****   __HAL_LOCK(hi2c);
 685:Drivers/STM32F0xx_HAL_Driver/Src/stm32f0xx_hal_i2c.c **** 
 686:Drivers/STM32F0xx_HAL_Driver/Src/stm32f0xx_hal_i2c.c ****   if (HAL_I2C_STATE_READY == hi2c->State)
 687:Drivers/STM32F0xx_HAL_Driver/Src/stm32f0xx_hal_i2c.c ****   {
 688:Drivers/STM32F0xx_HAL_Driver/Src/stm32f0xx_hal_i2c.c ****     switch (CallbackID)
 689:Drivers/STM32F0xx_HAL_Driver/Src/stm32f0xx_hal_i2c.c ****     {
 690:Drivers/STM32F0xx_HAL_Driver/Src/stm32f0xx_hal_i2c.c ****       case HAL_I2C_MASTER_TX_COMPLETE_CB_ID :
 691:Drivers/STM32F0xx_HAL_Driver/Src/stm32f0xx_hal_i2c.c ****         hi2c->MasterTxCpltCallback = pCallback;
 692:Drivers/STM32F0xx_HAL_Driver/Src/stm32f0xx_hal_i2c.c ****         break;
 693:Drivers/STM32F0xx_HAL_Driver/Src/stm32f0xx_hal_i2c.c **** 
 694:Drivers/STM32F0xx_HAL_Driver/Src/stm32f0xx_hal_i2c.c ****       case HAL_I2C_MASTER_RX_COMPLETE_CB_ID :
 695:Drivers/STM32F0xx_HAL_Driver/Src/stm32f0xx_hal_i2c.c ****         hi2c->MasterRxCpltCallback = pCallback;
 696:Drivers/STM32F0xx_HAL_Driver/Src/stm32f0xx_hal_i2c.c ****         break;
 697:Drivers/STM32F0xx_HAL_Driver/Src/stm32f0xx_hal_i2c.c **** 
 698:Drivers/STM32F0xx_HAL_Driver/Src/stm32f0xx_hal_i2c.c ****       case HAL_I2C_SLAVE_TX_COMPLETE_CB_ID :
 699:Drivers/STM32F0xx_HAL_Driver/Src/stm32f0xx_hal_i2c.c ****         hi2c->SlaveTxCpltCallback = pCallback;
 700:Drivers/STM32F0xx_HAL_Driver/Src/stm32f0xx_hal_i2c.c ****         break;
 701:Drivers/STM32F0xx_HAL_Driver/Src/stm32f0xx_hal_i2c.c **** 
 702:Drivers/STM32F0xx_HAL_Driver/Src/stm32f0xx_hal_i2c.c ****       case HAL_I2C_SLAVE_RX_COMPLETE_CB_ID :
 703:Drivers/STM32F0xx_HAL_Driver/Src/stm32f0xx_hal_i2c.c ****         hi2c->SlaveRxCpltCallback = pCallback;
 704:Drivers/STM32F0xx_HAL_Driver/Src/stm32f0xx_hal_i2c.c ****         break;
 705:Drivers/STM32F0xx_HAL_Driver/Src/stm32f0xx_hal_i2c.c **** 
 706:Drivers/STM32F0xx_HAL_Driver/Src/stm32f0xx_hal_i2c.c ****       case HAL_I2C_LISTEN_COMPLETE_CB_ID :
 707:Drivers/STM32F0xx_HAL_Driver/Src/stm32f0xx_hal_i2c.c ****         hi2c->ListenCpltCallback = pCallback;
 708:Drivers/STM32F0xx_HAL_Driver/Src/stm32f0xx_hal_i2c.c ****         break;
 709:Drivers/STM32F0xx_HAL_Driver/Src/stm32f0xx_hal_i2c.c **** 
 710:Drivers/STM32F0xx_HAL_Driver/Src/stm32f0xx_hal_i2c.c ****       case HAL_I2C_MEM_TX_COMPLETE_CB_ID :
 711:Drivers/STM32F0xx_HAL_Driver/Src/stm32f0xx_hal_i2c.c ****         hi2c->MemTxCpltCallback = pCallback;
 712:Drivers/STM32F0xx_HAL_Driver/Src/stm32f0xx_hal_i2c.c ****         break;
 713:Drivers/STM32F0xx_HAL_Driver/Src/stm32f0xx_hal_i2c.c **** 
 714:Drivers/STM32F0xx_HAL_Driver/Src/stm32f0xx_hal_i2c.c ****       case HAL_I2C_MEM_RX_COMPLETE_CB_ID :
 715:Drivers/STM32F0xx_HAL_Driver/Src/stm32f0xx_hal_i2c.c ****         hi2c->MemRxCpltCallback = pCallback;
 716:Drivers/STM32F0xx_HAL_Driver/Src/stm32f0xx_hal_i2c.c ****         break;
 717:Drivers/STM32F0xx_HAL_Driver/Src/stm32f0xx_hal_i2c.c **** 
 718:Drivers/STM32F0xx_HAL_Driver/Src/stm32f0xx_hal_i2c.c ****       case HAL_I2C_ERROR_CB_ID :
 719:Drivers/STM32F0xx_HAL_Driver/Src/stm32f0xx_hal_i2c.c ****         hi2c->ErrorCallback = pCallback;
 720:Drivers/STM32F0xx_HAL_Driver/Src/stm32f0xx_hal_i2c.c ****         break;
 721:Drivers/STM32F0xx_HAL_Driver/Src/stm32f0xx_hal_i2c.c **** 
 722:Drivers/STM32F0xx_HAL_Driver/Src/stm32f0xx_hal_i2c.c ****       case HAL_I2C_ABORT_CB_ID :
 723:Drivers/STM32F0xx_HAL_Driver/Src/stm32f0xx_hal_i2c.c ****         hi2c->AbortCpltCallback = pCallback;
 724:Drivers/STM32F0xx_HAL_Driver/Src/stm32f0xx_hal_i2c.c ****         break;
 725:Drivers/STM32F0xx_HAL_Driver/Src/stm32f0xx_hal_i2c.c **** 
 726:Drivers/STM32F0xx_HAL_Driver/Src/stm32f0xx_hal_i2c.c ****       case HAL_I2C_MSPINIT_CB_ID :
 727:Drivers/STM32F0xx_HAL_Driver/Src/stm32f0xx_hal_i2c.c ****         hi2c->MspInitCallback = pCallback;
 728:Drivers/STM32F0xx_HAL_Driver/Src/stm32f0xx_hal_i2c.c ****         break;
 729:Drivers/STM32F0xx_HAL_Driver/Src/stm32f0xx_hal_i2c.c **** 
 730:Drivers/STM32F0xx_HAL_Driver/Src/stm32f0xx_hal_i2c.c ****       case HAL_I2C_MSPDEINIT_CB_ID :
 731:Drivers/STM32F0xx_HAL_Driver/Src/stm32f0xx_hal_i2c.c ****         hi2c->MspDeInitCallback = pCallback;
ARM GAS  /tmp/ccVMOeEl.s 			page 21


 732:Drivers/STM32F0xx_HAL_Driver/Src/stm32f0xx_hal_i2c.c ****         break;
 733:Drivers/STM32F0xx_HAL_Driver/Src/stm32f0xx_hal_i2c.c **** 
 734:Drivers/STM32F0xx_HAL_Driver/Src/stm32f0xx_hal_i2c.c ****       default :
 735:Drivers/STM32F0xx_HAL_Driver/Src/stm32f0xx_hal_i2c.c ****         /* Update the error code */
 736:Drivers/STM32F0xx_HAL_Driver/Src/stm32f0xx_hal_i2c.c ****         hi2c->ErrorCode |= HAL_I2C_ERROR_INVALID_CALLBACK;
 737:Drivers/STM32F0xx_HAL_Driver/Src/stm32f0xx_hal_i2c.c **** 
 738:Drivers/STM32F0xx_HAL_Driver/Src/stm32f0xx_hal_i2c.c ****         /* Return error status */
 739:Drivers/STM32F0xx_HAL_Driver/Src/stm32f0xx_hal_i2c.c ****         status =  HAL_ERROR;
 740:Drivers/STM32F0xx_HAL_Driver/Src/stm32f0xx_hal_i2c.c ****         break;
 741:Drivers/STM32F0xx_HAL_Driver/Src/stm32f0xx_hal_i2c.c ****     }
 742:Drivers/STM32F0xx_HAL_Driver/Src/stm32f0xx_hal_i2c.c ****   }
 743:Drivers/STM32F0xx_HAL_Driver/Src/stm32f0xx_hal_i2c.c ****   else if (HAL_I2C_STATE_RESET == hi2c->State)
 744:Drivers/STM32F0xx_HAL_Driver/Src/stm32f0xx_hal_i2c.c ****   {
 745:Drivers/STM32F0xx_HAL_Driver/Src/stm32f0xx_hal_i2c.c ****     switch (CallbackID)
 746:Drivers/STM32F0xx_HAL_Driver/Src/stm32f0xx_hal_i2c.c ****     {
 747:Drivers/STM32F0xx_HAL_Driver/Src/stm32f0xx_hal_i2c.c ****       case HAL_I2C_MSPINIT_CB_ID :
 748:Drivers/STM32F0xx_HAL_Driver/Src/stm32f0xx_hal_i2c.c ****         hi2c->MspInitCallback = pCallback;
 749:Drivers/STM32F0xx_HAL_Driver/Src/stm32f0xx_hal_i2c.c ****         break;
 750:Drivers/STM32F0xx_HAL_Driver/Src/stm32f0xx_hal_i2c.c **** 
 751:Drivers/STM32F0xx_HAL_Driver/Src/stm32f0xx_hal_i2c.c ****       case HAL_I2C_MSPDEINIT_CB_ID :
 752:Drivers/STM32F0xx_HAL_Driver/Src/stm32f0xx_hal_i2c.c ****         hi2c->MspDeInitCallback = pCallback;
 753:Drivers/STM32F0xx_HAL_Driver/Src/stm32f0xx_hal_i2c.c ****         break;
 754:Drivers/STM32F0xx_HAL_Driver/Src/stm32f0xx_hal_i2c.c **** 
 755:Drivers/STM32F0xx_HAL_Driver/Src/stm32f0xx_hal_i2c.c ****       default :
 756:Drivers/STM32F0xx_HAL_Driver/Src/stm32f0xx_hal_i2c.c ****         /* Update the error code */
 757:Drivers/STM32F0xx_HAL_Driver/Src/stm32f0xx_hal_i2c.c ****         hi2c->ErrorCode |= HAL_I2C_ERROR_INVALID_CALLBACK;
 758:Drivers/STM32F0xx_HAL_Driver/Src/stm32f0xx_hal_i2c.c **** 
 759:Drivers/STM32F0xx_HAL_Driver/Src/stm32f0xx_hal_i2c.c ****         /* Return error status */
 760:Drivers/STM32F0xx_HAL_Driver/Src/stm32f0xx_hal_i2c.c ****         status =  HAL_ERROR;
 761:Drivers/STM32F0xx_HAL_Driver/Src/stm32f0xx_hal_i2c.c ****         break;
 762:Drivers/STM32F0xx_HAL_Driver/Src/stm32f0xx_hal_i2c.c ****     }
 763:Drivers/STM32F0xx_HAL_Driver/Src/stm32f0xx_hal_i2c.c ****   }
 764:Drivers/STM32F0xx_HAL_Driver/Src/stm32f0xx_hal_i2c.c ****   else
 765:Drivers/STM32F0xx_HAL_Driver/Src/stm32f0xx_hal_i2c.c ****   {
 766:Drivers/STM32F0xx_HAL_Driver/Src/stm32f0xx_hal_i2c.c ****     /* Update the error code */
 767:Drivers/STM32F0xx_HAL_Driver/Src/stm32f0xx_hal_i2c.c ****     hi2c->ErrorCode |= HAL_I2C_ERROR_INVALID_CALLBACK;
 768:Drivers/STM32F0xx_HAL_Driver/Src/stm32f0xx_hal_i2c.c **** 
 769:Drivers/STM32F0xx_HAL_Driver/Src/stm32f0xx_hal_i2c.c ****     /* Return error status */
 770:Drivers/STM32F0xx_HAL_Driver/Src/stm32f0xx_hal_i2c.c ****     status =  HAL_ERROR;
 771:Drivers/STM32F0xx_HAL_Driver/Src/stm32f0xx_hal_i2c.c ****   }
 772:Drivers/STM32F0xx_HAL_Driver/Src/stm32f0xx_hal_i2c.c **** 
 773:Drivers/STM32F0xx_HAL_Driver/Src/stm32f0xx_hal_i2c.c ****   /* Release Lock */
 774:Drivers/STM32F0xx_HAL_Driver/Src/stm32f0xx_hal_i2c.c ****   __HAL_UNLOCK(hi2c);
 775:Drivers/STM32F0xx_HAL_Driver/Src/stm32f0xx_hal_i2c.c ****   return status;
 776:Drivers/STM32F0xx_HAL_Driver/Src/stm32f0xx_hal_i2c.c **** }
 777:Drivers/STM32F0xx_HAL_Driver/Src/stm32f0xx_hal_i2c.c **** 
 778:Drivers/STM32F0xx_HAL_Driver/Src/stm32f0xx_hal_i2c.c **** /**
 779:Drivers/STM32F0xx_HAL_Driver/Src/stm32f0xx_hal_i2c.c ****   * @brief  Unregister an I2C Callback
 780:Drivers/STM32F0xx_HAL_Driver/Src/stm32f0xx_hal_i2c.c ****   *         I2C callback is redirected to the weak predefined callback
 781:Drivers/STM32F0xx_HAL_Driver/Src/stm32f0xx_hal_i2c.c ****   * @param  hi2c Pointer to a I2C_HandleTypeDef structure that contains
 782:Drivers/STM32F0xx_HAL_Driver/Src/stm32f0xx_hal_i2c.c ****   *                the configuration information for the specified I2C.
 783:Drivers/STM32F0xx_HAL_Driver/Src/stm32f0xx_hal_i2c.c ****   * @param  CallbackID ID of the callback to be unregistered
 784:Drivers/STM32F0xx_HAL_Driver/Src/stm32f0xx_hal_i2c.c ****   *         This parameter can be one of the following values:
 785:Drivers/STM32F0xx_HAL_Driver/Src/stm32f0xx_hal_i2c.c ****   *         This parameter can be one of the following values:
 786:Drivers/STM32F0xx_HAL_Driver/Src/stm32f0xx_hal_i2c.c ****   *          @arg @ref HAL_I2C_MASTER_TX_COMPLETE_CB_ID Master Tx Transfer completed callback ID
 787:Drivers/STM32F0xx_HAL_Driver/Src/stm32f0xx_hal_i2c.c ****   *          @arg @ref HAL_I2C_MASTER_RX_COMPLETE_CB_ID Master Rx Transfer completed callback ID
 788:Drivers/STM32F0xx_HAL_Driver/Src/stm32f0xx_hal_i2c.c ****   *          @arg @ref HAL_I2C_SLAVE_TX_COMPLETE_CB_ID Slave Tx Transfer completed callback ID
ARM GAS  /tmp/ccVMOeEl.s 			page 22


 789:Drivers/STM32F0xx_HAL_Driver/Src/stm32f0xx_hal_i2c.c ****   *          @arg @ref HAL_I2C_SLAVE_RX_COMPLETE_CB_ID Slave Rx Transfer completed callback ID
 790:Drivers/STM32F0xx_HAL_Driver/Src/stm32f0xx_hal_i2c.c ****   *          @arg @ref HAL_I2C_LISTEN_COMPLETE_CB_ID Listen Complete callback ID
 791:Drivers/STM32F0xx_HAL_Driver/Src/stm32f0xx_hal_i2c.c ****   *          @arg @ref HAL_I2C_MEM_TX_COMPLETE_CB_ID Memory Tx Transfer callback ID
 792:Drivers/STM32F0xx_HAL_Driver/Src/stm32f0xx_hal_i2c.c ****   *          @arg @ref HAL_I2C_MEM_RX_COMPLETE_CB_ID Memory Rx Transfer completed callback ID
 793:Drivers/STM32F0xx_HAL_Driver/Src/stm32f0xx_hal_i2c.c ****   *          @arg @ref HAL_I2C_ERROR_CB_ID Error callback ID
 794:Drivers/STM32F0xx_HAL_Driver/Src/stm32f0xx_hal_i2c.c ****   *          @arg @ref HAL_I2C_ABORT_CB_ID Abort callback ID
 795:Drivers/STM32F0xx_HAL_Driver/Src/stm32f0xx_hal_i2c.c ****   *          @arg @ref HAL_I2C_MSPINIT_CB_ID MspInit callback ID
 796:Drivers/STM32F0xx_HAL_Driver/Src/stm32f0xx_hal_i2c.c ****   *          @arg @ref HAL_I2C_MSPDEINIT_CB_ID MspDeInit callback ID
 797:Drivers/STM32F0xx_HAL_Driver/Src/stm32f0xx_hal_i2c.c ****   * @retval HAL status
 798:Drivers/STM32F0xx_HAL_Driver/Src/stm32f0xx_hal_i2c.c ****   */
 799:Drivers/STM32F0xx_HAL_Driver/Src/stm32f0xx_hal_i2c.c **** HAL_StatusTypeDef HAL_I2C_UnRegisterCallback(I2C_HandleTypeDef *hi2c, HAL_I2C_CallbackIDTypeDef Cal
 800:Drivers/STM32F0xx_HAL_Driver/Src/stm32f0xx_hal_i2c.c **** {
 801:Drivers/STM32F0xx_HAL_Driver/Src/stm32f0xx_hal_i2c.c ****   HAL_StatusTypeDef status = HAL_OK;
 802:Drivers/STM32F0xx_HAL_Driver/Src/stm32f0xx_hal_i2c.c **** 
 803:Drivers/STM32F0xx_HAL_Driver/Src/stm32f0xx_hal_i2c.c ****   /* Process locked */
 804:Drivers/STM32F0xx_HAL_Driver/Src/stm32f0xx_hal_i2c.c ****   __HAL_LOCK(hi2c);
 805:Drivers/STM32F0xx_HAL_Driver/Src/stm32f0xx_hal_i2c.c **** 
 806:Drivers/STM32F0xx_HAL_Driver/Src/stm32f0xx_hal_i2c.c ****   if (HAL_I2C_STATE_READY == hi2c->State)
 807:Drivers/STM32F0xx_HAL_Driver/Src/stm32f0xx_hal_i2c.c ****   {
 808:Drivers/STM32F0xx_HAL_Driver/Src/stm32f0xx_hal_i2c.c ****     switch (CallbackID)
 809:Drivers/STM32F0xx_HAL_Driver/Src/stm32f0xx_hal_i2c.c ****     {
 810:Drivers/STM32F0xx_HAL_Driver/Src/stm32f0xx_hal_i2c.c ****       case HAL_I2C_MASTER_TX_COMPLETE_CB_ID :
 811:Drivers/STM32F0xx_HAL_Driver/Src/stm32f0xx_hal_i2c.c ****         hi2c->MasterTxCpltCallback = HAL_I2C_MasterTxCpltCallback; /* Legacy weak MasterTxCpltCallb
 812:Drivers/STM32F0xx_HAL_Driver/Src/stm32f0xx_hal_i2c.c ****         break;
 813:Drivers/STM32F0xx_HAL_Driver/Src/stm32f0xx_hal_i2c.c **** 
 814:Drivers/STM32F0xx_HAL_Driver/Src/stm32f0xx_hal_i2c.c ****       case HAL_I2C_MASTER_RX_COMPLETE_CB_ID :
 815:Drivers/STM32F0xx_HAL_Driver/Src/stm32f0xx_hal_i2c.c ****         hi2c->MasterRxCpltCallback = HAL_I2C_MasterRxCpltCallback; /* Legacy weak MasterRxCpltCallb
 816:Drivers/STM32F0xx_HAL_Driver/Src/stm32f0xx_hal_i2c.c ****         break;
 817:Drivers/STM32F0xx_HAL_Driver/Src/stm32f0xx_hal_i2c.c **** 
 818:Drivers/STM32F0xx_HAL_Driver/Src/stm32f0xx_hal_i2c.c ****       case HAL_I2C_SLAVE_TX_COMPLETE_CB_ID :
 819:Drivers/STM32F0xx_HAL_Driver/Src/stm32f0xx_hal_i2c.c ****         hi2c->SlaveTxCpltCallback = HAL_I2C_SlaveTxCpltCallback;   /* Legacy weak SlaveTxCpltCallba
 820:Drivers/STM32F0xx_HAL_Driver/Src/stm32f0xx_hal_i2c.c ****         break;
 821:Drivers/STM32F0xx_HAL_Driver/Src/stm32f0xx_hal_i2c.c **** 
 822:Drivers/STM32F0xx_HAL_Driver/Src/stm32f0xx_hal_i2c.c ****       case HAL_I2C_SLAVE_RX_COMPLETE_CB_ID :
 823:Drivers/STM32F0xx_HAL_Driver/Src/stm32f0xx_hal_i2c.c ****         hi2c->SlaveRxCpltCallback = HAL_I2C_SlaveRxCpltCallback;   /* Legacy weak SlaveRxCpltCallba
 824:Drivers/STM32F0xx_HAL_Driver/Src/stm32f0xx_hal_i2c.c ****         break;
 825:Drivers/STM32F0xx_HAL_Driver/Src/stm32f0xx_hal_i2c.c **** 
 826:Drivers/STM32F0xx_HAL_Driver/Src/stm32f0xx_hal_i2c.c ****       case HAL_I2C_LISTEN_COMPLETE_CB_ID :
 827:Drivers/STM32F0xx_HAL_Driver/Src/stm32f0xx_hal_i2c.c ****         hi2c->ListenCpltCallback = HAL_I2C_ListenCpltCallback;     /* Legacy weak ListenCpltCallbac
 828:Drivers/STM32F0xx_HAL_Driver/Src/stm32f0xx_hal_i2c.c ****         break;
 829:Drivers/STM32F0xx_HAL_Driver/Src/stm32f0xx_hal_i2c.c **** 
 830:Drivers/STM32F0xx_HAL_Driver/Src/stm32f0xx_hal_i2c.c ****       case HAL_I2C_MEM_TX_COMPLETE_CB_ID :
 831:Drivers/STM32F0xx_HAL_Driver/Src/stm32f0xx_hal_i2c.c ****         hi2c->MemTxCpltCallback = HAL_I2C_MemTxCpltCallback;       /* Legacy weak MemTxCpltCallback
 832:Drivers/STM32F0xx_HAL_Driver/Src/stm32f0xx_hal_i2c.c ****         break;
 833:Drivers/STM32F0xx_HAL_Driver/Src/stm32f0xx_hal_i2c.c **** 
 834:Drivers/STM32F0xx_HAL_Driver/Src/stm32f0xx_hal_i2c.c ****       case HAL_I2C_MEM_RX_COMPLETE_CB_ID :
 835:Drivers/STM32F0xx_HAL_Driver/Src/stm32f0xx_hal_i2c.c ****         hi2c->MemRxCpltCallback = HAL_I2C_MemRxCpltCallback;       /* Legacy weak MemRxCpltCallback
 836:Drivers/STM32F0xx_HAL_Driver/Src/stm32f0xx_hal_i2c.c ****         break;
 837:Drivers/STM32F0xx_HAL_Driver/Src/stm32f0xx_hal_i2c.c **** 
 838:Drivers/STM32F0xx_HAL_Driver/Src/stm32f0xx_hal_i2c.c ****       case HAL_I2C_ERROR_CB_ID :
 839:Drivers/STM32F0xx_HAL_Driver/Src/stm32f0xx_hal_i2c.c ****         hi2c->ErrorCallback = HAL_I2C_ErrorCallback;               /* Legacy weak ErrorCallback    
 840:Drivers/STM32F0xx_HAL_Driver/Src/stm32f0xx_hal_i2c.c ****         break;
 841:Drivers/STM32F0xx_HAL_Driver/Src/stm32f0xx_hal_i2c.c **** 
 842:Drivers/STM32F0xx_HAL_Driver/Src/stm32f0xx_hal_i2c.c ****       case HAL_I2C_ABORT_CB_ID :
 843:Drivers/STM32F0xx_HAL_Driver/Src/stm32f0xx_hal_i2c.c ****         hi2c->AbortCpltCallback = HAL_I2C_AbortCpltCallback;       /* Legacy weak AbortCpltCallback
 844:Drivers/STM32F0xx_HAL_Driver/Src/stm32f0xx_hal_i2c.c ****         break;
 845:Drivers/STM32F0xx_HAL_Driver/Src/stm32f0xx_hal_i2c.c **** 
ARM GAS  /tmp/ccVMOeEl.s 			page 23


 846:Drivers/STM32F0xx_HAL_Driver/Src/stm32f0xx_hal_i2c.c ****       case HAL_I2C_MSPINIT_CB_ID :
 847:Drivers/STM32F0xx_HAL_Driver/Src/stm32f0xx_hal_i2c.c ****         hi2c->MspInitCallback = HAL_I2C_MspInit;                   /* Legacy weak MspInit          
 848:Drivers/STM32F0xx_HAL_Driver/Src/stm32f0xx_hal_i2c.c ****         break;
 849:Drivers/STM32F0xx_HAL_Driver/Src/stm32f0xx_hal_i2c.c **** 
 850:Drivers/STM32F0xx_HAL_Driver/Src/stm32f0xx_hal_i2c.c ****       case HAL_I2C_MSPDEINIT_CB_ID :
 851:Drivers/STM32F0xx_HAL_Driver/Src/stm32f0xx_hal_i2c.c ****         hi2c->MspDeInitCallback = HAL_I2C_MspDeInit;               /* Legacy weak MspDeInit        
 852:Drivers/STM32F0xx_HAL_Driver/Src/stm32f0xx_hal_i2c.c ****         break;
 853:Drivers/STM32F0xx_HAL_Driver/Src/stm32f0xx_hal_i2c.c **** 
 854:Drivers/STM32F0xx_HAL_Driver/Src/stm32f0xx_hal_i2c.c ****       default :
 855:Drivers/STM32F0xx_HAL_Driver/Src/stm32f0xx_hal_i2c.c ****         /* Update the error code */
 856:Drivers/STM32F0xx_HAL_Driver/Src/stm32f0xx_hal_i2c.c ****         hi2c->ErrorCode |= HAL_I2C_ERROR_INVALID_CALLBACK;
 857:Drivers/STM32F0xx_HAL_Driver/Src/stm32f0xx_hal_i2c.c **** 
 858:Drivers/STM32F0xx_HAL_Driver/Src/stm32f0xx_hal_i2c.c ****         /* Return error status */
 859:Drivers/STM32F0xx_HAL_Driver/Src/stm32f0xx_hal_i2c.c ****         status =  HAL_ERROR;
 860:Drivers/STM32F0xx_HAL_Driver/Src/stm32f0xx_hal_i2c.c ****         break;
 861:Drivers/STM32F0xx_HAL_Driver/Src/stm32f0xx_hal_i2c.c ****     }
 862:Drivers/STM32F0xx_HAL_Driver/Src/stm32f0xx_hal_i2c.c ****   }
 863:Drivers/STM32F0xx_HAL_Driver/Src/stm32f0xx_hal_i2c.c ****   else if (HAL_I2C_STATE_RESET == hi2c->State)
 864:Drivers/STM32F0xx_HAL_Driver/Src/stm32f0xx_hal_i2c.c ****   {
 865:Drivers/STM32F0xx_HAL_Driver/Src/stm32f0xx_hal_i2c.c ****     switch (CallbackID)
 866:Drivers/STM32F0xx_HAL_Driver/Src/stm32f0xx_hal_i2c.c ****     {
 867:Drivers/STM32F0xx_HAL_Driver/Src/stm32f0xx_hal_i2c.c ****       case HAL_I2C_MSPINIT_CB_ID :
 868:Drivers/STM32F0xx_HAL_Driver/Src/stm32f0xx_hal_i2c.c ****         hi2c->MspInitCallback = HAL_I2C_MspInit;                   /* Legacy weak MspInit          
 869:Drivers/STM32F0xx_HAL_Driver/Src/stm32f0xx_hal_i2c.c ****         break;
 870:Drivers/STM32F0xx_HAL_Driver/Src/stm32f0xx_hal_i2c.c **** 
 871:Drivers/STM32F0xx_HAL_Driver/Src/stm32f0xx_hal_i2c.c ****       case HAL_I2C_MSPDEINIT_CB_ID :
 872:Drivers/STM32F0xx_HAL_Driver/Src/stm32f0xx_hal_i2c.c ****         hi2c->MspDeInitCallback = HAL_I2C_MspDeInit;               /* Legacy weak MspDeInit        
 873:Drivers/STM32F0xx_HAL_Driver/Src/stm32f0xx_hal_i2c.c ****         break;
 874:Drivers/STM32F0xx_HAL_Driver/Src/stm32f0xx_hal_i2c.c **** 
 875:Drivers/STM32F0xx_HAL_Driver/Src/stm32f0xx_hal_i2c.c ****       default :
 876:Drivers/STM32F0xx_HAL_Driver/Src/stm32f0xx_hal_i2c.c ****         /* Update the error code */
 877:Drivers/STM32F0xx_HAL_Driver/Src/stm32f0xx_hal_i2c.c ****         hi2c->ErrorCode |= HAL_I2C_ERROR_INVALID_CALLBACK;
 878:Drivers/STM32F0xx_HAL_Driver/Src/stm32f0xx_hal_i2c.c **** 
 879:Drivers/STM32F0xx_HAL_Driver/Src/stm32f0xx_hal_i2c.c ****         /* Return error status */
 880:Drivers/STM32F0xx_HAL_Driver/Src/stm32f0xx_hal_i2c.c ****         status =  HAL_ERROR;
 881:Drivers/STM32F0xx_HAL_Driver/Src/stm32f0xx_hal_i2c.c ****         break;
 882:Drivers/STM32F0xx_HAL_Driver/Src/stm32f0xx_hal_i2c.c ****     }
 883:Drivers/STM32F0xx_HAL_Driver/Src/stm32f0xx_hal_i2c.c ****   }
 884:Drivers/STM32F0xx_HAL_Driver/Src/stm32f0xx_hal_i2c.c ****   else
 885:Drivers/STM32F0xx_HAL_Driver/Src/stm32f0xx_hal_i2c.c ****   {
 886:Drivers/STM32F0xx_HAL_Driver/Src/stm32f0xx_hal_i2c.c ****     /* Update the error code */
 887:Drivers/STM32F0xx_HAL_Driver/Src/stm32f0xx_hal_i2c.c ****     hi2c->ErrorCode |= HAL_I2C_ERROR_INVALID_CALLBACK;
 888:Drivers/STM32F0xx_HAL_Driver/Src/stm32f0xx_hal_i2c.c **** 
 889:Drivers/STM32F0xx_HAL_Driver/Src/stm32f0xx_hal_i2c.c ****     /* Return error status */
 890:Drivers/STM32F0xx_HAL_Driver/Src/stm32f0xx_hal_i2c.c ****     status =  HAL_ERROR;
 891:Drivers/STM32F0xx_HAL_Driver/Src/stm32f0xx_hal_i2c.c ****   }
 892:Drivers/STM32F0xx_HAL_Driver/Src/stm32f0xx_hal_i2c.c **** 
 893:Drivers/STM32F0xx_HAL_Driver/Src/stm32f0xx_hal_i2c.c ****   /* Release Lock */
 894:Drivers/STM32F0xx_HAL_Driver/Src/stm32f0xx_hal_i2c.c ****   __HAL_UNLOCK(hi2c);
 895:Drivers/STM32F0xx_HAL_Driver/Src/stm32f0xx_hal_i2c.c ****   return status;
 896:Drivers/STM32F0xx_HAL_Driver/Src/stm32f0xx_hal_i2c.c **** }
 897:Drivers/STM32F0xx_HAL_Driver/Src/stm32f0xx_hal_i2c.c **** 
 898:Drivers/STM32F0xx_HAL_Driver/Src/stm32f0xx_hal_i2c.c **** /**
 899:Drivers/STM32F0xx_HAL_Driver/Src/stm32f0xx_hal_i2c.c ****   * @brief  Register the Slave Address Match I2C Callback
 900:Drivers/STM32F0xx_HAL_Driver/Src/stm32f0xx_hal_i2c.c ****   *         To be used instead of the weak HAL_I2C_AddrCallback() predefined callback
 901:Drivers/STM32F0xx_HAL_Driver/Src/stm32f0xx_hal_i2c.c ****   * @param  hi2c Pointer to a I2C_HandleTypeDef structure that contains
 902:Drivers/STM32F0xx_HAL_Driver/Src/stm32f0xx_hal_i2c.c ****   *                the configuration information for the specified I2C.
ARM GAS  /tmp/ccVMOeEl.s 			page 24


 903:Drivers/STM32F0xx_HAL_Driver/Src/stm32f0xx_hal_i2c.c ****   * @param  pCallback pointer to the Address Match Callback function
 904:Drivers/STM32F0xx_HAL_Driver/Src/stm32f0xx_hal_i2c.c ****   * @retval HAL status
 905:Drivers/STM32F0xx_HAL_Driver/Src/stm32f0xx_hal_i2c.c ****   */
 906:Drivers/STM32F0xx_HAL_Driver/Src/stm32f0xx_hal_i2c.c **** HAL_StatusTypeDef HAL_I2C_RegisterAddrCallback(I2C_HandleTypeDef *hi2c, pI2C_AddrCallbackTypeDef pC
 907:Drivers/STM32F0xx_HAL_Driver/Src/stm32f0xx_hal_i2c.c **** {
 908:Drivers/STM32F0xx_HAL_Driver/Src/stm32f0xx_hal_i2c.c ****   HAL_StatusTypeDef status = HAL_OK;
 909:Drivers/STM32F0xx_HAL_Driver/Src/stm32f0xx_hal_i2c.c **** 
 910:Drivers/STM32F0xx_HAL_Driver/Src/stm32f0xx_hal_i2c.c ****   if (pCallback == NULL)
 911:Drivers/STM32F0xx_HAL_Driver/Src/stm32f0xx_hal_i2c.c ****   {
 912:Drivers/STM32F0xx_HAL_Driver/Src/stm32f0xx_hal_i2c.c ****     /* Update the error code */
 913:Drivers/STM32F0xx_HAL_Driver/Src/stm32f0xx_hal_i2c.c ****     hi2c->ErrorCode |= HAL_I2C_ERROR_INVALID_CALLBACK;
 914:Drivers/STM32F0xx_HAL_Driver/Src/stm32f0xx_hal_i2c.c **** 
 915:Drivers/STM32F0xx_HAL_Driver/Src/stm32f0xx_hal_i2c.c ****     return HAL_ERROR;
 916:Drivers/STM32F0xx_HAL_Driver/Src/stm32f0xx_hal_i2c.c ****   }
 917:Drivers/STM32F0xx_HAL_Driver/Src/stm32f0xx_hal_i2c.c ****   /* Process locked */
 918:Drivers/STM32F0xx_HAL_Driver/Src/stm32f0xx_hal_i2c.c ****   __HAL_LOCK(hi2c);
 919:Drivers/STM32F0xx_HAL_Driver/Src/stm32f0xx_hal_i2c.c **** 
 920:Drivers/STM32F0xx_HAL_Driver/Src/stm32f0xx_hal_i2c.c ****   if (HAL_I2C_STATE_READY == hi2c->State)
 921:Drivers/STM32F0xx_HAL_Driver/Src/stm32f0xx_hal_i2c.c ****   {
 922:Drivers/STM32F0xx_HAL_Driver/Src/stm32f0xx_hal_i2c.c ****     hi2c->AddrCallback = pCallback;
 923:Drivers/STM32F0xx_HAL_Driver/Src/stm32f0xx_hal_i2c.c ****   }
 924:Drivers/STM32F0xx_HAL_Driver/Src/stm32f0xx_hal_i2c.c ****   else
 925:Drivers/STM32F0xx_HAL_Driver/Src/stm32f0xx_hal_i2c.c ****   {
 926:Drivers/STM32F0xx_HAL_Driver/Src/stm32f0xx_hal_i2c.c ****     /* Update the error code */
 927:Drivers/STM32F0xx_HAL_Driver/Src/stm32f0xx_hal_i2c.c ****     hi2c->ErrorCode |= HAL_I2C_ERROR_INVALID_CALLBACK;
 928:Drivers/STM32F0xx_HAL_Driver/Src/stm32f0xx_hal_i2c.c **** 
 929:Drivers/STM32F0xx_HAL_Driver/Src/stm32f0xx_hal_i2c.c ****     /* Return error status */
 930:Drivers/STM32F0xx_HAL_Driver/Src/stm32f0xx_hal_i2c.c ****     status =  HAL_ERROR;
 931:Drivers/STM32F0xx_HAL_Driver/Src/stm32f0xx_hal_i2c.c ****   }
 932:Drivers/STM32F0xx_HAL_Driver/Src/stm32f0xx_hal_i2c.c **** 
 933:Drivers/STM32F0xx_HAL_Driver/Src/stm32f0xx_hal_i2c.c ****   /* Release Lock */
 934:Drivers/STM32F0xx_HAL_Driver/Src/stm32f0xx_hal_i2c.c ****   __HAL_UNLOCK(hi2c);
 935:Drivers/STM32F0xx_HAL_Driver/Src/stm32f0xx_hal_i2c.c ****   return status;
 936:Drivers/STM32F0xx_HAL_Driver/Src/stm32f0xx_hal_i2c.c **** }
 937:Drivers/STM32F0xx_HAL_Driver/Src/stm32f0xx_hal_i2c.c **** 
 938:Drivers/STM32F0xx_HAL_Driver/Src/stm32f0xx_hal_i2c.c **** /**
 939:Drivers/STM32F0xx_HAL_Driver/Src/stm32f0xx_hal_i2c.c ****   * @brief  UnRegister the Slave Address Match I2C Callback
 940:Drivers/STM32F0xx_HAL_Driver/Src/stm32f0xx_hal_i2c.c ****   *         Info Ready I2C Callback is redirected to the weak HAL_I2C_AddrCallback() predefined cal
 941:Drivers/STM32F0xx_HAL_Driver/Src/stm32f0xx_hal_i2c.c ****   * @param  hi2c Pointer to a I2C_HandleTypeDef structure that contains
 942:Drivers/STM32F0xx_HAL_Driver/Src/stm32f0xx_hal_i2c.c ****   *                the configuration information for the specified I2C.
 943:Drivers/STM32F0xx_HAL_Driver/Src/stm32f0xx_hal_i2c.c ****   * @retval HAL status
 944:Drivers/STM32F0xx_HAL_Driver/Src/stm32f0xx_hal_i2c.c ****   */
 945:Drivers/STM32F0xx_HAL_Driver/Src/stm32f0xx_hal_i2c.c **** HAL_StatusTypeDef HAL_I2C_UnRegisterAddrCallback(I2C_HandleTypeDef *hi2c)
 946:Drivers/STM32F0xx_HAL_Driver/Src/stm32f0xx_hal_i2c.c **** {
 947:Drivers/STM32F0xx_HAL_Driver/Src/stm32f0xx_hal_i2c.c ****   HAL_StatusTypeDef status = HAL_OK;
 948:Drivers/STM32F0xx_HAL_Driver/Src/stm32f0xx_hal_i2c.c **** 
 949:Drivers/STM32F0xx_HAL_Driver/Src/stm32f0xx_hal_i2c.c ****   /* Process locked */
 950:Drivers/STM32F0xx_HAL_Driver/Src/stm32f0xx_hal_i2c.c ****   __HAL_LOCK(hi2c);
 951:Drivers/STM32F0xx_HAL_Driver/Src/stm32f0xx_hal_i2c.c **** 
 952:Drivers/STM32F0xx_HAL_Driver/Src/stm32f0xx_hal_i2c.c ****   if (HAL_I2C_STATE_READY == hi2c->State)
 953:Drivers/STM32F0xx_HAL_Driver/Src/stm32f0xx_hal_i2c.c ****   {
 954:Drivers/STM32F0xx_HAL_Driver/Src/stm32f0xx_hal_i2c.c ****     hi2c->AddrCallback = HAL_I2C_AddrCallback; /* Legacy weak AddrCallback  */
 955:Drivers/STM32F0xx_HAL_Driver/Src/stm32f0xx_hal_i2c.c ****   }
 956:Drivers/STM32F0xx_HAL_Driver/Src/stm32f0xx_hal_i2c.c ****   else
 957:Drivers/STM32F0xx_HAL_Driver/Src/stm32f0xx_hal_i2c.c ****   {
 958:Drivers/STM32F0xx_HAL_Driver/Src/stm32f0xx_hal_i2c.c ****     /* Update the error code */
 959:Drivers/STM32F0xx_HAL_Driver/Src/stm32f0xx_hal_i2c.c ****     hi2c->ErrorCode |= HAL_I2C_ERROR_INVALID_CALLBACK;
ARM GAS  /tmp/ccVMOeEl.s 			page 25


 960:Drivers/STM32F0xx_HAL_Driver/Src/stm32f0xx_hal_i2c.c **** 
 961:Drivers/STM32F0xx_HAL_Driver/Src/stm32f0xx_hal_i2c.c ****     /* Return error status */
 962:Drivers/STM32F0xx_HAL_Driver/Src/stm32f0xx_hal_i2c.c ****     status =  HAL_ERROR;
 963:Drivers/STM32F0xx_HAL_Driver/Src/stm32f0xx_hal_i2c.c ****   }
 964:Drivers/STM32F0xx_HAL_Driver/Src/stm32f0xx_hal_i2c.c **** 
 965:Drivers/STM32F0xx_HAL_Driver/Src/stm32f0xx_hal_i2c.c ****   /* Release Lock */
 966:Drivers/STM32F0xx_HAL_Driver/Src/stm32f0xx_hal_i2c.c ****   __HAL_UNLOCK(hi2c);
 967:Drivers/STM32F0xx_HAL_Driver/Src/stm32f0xx_hal_i2c.c ****   return status;
 968:Drivers/STM32F0xx_HAL_Driver/Src/stm32f0xx_hal_i2c.c **** }
 969:Drivers/STM32F0xx_HAL_Driver/Src/stm32f0xx_hal_i2c.c **** 
 970:Drivers/STM32F0xx_HAL_Driver/Src/stm32f0xx_hal_i2c.c **** #endif /* USE_HAL_I2C_REGISTER_CALLBACKS */
 971:Drivers/STM32F0xx_HAL_Driver/Src/stm32f0xx_hal_i2c.c **** 
 972:Drivers/STM32F0xx_HAL_Driver/Src/stm32f0xx_hal_i2c.c **** /**
 973:Drivers/STM32F0xx_HAL_Driver/Src/stm32f0xx_hal_i2c.c ****   * @}
 974:Drivers/STM32F0xx_HAL_Driver/Src/stm32f0xx_hal_i2c.c ****   */
 975:Drivers/STM32F0xx_HAL_Driver/Src/stm32f0xx_hal_i2c.c **** 
 976:Drivers/STM32F0xx_HAL_Driver/Src/stm32f0xx_hal_i2c.c **** /** @defgroup I2C_Exported_Functions_Group2 Input and Output operation functions
 977:Drivers/STM32F0xx_HAL_Driver/Src/stm32f0xx_hal_i2c.c ****  *  @brief   Data transfers functions
 978:Drivers/STM32F0xx_HAL_Driver/Src/stm32f0xx_hal_i2c.c ****  *
 979:Drivers/STM32F0xx_HAL_Driver/Src/stm32f0xx_hal_i2c.c **** @verbatim
 980:Drivers/STM32F0xx_HAL_Driver/Src/stm32f0xx_hal_i2c.c ****  ===============================================================================
 981:Drivers/STM32F0xx_HAL_Driver/Src/stm32f0xx_hal_i2c.c ****                       ##### IO operation functions #####
 982:Drivers/STM32F0xx_HAL_Driver/Src/stm32f0xx_hal_i2c.c ****  ===============================================================================
 983:Drivers/STM32F0xx_HAL_Driver/Src/stm32f0xx_hal_i2c.c ****     [..]
 984:Drivers/STM32F0xx_HAL_Driver/Src/stm32f0xx_hal_i2c.c ****     This subsection provides a set of functions allowing to manage the I2C data
 985:Drivers/STM32F0xx_HAL_Driver/Src/stm32f0xx_hal_i2c.c ****     transfers.
 986:Drivers/STM32F0xx_HAL_Driver/Src/stm32f0xx_hal_i2c.c **** 
 987:Drivers/STM32F0xx_HAL_Driver/Src/stm32f0xx_hal_i2c.c ****     (#) There are two modes of transfer:
 988:Drivers/STM32F0xx_HAL_Driver/Src/stm32f0xx_hal_i2c.c ****        (++) Blocking mode : The communication is performed in the polling mode.
 989:Drivers/STM32F0xx_HAL_Driver/Src/stm32f0xx_hal_i2c.c ****             The status of all data processing is returned by the same function
 990:Drivers/STM32F0xx_HAL_Driver/Src/stm32f0xx_hal_i2c.c ****             after finishing transfer.
 991:Drivers/STM32F0xx_HAL_Driver/Src/stm32f0xx_hal_i2c.c ****        (++) No-Blocking mode : The communication is performed using Interrupts
 992:Drivers/STM32F0xx_HAL_Driver/Src/stm32f0xx_hal_i2c.c ****             or DMA. These functions return the status of the transfer startup.
 993:Drivers/STM32F0xx_HAL_Driver/Src/stm32f0xx_hal_i2c.c ****             The end of the data processing will be indicated through the
 994:Drivers/STM32F0xx_HAL_Driver/Src/stm32f0xx_hal_i2c.c ****             dedicated I2C IRQ when using Interrupt mode or the DMA IRQ when
 995:Drivers/STM32F0xx_HAL_Driver/Src/stm32f0xx_hal_i2c.c ****             using DMA mode.
 996:Drivers/STM32F0xx_HAL_Driver/Src/stm32f0xx_hal_i2c.c **** 
 997:Drivers/STM32F0xx_HAL_Driver/Src/stm32f0xx_hal_i2c.c ****     (#) Blocking mode functions are :
 998:Drivers/STM32F0xx_HAL_Driver/Src/stm32f0xx_hal_i2c.c ****         (++) HAL_I2C_Master_Transmit()
 999:Drivers/STM32F0xx_HAL_Driver/Src/stm32f0xx_hal_i2c.c ****         (++) HAL_I2C_Master_Receive()
1000:Drivers/STM32F0xx_HAL_Driver/Src/stm32f0xx_hal_i2c.c ****         (++) HAL_I2C_Slave_Transmit()
1001:Drivers/STM32F0xx_HAL_Driver/Src/stm32f0xx_hal_i2c.c ****         (++) HAL_I2C_Slave_Receive()
1002:Drivers/STM32F0xx_HAL_Driver/Src/stm32f0xx_hal_i2c.c ****         (++) HAL_I2C_Mem_Write()
1003:Drivers/STM32F0xx_HAL_Driver/Src/stm32f0xx_hal_i2c.c ****         (++) HAL_I2C_Mem_Read()
1004:Drivers/STM32F0xx_HAL_Driver/Src/stm32f0xx_hal_i2c.c ****         (++) HAL_I2C_IsDeviceReady()
1005:Drivers/STM32F0xx_HAL_Driver/Src/stm32f0xx_hal_i2c.c **** 
1006:Drivers/STM32F0xx_HAL_Driver/Src/stm32f0xx_hal_i2c.c ****     (#) No-Blocking mode functions with Interrupt are :
1007:Drivers/STM32F0xx_HAL_Driver/Src/stm32f0xx_hal_i2c.c ****         (++) HAL_I2C_Master_Transmit_IT()
1008:Drivers/STM32F0xx_HAL_Driver/Src/stm32f0xx_hal_i2c.c ****         (++) HAL_I2C_Master_Receive_IT()
1009:Drivers/STM32F0xx_HAL_Driver/Src/stm32f0xx_hal_i2c.c ****         (++) HAL_I2C_Slave_Transmit_IT()
1010:Drivers/STM32F0xx_HAL_Driver/Src/stm32f0xx_hal_i2c.c ****         (++) HAL_I2C_Slave_Receive_IT()
1011:Drivers/STM32F0xx_HAL_Driver/Src/stm32f0xx_hal_i2c.c ****         (++) HAL_I2C_Mem_Write_IT()
1012:Drivers/STM32F0xx_HAL_Driver/Src/stm32f0xx_hal_i2c.c ****         (++) HAL_I2C_Mem_Read_IT()
1013:Drivers/STM32F0xx_HAL_Driver/Src/stm32f0xx_hal_i2c.c ****         (++) HAL_I2C_Master_Seq_Transmit_IT()
1014:Drivers/STM32F0xx_HAL_Driver/Src/stm32f0xx_hal_i2c.c ****         (++) HAL_I2C_Master_Seq_Receive_IT()
1015:Drivers/STM32F0xx_HAL_Driver/Src/stm32f0xx_hal_i2c.c ****         (++) HAL_I2C_Slave_Seq_Transmit_IT()
1016:Drivers/STM32F0xx_HAL_Driver/Src/stm32f0xx_hal_i2c.c ****         (++) HAL_I2C_Slave_Seq_Receive_IT()
ARM GAS  /tmp/ccVMOeEl.s 			page 26


1017:Drivers/STM32F0xx_HAL_Driver/Src/stm32f0xx_hal_i2c.c ****         (++) HAL_I2C_EnableListen_IT()
1018:Drivers/STM32F0xx_HAL_Driver/Src/stm32f0xx_hal_i2c.c ****         (++) HAL_I2C_DisableListen_IT()
1019:Drivers/STM32F0xx_HAL_Driver/Src/stm32f0xx_hal_i2c.c ****         (++) HAL_I2C_Master_Abort_IT()
1020:Drivers/STM32F0xx_HAL_Driver/Src/stm32f0xx_hal_i2c.c **** 
1021:Drivers/STM32F0xx_HAL_Driver/Src/stm32f0xx_hal_i2c.c ****     (#) No-Blocking mode functions with DMA are :
1022:Drivers/STM32F0xx_HAL_Driver/Src/stm32f0xx_hal_i2c.c ****         (++) HAL_I2C_Master_Transmit_DMA()
1023:Drivers/STM32F0xx_HAL_Driver/Src/stm32f0xx_hal_i2c.c ****         (++) HAL_I2C_Master_Receive_DMA()
1024:Drivers/STM32F0xx_HAL_Driver/Src/stm32f0xx_hal_i2c.c ****         (++) HAL_I2C_Slave_Transmit_DMA()
1025:Drivers/STM32F0xx_HAL_Driver/Src/stm32f0xx_hal_i2c.c ****         (++) HAL_I2C_Slave_Receive_DMA()
1026:Drivers/STM32F0xx_HAL_Driver/Src/stm32f0xx_hal_i2c.c ****         (++) HAL_I2C_Mem_Write_DMA()
1027:Drivers/STM32F0xx_HAL_Driver/Src/stm32f0xx_hal_i2c.c ****         (++) HAL_I2C_Mem_Read_DMA()
1028:Drivers/STM32F0xx_HAL_Driver/Src/stm32f0xx_hal_i2c.c ****         (++) HAL_I2C_Master_Seq_Transmit_DMA()
1029:Drivers/STM32F0xx_HAL_Driver/Src/stm32f0xx_hal_i2c.c ****         (++) HAL_I2C_Master_Seq_Receive_DMA()
1030:Drivers/STM32F0xx_HAL_Driver/Src/stm32f0xx_hal_i2c.c ****         (++) HAL_I2C_Slave_Seq_Transmit_DMA()
1031:Drivers/STM32F0xx_HAL_Driver/Src/stm32f0xx_hal_i2c.c ****         (++) HAL_I2C_Slave_Seq_Receive_DMA()
1032:Drivers/STM32F0xx_HAL_Driver/Src/stm32f0xx_hal_i2c.c **** 
1033:Drivers/STM32F0xx_HAL_Driver/Src/stm32f0xx_hal_i2c.c ****     (#) A set of Transfer Complete Callbacks are provided in non Blocking mode:
1034:Drivers/STM32F0xx_HAL_Driver/Src/stm32f0xx_hal_i2c.c ****         (++) HAL_I2C_MasterTxCpltCallback()
1035:Drivers/STM32F0xx_HAL_Driver/Src/stm32f0xx_hal_i2c.c ****         (++) HAL_I2C_MasterRxCpltCallback()
1036:Drivers/STM32F0xx_HAL_Driver/Src/stm32f0xx_hal_i2c.c ****         (++) HAL_I2C_SlaveTxCpltCallback()
1037:Drivers/STM32F0xx_HAL_Driver/Src/stm32f0xx_hal_i2c.c ****         (++) HAL_I2C_SlaveRxCpltCallback()
1038:Drivers/STM32F0xx_HAL_Driver/Src/stm32f0xx_hal_i2c.c ****         (++) HAL_I2C_MemTxCpltCallback()
1039:Drivers/STM32F0xx_HAL_Driver/Src/stm32f0xx_hal_i2c.c ****         (++) HAL_I2C_MemRxCpltCallback()
1040:Drivers/STM32F0xx_HAL_Driver/Src/stm32f0xx_hal_i2c.c ****         (++) HAL_I2C_AddrCallback()
1041:Drivers/STM32F0xx_HAL_Driver/Src/stm32f0xx_hal_i2c.c ****         (++) HAL_I2C_ListenCpltCallback()
1042:Drivers/STM32F0xx_HAL_Driver/Src/stm32f0xx_hal_i2c.c ****         (++) HAL_I2C_ErrorCallback()
1043:Drivers/STM32F0xx_HAL_Driver/Src/stm32f0xx_hal_i2c.c ****         (++) HAL_I2C_AbortCpltCallback()
1044:Drivers/STM32F0xx_HAL_Driver/Src/stm32f0xx_hal_i2c.c **** 
1045:Drivers/STM32F0xx_HAL_Driver/Src/stm32f0xx_hal_i2c.c **** @endverbatim
1046:Drivers/STM32F0xx_HAL_Driver/Src/stm32f0xx_hal_i2c.c ****   * @{
1047:Drivers/STM32F0xx_HAL_Driver/Src/stm32f0xx_hal_i2c.c ****   */
1048:Drivers/STM32F0xx_HAL_Driver/Src/stm32f0xx_hal_i2c.c **** 
1049:Drivers/STM32F0xx_HAL_Driver/Src/stm32f0xx_hal_i2c.c **** /**
1050:Drivers/STM32F0xx_HAL_Driver/Src/stm32f0xx_hal_i2c.c ****   * @brief  Transmits in master mode an amount of data in blocking mode.
1051:Drivers/STM32F0xx_HAL_Driver/Src/stm32f0xx_hal_i2c.c ****   * @param  hi2c Pointer to a I2C_HandleTypeDef structure that contains
1052:Drivers/STM32F0xx_HAL_Driver/Src/stm32f0xx_hal_i2c.c ****   *                the configuration information for the specified I2C.
1053:Drivers/STM32F0xx_HAL_Driver/Src/stm32f0xx_hal_i2c.c ****   * @param  DevAddress Target device address: The device 7 bits address value
1054:Drivers/STM32F0xx_HAL_Driver/Src/stm32f0xx_hal_i2c.c ****   *         in datasheet must be shifted to the left before calling the interface
1055:Drivers/STM32F0xx_HAL_Driver/Src/stm32f0xx_hal_i2c.c ****   * @param  pData Pointer to data buffer
1056:Drivers/STM32F0xx_HAL_Driver/Src/stm32f0xx_hal_i2c.c ****   * @param  Size Amount of data to be sent
1057:Drivers/STM32F0xx_HAL_Driver/Src/stm32f0xx_hal_i2c.c ****   * @param  Timeout Timeout duration
1058:Drivers/STM32F0xx_HAL_Driver/Src/stm32f0xx_hal_i2c.c ****   * @retval HAL status
1059:Drivers/STM32F0xx_HAL_Driver/Src/stm32f0xx_hal_i2c.c ****   */
1060:Drivers/STM32F0xx_HAL_Driver/Src/stm32f0xx_hal_i2c.c **** HAL_StatusTypeDef HAL_I2C_Master_Transmit(I2C_HandleTypeDef *hi2c, uint16_t DevAddress, uint8_t *pD
1061:Drivers/STM32F0xx_HAL_Driver/Src/stm32f0xx_hal_i2c.c **** {
 419              		.loc 1 1061 1
 420              		.cfi_startproc
 421              		@ args = 4, pretend = 0, frame = 24
 422              		@ frame_needed = 1, uses_anonymous_args = 0
 423 0000 90B5     		push	{r4, r7, lr}
 424              	.LCFI12:
 425              		.cfi_def_cfa_offset 12
 426              		.cfi_offset 4, -12
 427              		.cfi_offset 7, -8
 428              		.cfi_offset 14, -4
 429 0002 89B0     		sub	sp, sp, #36
 430              	.LCFI13:
ARM GAS  /tmp/ccVMOeEl.s 			page 27


 431              		.cfi_def_cfa_offset 48
 432 0004 02AF     		add	r7, sp, #8
 433              	.LCFI14:
 434              		.cfi_def_cfa 7, 40
 435 0006 F860     		str	r0, [r7, #12]
 436 0008 0800     		movs	r0, r1
 437 000a 7A60     		str	r2, [r7, #4]
 438 000c 1900     		movs	r1, r3
 439 000e 0A23     		movs	r3, #10
 440 0010 FB18     		adds	r3, r7, r3
 441 0012 021C     		adds	r2, r0, #0
 442 0014 1A80     		strh	r2, [r3]
 443 0016 0823     		movs	r3, #8
 444 0018 FB18     		adds	r3, r7, r3
 445 001a 0A1C     		adds	r2, r1, #0
 446 001c 1A80     		strh	r2, [r3]
1062:Drivers/STM32F0xx_HAL_Driver/Src/stm32f0xx_hal_i2c.c ****   uint32_t tickstart;
1063:Drivers/STM32F0xx_HAL_Driver/Src/stm32f0xx_hal_i2c.c **** 
1064:Drivers/STM32F0xx_HAL_Driver/Src/stm32f0xx_hal_i2c.c ****   if (hi2c->State == HAL_I2C_STATE_READY)
 447              		.loc 1 1064 11
 448 001e FB68     		ldr	r3, [r7, #12]
 449 0020 4122     		movs	r2, #65
 450 0022 9B5C     		ldrb	r3, [r3, r2]
 451 0024 DBB2     		uxtb	r3, r3
 452              		.loc 1 1064 6
 453 0026 202B     		cmp	r3, #32
 454 0028 00D0     		beq	.LCB342
 455 002a E7E0     		b	.L16	@long jump
 456              	.LCB342:
1065:Drivers/STM32F0xx_HAL_Driver/Src/stm32f0xx_hal_i2c.c ****   {
1066:Drivers/STM32F0xx_HAL_Driver/Src/stm32f0xx_hal_i2c.c ****     /* Process Locked */
1067:Drivers/STM32F0xx_HAL_Driver/Src/stm32f0xx_hal_i2c.c ****     __HAL_LOCK(hi2c);
 457              		.loc 1 1067 5
 458 002c FB68     		ldr	r3, [r7, #12]
 459 002e 4022     		movs	r2, #64
 460 0030 9B5C     		ldrb	r3, [r3, r2]
 461 0032 012B     		cmp	r3, #1
 462 0034 01D1     		bne	.L17
 463              		.loc 1 1067 5 is_stmt 0 discriminator 1
 464 0036 0223     		movs	r3, #2
 465              		.loc 1 1067 5
 466 0038 E1E0     		b	.L18
 467              	.L17:
 468              		.loc 1 1067 5 discriminator 2
 469 003a FB68     		ldr	r3, [r7, #12]
 470 003c 4022     		movs	r2, #64
 471 003e 0121     		movs	r1, #1
 472 0040 9954     		strb	r1, [r3, r2]
1068:Drivers/STM32F0xx_HAL_Driver/Src/stm32f0xx_hal_i2c.c **** 
1069:Drivers/STM32F0xx_HAL_Driver/Src/stm32f0xx_hal_i2c.c ****     /* Init tickstart for timeout management*/
1070:Drivers/STM32F0xx_HAL_Driver/Src/stm32f0xx_hal_i2c.c ****     tickstart = HAL_GetTick();
 473              		.loc 1 1070 17 is_stmt 1
 474 0042 FFF7FEFF 		bl	HAL_GetTick
 475 0046 0300     		movs	r3, r0
 476 0048 7B61     		str	r3, [r7, #20]
1071:Drivers/STM32F0xx_HAL_Driver/Src/stm32f0xx_hal_i2c.c **** 
1072:Drivers/STM32F0xx_HAL_Driver/Src/stm32f0xx_hal_i2c.c ****     if (I2C_WaitOnFlagUntilTimeout(hi2c, I2C_FLAG_BUSY, SET, I2C_TIMEOUT_BUSY, tickstart) != HAL_OK
ARM GAS  /tmp/ccVMOeEl.s 			page 28


 477              		.loc 1 1072 9
 478 004a 8023     		movs	r3, #128
 479 004c 1902     		lsls	r1, r3, #8
 480 004e F868     		ldr	r0, [r7, #12]
 481 0050 7B69     		ldr	r3, [r7, #20]
 482 0052 0093     		str	r3, [sp]
 483 0054 1923     		movs	r3, #25
 484 0056 0122     		movs	r2, #1
 485 0058 FFF7FEFF 		bl	I2C_WaitOnFlagUntilTimeout
 486 005c 031E     		subs	r3, r0, #0
 487              		.loc 1 1072 8 discriminator 1
 488 005e 01D0     		beq	.L19
1073:Drivers/STM32F0xx_HAL_Driver/Src/stm32f0xx_hal_i2c.c ****     {
1074:Drivers/STM32F0xx_HAL_Driver/Src/stm32f0xx_hal_i2c.c ****       return HAL_ERROR;
 489              		.loc 1 1074 14
 490 0060 0123     		movs	r3, #1
 491 0062 CCE0     		b	.L18
 492              	.L19:
1075:Drivers/STM32F0xx_HAL_Driver/Src/stm32f0xx_hal_i2c.c ****     }
1076:Drivers/STM32F0xx_HAL_Driver/Src/stm32f0xx_hal_i2c.c **** 
1077:Drivers/STM32F0xx_HAL_Driver/Src/stm32f0xx_hal_i2c.c ****     hi2c->State     = HAL_I2C_STATE_BUSY_TX;
 493              		.loc 1 1077 21
 494 0064 FB68     		ldr	r3, [r7, #12]
 495 0066 4122     		movs	r2, #65
 496 0068 2121     		movs	r1, #33
 497 006a 9954     		strb	r1, [r3, r2]
1078:Drivers/STM32F0xx_HAL_Driver/Src/stm32f0xx_hal_i2c.c ****     hi2c->Mode      = HAL_I2C_MODE_MASTER;
 498              		.loc 1 1078 21
 499 006c FB68     		ldr	r3, [r7, #12]
 500 006e 4222     		movs	r2, #66
 501 0070 1021     		movs	r1, #16
 502 0072 9954     		strb	r1, [r3, r2]
1079:Drivers/STM32F0xx_HAL_Driver/Src/stm32f0xx_hal_i2c.c ****     hi2c->ErrorCode = HAL_I2C_ERROR_NONE;
 503              		.loc 1 1079 21
 504 0074 FB68     		ldr	r3, [r7, #12]
 505 0076 0022     		movs	r2, #0
 506 0078 5A64     		str	r2, [r3, #68]
1080:Drivers/STM32F0xx_HAL_Driver/Src/stm32f0xx_hal_i2c.c **** 
1081:Drivers/STM32F0xx_HAL_Driver/Src/stm32f0xx_hal_i2c.c ****     /* Prepare transfer parameters */
1082:Drivers/STM32F0xx_HAL_Driver/Src/stm32f0xx_hal_i2c.c ****     hi2c->pBuffPtr  = pData;
 507              		.loc 1 1082 21
 508 007a FB68     		ldr	r3, [r7, #12]
 509 007c 7A68     		ldr	r2, [r7, #4]
 510 007e 5A62     		str	r2, [r3, #36]
1083:Drivers/STM32F0xx_HAL_Driver/Src/stm32f0xx_hal_i2c.c ****     hi2c->XferCount = Size;
 511              		.loc 1 1083 21
 512 0080 FB68     		ldr	r3, [r7, #12]
 513 0082 0822     		movs	r2, #8
 514 0084 BA18     		adds	r2, r7, r2
 515 0086 1288     		ldrh	r2, [r2]
 516 0088 5A85     		strh	r2, [r3, #42]
1084:Drivers/STM32F0xx_HAL_Driver/Src/stm32f0xx_hal_i2c.c ****     hi2c->XferISR   = NULL;
 517              		.loc 1 1084 21
 518 008a FB68     		ldr	r3, [r7, #12]
 519 008c 0022     		movs	r2, #0
 520 008e 5A63     		str	r2, [r3, #52]
1085:Drivers/STM32F0xx_HAL_Driver/Src/stm32f0xx_hal_i2c.c **** 
ARM GAS  /tmp/ccVMOeEl.s 			page 29


1086:Drivers/STM32F0xx_HAL_Driver/Src/stm32f0xx_hal_i2c.c ****     /* Send Slave Address */
1087:Drivers/STM32F0xx_HAL_Driver/Src/stm32f0xx_hal_i2c.c ****     /* Set NBYTES to write and reload if hi2c->XferCount > MAX_NBYTE_SIZE and generate RESTART */
1088:Drivers/STM32F0xx_HAL_Driver/Src/stm32f0xx_hal_i2c.c ****     if (hi2c->XferCount > MAX_NBYTE_SIZE)
 521              		.loc 1 1088 13
 522 0090 FB68     		ldr	r3, [r7, #12]
 523 0092 5B8D     		ldrh	r3, [r3, #42]
 524 0094 9BB2     		uxth	r3, r3
 525              		.loc 1 1088 8
 526 0096 FF2B     		cmp	r3, #255
 527 0098 11D9     		bls	.L20
1089:Drivers/STM32F0xx_HAL_Driver/Src/stm32f0xx_hal_i2c.c ****     {
1090:Drivers/STM32F0xx_HAL_Driver/Src/stm32f0xx_hal_i2c.c ****       hi2c->XferSize = MAX_NBYTE_SIZE;
 528              		.loc 1 1090 22
 529 009a FB68     		ldr	r3, [r7, #12]
 530 009c FF22     		movs	r2, #255
 531 009e 1A85     		strh	r2, [r3, #40]
1091:Drivers/STM32F0xx_HAL_Driver/Src/stm32f0xx_hal_i2c.c ****       I2C_TransferConfig(hi2c, DevAddress, (uint8_t)hi2c->XferSize, I2C_RELOAD_MODE, I2C_GENERATE_S
 532              		.loc 1 1091 57
 533 00a0 FB68     		ldr	r3, [r7, #12]
 534 00a2 1B8D     		ldrh	r3, [r3, #40]
 535              		.loc 1 1091 7
 536 00a4 DAB2     		uxtb	r2, r3
 537 00a6 8023     		movs	r3, #128
 538 00a8 5C04     		lsls	r4, r3, #17
 539 00aa 0A23     		movs	r3, #10
 540 00ac FB18     		adds	r3, r7, r3
 541 00ae 1988     		ldrh	r1, [r3]
 542 00b0 F868     		ldr	r0, [r7, #12]
 543 00b2 554B     		ldr	r3, .L29
 544 00b4 0093     		str	r3, [sp]
 545 00b6 2300     		movs	r3, r4
 546 00b8 FFF7FEFF 		bl	I2C_TransferConfig
 547 00bc 75E0     		b	.L22
 548              	.L20:
1092:Drivers/STM32F0xx_HAL_Driver/Src/stm32f0xx_hal_i2c.c ****     }
1093:Drivers/STM32F0xx_HAL_Driver/Src/stm32f0xx_hal_i2c.c ****     else
1094:Drivers/STM32F0xx_HAL_Driver/Src/stm32f0xx_hal_i2c.c ****     {
1095:Drivers/STM32F0xx_HAL_Driver/Src/stm32f0xx_hal_i2c.c ****       hi2c->XferSize = hi2c->XferCount;
 549              		.loc 1 1095 28
 550 00be FB68     		ldr	r3, [r7, #12]
 551 00c0 5B8D     		ldrh	r3, [r3, #42]
 552 00c2 9AB2     		uxth	r2, r3
 553              		.loc 1 1095 22
 554 00c4 FB68     		ldr	r3, [r7, #12]
 555 00c6 1A85     		strh	r2, [r3, #40]
1096:Drivers/STM32F0xx_HAL_Driver/Src/stm32f0xx_hal_i2c.c ****       I2C_TransferConfig(hi2c, DevAddress, (uint8_t)hi2c->XferSize, I2C_AUTOEND_MODE, I2C_GENERATE_
 556              		.loc 1 1096 57
 557 00c8 FB68     		ldr	r3, [r7, #12]
 558 00ca 1B8D     		ldrh	r3, [r3, #40]
 559              		.loc 1 1096 7
 560 00cc DAB2     		uxtb	r2, r3
 561 00ce 8023     		movs	r3, #128
 562 00d0 9C04     		lsls	r4, r3, #18
 563 00d2 0A23     		movs	r3, #10
 564 00d4 FB18     		adds	r3, r7, r3
 565 00d6 1988     		ldrh	r1, [r3]
 566 00d8 F868     		ldr	r0, [r7, #12]
ARM GAS  /tmp/ccVMOeEl.s 			page 30


 567 00da 4B4B     		ldr	r3, .L29
 568 00dc 0093     		str	r3, [sp]
 569 00de 2300     		movs	r3, r4
 570 00e0 FFF7FEFF 		bl	I2C_TransferConfig
1097:Drivers/STM32F0xx_HAL_Driver/Src/stm32f0xx_hal_i2c.c ****     }
1098:Drivers/STM32F0xx_HAL_Driver/Src/stm32f0xx_hal_i2c.c **** 
1099:Drivers/STM32F0xx_HAL_Driver/Src/stm32f0xx_hal_i2c.c ****     while (hi2c->XferCount > 0U)
 571              		.loc 1 1099 11
 572 00e4 61E0     		b	.L22
 573              	.L27:
1100:Drivers/STM32F0xx_HAL_Driver/Src/stm32f0xx_hal_i2c.c ****     {
1101:Drivers/STM32F0xx_HAL_Driver/Src/stm32f0xx_hal_i2c.c ****       /* Wait until TXIS flag is set */
1102:Drivers/STM32F0xx_HAL_Driver/Src/stm32f0xx_hal_i2c.c ****       if (I2C_WaitOnTXISFlagUntilTimeout(hi2c, Timeout, tickstart) != HAL_OK)
 574              		.loc 1 1102 11
 575 00e6 7A69     		ldr	r2, [r7, #20]
 576 00e8 B96A     		ldr	r1, [r7, #40]
 577 00ea FB68     		ldr	r3, [r7, #12]
 578 00ec 1800     		movs	r0, r3
 579 00ee FFF7FEFF 		bl	I2C_WaitOnTXISFlagUntilTimeout
 580 00f2 031E     		subs	r3, r0, #0
 581              		.loc 1 1102 10 discriminator 1
 582 00f4 01D0     		beq	.L23
1103:Drivers/STM32F0xx_HAL_Driver/Src/stm32f0xx_hal_i2c.c ****       {
1104:Drivers/STM32F0xx_HAL_Driver/Src/stm32f0xx_hal_i2c.c ****         return HAL_ERROR;
 583              		.loc 1 1104 16
 584 00f6 0123     		movs	r3, #1
 585 00f8 81E0     		b	.L18
 586              	.L23:
1105:Drivers/STM32F0xx_HAL_Driver/Src/stm32f0xx_hal_i2c.c ****       }
1106:Drivers/STM32F0xx_HAL_Driver/Src/stm32f0xx_hal_i2c.c ****       /* Write data to TXDR */
1107:Drivers/STM32F0xx_HAL_Driver/Src/stm32f0xx_hal_i2c.c ****       hi2c->Instance->TXDR = *hi2c->pBuffPtr;
 587              		.loc 1 1107 35
 588 00fa FB68     		ldr	r3, [r7, #12]
 589 00fc 5B6A     		ldr	r3, [r3, #36]
 590              		.loc 1 1107 30
 591 00fe 1A78     		ldrb	r2, [r3]
 592              		.loc 1 1107 11
 593 0100 FB68     		ldr	r3, [r7, #12]
 594 0102 1B68     		ldr	r3, [r3]
 595              		.loc 1 1107 28
 596 0104 9A62     		str	r2, [r3, #40]
1108:Drivers/STM32F0xx_HAL_Driver/Src/stm32f0xx_hal_i2c.c **** 
1109:Drivers/STM32F0xx_HAL_Driver/Src/stm32f0xx_hal_i2c.c ****       /* Increment Buffer pointer */
1110:Drivers/STM32F0xx_HAL_Driver/Src/stm32f0xx_hal_i2c.c ****       hi2c->pBuffPtr++;
 597              		.loc 1 1110 11
 598 0106 FB68     		ldr	r3, [r7, #12]
 599 0108 5B6A     		ldr	r3, [r3, #36]
 600              		.loc 1 1110 21
 601 010a 5A1C     		adds	r2, r3, #1
 602 010c FB68     		ldr	r3, [r7, #12]
 603 010e 5A62     		str	r2, [r3, #36]
1111:Drivers/STM32F0xx_HAL_Driver/Src/stm32f0xx_hal_i2c.c **** 
1112:Drivers/STM32F0xx_HAL_Driver/Src/stm32f0xx_hal_i2c.c ****       hi2c->XferCount--;
 604              		.loc 1 1112 11
 605 0110 FB68     		ldr	r3, [r7, #12]
 606 0112 5B8D     		ldrh	r3, [r3, #42]
 607 0114 9BB2     		uxth	r3, r3
ARM GAS  /tmp/ccVMOeEl.s 			page 31


 608              		.loc 1 1112 22
 609 0116 013B     		subs	r3, r3, #1
 610 0118 9AB2     		uxth	r2, r3
 611 011a FB68     		ldr	r3, [r7, #12]
 612 011c 5A85     		strh	r2, [r3, #42]
1113:Drivers/STM32F0xx_HAL_Driver/Src/stm32f0xx_hal_i2c.c ****       hi2c->XferSize--;
 613              		.loc 1 1113 11
 614 011e FB68     		ldr	r3, [r7, #12]
 615 0120 1B8D     		ldrh	r3, [r3, #40]
 616              		.loc 1 1113 21
 617 0122 013B     		subs	r3, r3, #1
 618 0124 9AB2     		uxth	r2, r3
 619 0126 FB68     		ldr	r3, [r7, #12]
 620 0128 1A85     		strh	r2, [r3, #40]
1114:Drivers/STM32F0xx_HAL_Driver/Src/stm32f0xx_hal_i2c.c **** 
1115:Drivers/STM32F0xx_HAL_Driver/Src/stm32f0xx_hal_i2c.c ****       if ((hi2c->XferCount != 0U) && (hi2c->XferSize == 0U))
 621              		.loc 1 1115 16
 622 012a FB68     		ldr	r3, [r7, #12]
 623 012c 5B8D     		ldrh	r3, [r3, #42]
 624 012e 9BB2     		uxth	r3, r3
 625              		.loc 1 1115 10
 626 0130 002B     		cmp	r3, #0
 627 0132 3AD0     		beq	.L22
 628              		.loc 1 1115 43 discriminator 1
 629 0134 FB68     		ldr	r3, [r7, #12]
 630 0136 1B8D     		ldrh	r3, [r3, #40]
 631              		.loc 1 1115 35 discriminator 1
 632 0138 002B     		cmp	r3, #0
 633 013a 36D1     		bne	.L22
1116:Drivers/STM32F0xx_HAL_Driver/Src/stm32f0xx_hal_i2c.c ****       {
1117:Drivers/STM32F0xx_HAL_Driver/Src/stm32f0xx_hal_i2c.c ****         /* Wait until TCR flag is set */
1118:Drivers/STM32F0xx_HAL_Driver/Src/stm32f0xx_hal_i2c.c ****         if (I2C_WaitOnFlagUntilTimeout(hi2c, I2C_FLAG_TCR, RESET, Timeout, tickstart) != HAL_OK)
 634              		.loc 1 1118 13
 635 013c BA6A     		ldr	r2, [r7, #40]
 636 013e F868     		ldr	r0, [r7, #12]
 637 0140 7B69     		ldr	r3, [r7, #20]
 638 0142 0093     		str	r3, [sp]
 639 0144 1300     		movs	r3, r2
 640 0146 0022     		movs	r2, #0
 641 0148 8021     		movs	r1, #128
 642 014a FFF7FEFF 		bl	I2C_WaitOnFlagUntilTimeout
 643 014e 031E     		subs	r3, r0, #0
 644              		.loc 1 1118 12 discriminator 1
 645 0150 01D0     		beq	.L25
1119:Drivers/STM32F0xx_HAL_Driver/Src/stm32f0xx_hal_i2c.c ****         {
1120:Drivers/STM32F0xx_HAL_Driver/Src/stm32f0xx_hal_i2c.c ****           return HAL_ERROR;
 646              		.loc 1 1120 18
 647 0152 0123     		movs	r3, #1
 648 0154 53E0     		b	.L18
 649              	.L25:
1121:Drivers/STM32F0xx_HAL_Driver/Src/stm32f0xx_hal_i2c.c ****         }
1122:Drivers/STM32F0xx_HAL_Driver/Src/stm32f0xx_hal_i2c.c **** 
1123:Drivers/STM32F0xx_HAL_Driver/Src/stm32f0xx_hal_i2c.c ****         if (hi2c->XferCount > MAX_NBYTE_SIZE)
 650              		.loc 1 1123 17
 651 0156 FB68     		ldr	r3, [r7, #12]
 652 0158 5B8D     		ldrh	r3, [r3, #42]
 653 015a 9BB2     		uxth	r3, r3
ARM GAS  /tmp/ccVMOeEl.s 			page 32


 654              		.loc 1 1123 12
 655 015c FF2B     		cmp	r3, #255
 656 015e 11D9     		bls	.L26
1124:Drivers/STM32F0xx_HAL_Driver/Src/stm32f0xx_hal_i2c.c ****         {
1125:Drivers/STM32F0xx_HAL_Driver/Src/stm32f0xx_hal_i2c.c ****           hi2c->XferSize = MAX_NBYTE_SIZE;
 657              		.loc 1 1125 26
 658 0160 FB68     		ldr	r3, [r7, #12]
 659 0162 FF22     		movs	r2, #255
 660 0164 1A85     		strh	r2, [r3, #40]
1126:Drivers/STM32F0xx_HAL_Driver/Src/stm32f0xx_hal_i2c.c ****           I2C_TransferConfig(hi2c, DevAddress, (uint8_t)hi2c->XferSize, I2C_RELOAD_MODE, I2C_NO_STA
 661              		.loc 1 1126 61
 662 0166 FB68     		ldr	r3, [r7, #12]
 663 0168 1B8D     		ldrh	r3, [r3, #40]
 664              		.loc 1 1126 11
 665 016a DAB2     		uxtb	r2, r3
 666 016c 8023     		movs	r3, #128
 667 016e 5C04     		lsls	r4, r3, #17
 668 0170 0A23     		movs	r3, #10
 669 0172 FB18     		adds	r3, r7, r3
 670 0174 1988     		ldrh	r1, [r3]
 671 0176 F868     		ldr	r0, [r7, #12]
 672 0178 0023     		movs	r3, #0
 673 017a 0093     		str	r3, [sp]
 674 017c 2300     		movs	r3, r4
 675 017e FFF7FEFF 		bl	I2C_TransferConfig
 676 0182 12E0     		b	.L22
 677              	.L26:
1127:Drivers/STM32F0xx_HAL_Driver/Src/stm32f0xx_hal_i2c.c ****         }
1128:Drivers/STM32F0xx_HAL_Driver/Src/stm32f0xx_hal_i2c.c ****         else
1129:Drivers/STM32F0xx_HAL_Driver/Src/stm32f0xx_hal_i2c.c ****         {
1130:Drivers/STM32F0xx_HAL_Driver/Src/stm32f0xx_hal_i2c.c ****           hi2c->XferSize = hi2c->XferCount;
 678              		.loc 1 1130 32
 679 0184 FB68     		ldr	r3, [r7, #12]
 680 0186 5B8D     		ldrh	r3, [r3, #42]
 681 0188 9AB2     		uxth	r2, r3
 682              		.loc 1 1130 26
 683 018a FB68     		ldr	r3, [r7, #12]
 684 018c 1A85     		strh	r2, [r3, #40]
1131:Drivers/STM32F0xx_HAL_Driver/Src/stm32f0xx_hal_i2c.c ****           I2C_TransferConfig(hi2c, DevAddress, (uint8_t)hi2c->XferSize, I2C_AUTOEND_MODE, I2C_NO_ST
 685              		.loc 1 1131 61
 686 018e FB68     		ldr	r3, [r7, #12]
 687 0190 1B8D     		ldrh	r3, [r3, #40]
 688              		.loc 1 1131 11
 689 0192 DAB2     		uxtb	r2, r3
 690 0194 8023     		movs	r3, #128
 691 0196 9C04     		lsls	r4, r3, #18
 692 0198 0A23     		movs	r3, #10
 693 019a FB18     		adds	r3, r7, r3
 694 019c 1988     		ldrh	r1, [r3]
 695 019e F868     		ldr	r0, [r7, #12]
 696 01a0 0023     		movs	r3, #0
 697 01a2 0093     		str	r3, [sp]
 698 01a4 2300     		movs	r3, r4
 699 01a6 FFF7FEFF 		bl	I2C_TransferConfig
 700              	.L22:
1099:Drivers/STM32F0xx_HAL_Driver/Src/stm32f0xx_hal_i2c.c ****     {
 701              		.loc 1 1099 16
ARM GAS  /tmp/ccVMOeEl.s 			page 33


 702 01aa FB68     		ldr	r3, [r7, #12]
 703 01ac 5B8D     		ldrh	r3, [r3, #42]
 704 01ae 9BB2     		uxth	r3, r3
1099:Drivers/STM32F0xx_HAL_Driver/Src/stm32f0xx_hal_i2c.c ****     {
 705              		.loc 1 1099 28
 706 01b0 002B     		cmp	r3, #0
 707 01b2 98D1     		bne	.L27
1132:Drivers/STM32F0xx_HAL_Driver/Src/stm32f0xx_hal_i2c.c ****         }
1133:Drivers/STM32F0xx_HAL_Driver/Src/stm32f0xx_hal_i2c.c ****       }
1134:Drivers/STM32F0xx_HAL_Driver/Src/stm32f0xx_hal_i2c.c ****     }
1135:Drivers/STM32F0xx_HAL_Driver/Src/stm32f0xx_hal_i2c.c **** 
1136:Drivers/STM32F0xx_HAL_Driver/Src/stm32f0xx_hal_i2c.c ****     /* No need to Check TC flag, with AUTOEND mode the stop is automatically generated */
1137:Drivers/STM32F0xx_HAL_Driver/Src/stm32f0xx_hal_i2c.c ****     /* Wait until STOPF flag is set */
1138:Drivers/STM32F0xx_HAL_Driver/Src/stm32f0xx_hal_i2c.c ****     if (I2C_WaitOnSTOPFlagUntilTimeout(hi2c, Timeout, tickstart) != HAL_OK)
 708              		.loc 1 1138 9
 709 01b4 7A69     		ldr	r2, [r7, #20]
 710 01b6 B96A     		ldr	r1, [r7, #40]
 711 01b8 FB68     		ldr	r3, [r7, #12]
 712 01ba 1800     		movs	r0, r3
 713 01bc FFF7FEFF 		bl	I2C_WaitOnSTOPFlagUntilTimeout
 714 01c0 031E     		subs	r3, r0, #0
 715              		.loc 1 1138 8 discriminator 1
 716 01c2 01D0     		beq	.L28
1139:Drivers/STM32F0xx_HAL_Driver/Src/stm32f0xx_hal_i2c.c ****     {
1140:Drivers/STM32F0xx_HAL_Driver/Src/stm32f0xx_hal_i2c.c ****       return HAL_ERROR;
 717              		.loc 1 1140 14
 718 01c4 0123     		movs	r3, #1
 719 01c6 1AE0     		b	.L18
 720              	.L28:
1141:Drivers/STM32F0xx_HAL_Driver/Src/stm32f0xx_hal_i2c.c ****     }
1142:Drivers/STM32F0xx_HAL_Driver/Src/stm32f0xx_hal_i2c.c **** 
1143:Drivers/STM32F0xx_HAL_Driver/Src/stm32f0xx_hal_i2c.c ****     /* Clear STOP Flag */
1144:Drivers/STM32F0xx_HAL_Driver/Src/stm32f0xx_hal_i2c.c ****     __HAL_I2C_CLEAR_FLAG(hi2c, I2C_FLAG_STOPF);
 721              		.loc 1 1144 5
 722 01c8 FB68     		ldr	r3, [r7, #12]
 723 01ca 1B68     		ldr	r3, [r3]
 724 01cc 2022     		movs	r2, #32
 725 01ce DA61     		str	r2, [r3, #28]
1145:Drivers/STM32F0xx_HAL_Driver/Src/stm32f0xx_hal_i2c.c **** 
1146:Drivers/STM32F0xx_HAL_Driver/Src/stm32f0xx_hal_i2c.c ****     /* Clear Configuration Register 2 */
1147:Drivers/STM32F0xx_HAL_Driver/Src/stm32f0xx_hal_i2c.c ****     I2C_RESET_CR2(hi2c);
 726              		.loc 1 1147 5
 727 01d0 FB68     		ldr	r3, [r7, #12]
 728 01d2 1B68     		ldr	r3, [r3]
 729 01d4 5A68     		ldr	r2, [r3, #4]
 730 01d6 FB68     		ldr	r3, [r7, #12]
 731 01d8 1B68     		ldr	r3, [r3]
 732 01da 0C49     		ldr	r1, .L29+4
 733 01dc 0A40     		ands	r2, r1
 734 01de 5A60     		str	r2, [r3, #4]
1148:Drivers/STM32F0xx_HAL_Driver/Src/stm32f0xx_hal_i2c.c **** 
1149:Drivers/STM32F0xx_HAL_Driver/Src/stm32f0xx_hal_i2c.c ****     hi2c->State = HAL_I2C_STATE_READY;
 735              		.loc 1 1149 17
 736 01e0 FB68     		ldr	r3, [r7, #12]
 737 01e2 4122     		movs	r2, #65
 738 01e4 2021     		movs	r1, #32
 739 01e6 9954     		strb	r1, [r3, r2]
ARM GAS  /tmp/ccVMOeEl.s 			page 34


1150:Drivers/STM32F0xx_HAL_Driver/Src/stm32f0xx_hal_i2c.c ****     hi2c->Mode  = HAL_I2C_MODE_NONE;
 740              		.loc 1 1150 17
 741 01e8 FB68     		ldr	r3, [r7, #12]
 742 01ea 4222     		movs	r2, #66
 743 01ec 0021     		movs	r1, #0
 744 01ee 9954     		strb	r1, [r3, r2]
1151:Drivers/STM32F0xx_HAL_Driver/Src/stm32f0xx_hal_i2c.c **** 
1152:Drivers/STM32F0xx_HAL_Driver/Src/stm32f0xx_hal_i2c.c ****     /* Process Unlocked */
1153:Drivers/STM32F0xx_HAL_Driver/Src/stm32f0xx_hal_i2c.c ****     __HAL_UNLOCK(hi2c);
 745              		.loc 1 1153 5
 746 01f0 FB68     		ldr	r3, [r7, #12]
 747 01f2 4022     		movs	r2, #64
 748 01f4 0021     		movs	r1, #0
 749 01f6 9954     		strb	r1, [r3, r2]
1154:Drivers/STM32F0xx_HAL_Driver/Src/stm32f0xx_hal_i2c.c **** 
1155:Drivers/STM32F0xx_HAL_Driver/Src/stm32f0xx_hal_i2c.c ****     return HAL_OK;
 750              		.loc 1 1155 12
 751 01f8 0023     		movs	r3, #0
 752 01fa 00E0     		b	.L18
 753              	.L16:
1156:Drivers/STM32F0xx_HAL_Driver/Src/stm32f0xx_hal_i2c.c ****   }
1157:Drivers/STM32F0xx_HAL_Driver/Src/stm32f0xx_hal_i2c.c ****   else
1158:Drivers/STM32F0xx_HAL_Driver/Src/stm32f0xx_hal_i2c.c ****   {
1159:Drivers/STM32F0xx_HAL_Driver/Src/stm32f0xx_hal_i2c.c ****     return HAL_BUSY;
 754              		.loc 1 1159 12
 755 01fc 0223     		movs	r3, #2
 756              	.L18:
1160:Drivers/STM32F0xx_HAL_Driver/Src/stm32f0xx_hal_i2c.c ****   }
1161:Drivers/STM32F0xx_HAL_Driver/Src/stm32f0xx_hal_i2c.c **** }
 757              		.loc 1 1161 1
 758 01fe 1800     		movs	r0, r3
 759 0200 BD46     		mov	sp, r7
 760 0202 07B0     		add	sp, sp, #28
 761              		@ sp needed
 762 0204 90BD     		pop	{r4, r7, pc}
 763              	.L30:
 764 0206 C046     		.align	2
 765              	.L29:
 766 0208 00200080 		.word	-2147475456
 767 020c 00E800FE 		.word	-33495040
 768              		.cfi_endproc
 769              	.LFE44:
 771              		.section	.text.HAL_I2C_Master_Receive,"ax",%progbits
 772              		.align	1
 773              		.global	HAL_I2C_Master_Receive
 774              		.syntax unified
 775              		.code	16
 776              		.thumb_func
 778              	HAL_I2C_Master_Receive:
 779              	.LFB45:
1162:Drivers/STM32F0xx_HAL_Driver/Src/stm32f0xx_hal_i2c.c **** 
1163:Drivers/STM32F0xx_HAL_Driver/Src/stm32f0xx_hal_i2c.c **** /**
1164:Drivers/STM32F0xx_HAL_Driver/Src/stm32f0xx_hal_i2c.c ****   * @brief  Receives in master mode an amount of data in blocking mode.
1165:Drivers/STM32F0xx_HAL_Driver/Src/stm32f0xx_hal_i2c.c ****   * @param  hi2c Pointer to a I2C_HandleTypeDef structure that contains
1166:Drivers/STM32F0xx_HAL_Driver/Src/stm32f0xx_hal_i2c.c ****   *                the configuration information for the specified I2C.
1167:Drivers/STM32F0xx_HAL_Driver/Src/stm32f0xx_hal_i2c.c ****   * @param  DevAddress Target device address: The device 7 bits address value
1168:Drivers/STM32F0xx_HAL_Driver/Src/stm32f0xx_hal_i2c.c ****   *         in datasheet must be shifted to the left before calling the interface
ARM GAS  /tmp/ccVMOeEl.s 			page 35


1169:Drivers/STM32F0xx_HAL_Driver/Src/stm32f0xx_hal_i2c.c ****   * @param  pData Pointer to data buffer
1170:Drivers/STM32F0xx_HAL_Driver/Src/stm32f0xx_hal_i2c.c ****   * @param  Size Amount of data to be sent
1171:Drivers/STM32F0xx_HAL_Driver/Src/stm32f0xx_hal_i2c.c ****   * @param  Timeout Timeout duration
1172:Drivers/STM32F0xx_HAL_Driver/Src/stm32f0xx_hal_i2c.c ****   * @retval HAL status
1173:Drivers/STM32F0xx_HAL_Driver/Src/stm32f0xx_hal_i2c.c ****   */
1174:Drivers/STM32F0xx_HAL_Driver/Src/stm32f0xx_hal_i2c.c **** HAL_StatusTypeDef HAL_I2C_Master_Receive(I2C_HandleTypeDef *hi2c, uint16_t DevAddress, uint8_t *pDa
1175:Drivers/STM32F0xx_HAL_Driver/Src/stm32f0xx_hal_i2c.c **** {
 780              		.loc 1 1175 1
 781              		.cfi_startproc
 782              		@ args = 4, pretend = 0, frame = 24
 783              		@ frame_needed = 1, uses_anonymous_args = 0
 784 0000 90B5     		push	{r4, r7, lr}
 785              	.LCFI15:
 786              		.cfi_def_cfa_offset 12
 787              		.cfi_offset 4, -12
 788              		.cfi_offset 7, -8
 789              		.cfi_offset 14, -4
 790 0002 89B0     		sub	sp, sp, #36
 791              	.LCFI16:
 792              		.cfi_def_cfa_offset 48
 793 0004 02AF     		add	r7, sp, #8
 794              	.LCFI17:
 795              		.cfi_def_cfa 7, 40
 796 0006 F860     		str	r0, [r7, #12]
 797 0008 0800     		movs	r0, r1
 798 000a 7A60     		str	r2, [r7, #4]
 799 000c 1900     		movs	r1, r3
 800 000e 0A23     		movs	r3, #10
 801 0010 FB18     		adds	r3, r7, r3
 802 0012 021C     		adds	r2, r0, #0
 803 0014 1A80     		strh	r2, [r3]
 804 0016 0823     		movs	r3, #8
 805 0018 FB18     		adds	r3, r7, r3
 806 001a 0A1C     		adds	r2, r1, #0
 807 001c 1A80     		strh	r2, [r3]
1176:Drivers/STM32F0xx_HAL_Driver/Src/stm32f0xx_hal_i2c.c ****   uint32_t tickstart;
1177:Drivers/STM32F0xx_HAL_Driver/Src/stm32f0xx_hal_i2c.c **** 
1178:Drivers/STM32F0xx_HAL_Driver/Src/stm32f0xx_hal_i2c.c ****   if (hi2c->State == HAL_I2C_STATE_READY)
 808              		.loc 1 1178 11
 809 001e FB68     		ldr	r3, [r7, #12]
 810 0020 4122     		movs	r2, #65
 811 0022 9B5C     		ldrb	r3, [r3, r2]
 812 0024 DBB2     		uxtb	r3, r3
 813              		.loc 1 1178 6
 814 0026 202B     		cmp	r3, #32
 815 0028 00D0     		beq	.LCB654
 816 002a E8E0     		b	.L32	@long jump
 817              	.LCB654:
1179:Drivers/STM32F0xx_HAL_Driver/Src/stm32f0xx_hal_i2c.c ****   {
1180:Drivers/STM32F0xx_HAL_Driver/Src/stm32f0xx_hal_i2c.c ****     /* Process Locked */
1181:Drivers/STM32F0xx_HAL_Driver/Src/stm32f0xx_hal_i2c.c ****     __HAL_LOCK(hi2c);
 818              		.loc 1 1181 5
 819 002c FB68     		ldr	r3, [r7, #12]
 820 002e 4022     		movs	r2, #64
 821 0030 9B5C     		ldrb	r3, [r3, r2]
 822 0032 012B     		cmp	r3, #1
 823 0034 01D1     		bne	.L33
ARM GAS  /tmp/ccVMOeEl.s 			page 36


 824              		.loc 1 1181 5 is_stmt 0 discriminator 1
 825 0036 0223     		movs	r3, #2
 826              		.loc 1 1181 5
 827 0038 E2E0     		b	.L34
 828              	.L33:
 829              		.loc 1 1181 5 discriminator 2
 830 003a FB68     		ldr	r3, [r7, #12]
 831 003c 4022     		movs	r2, #64
 832 003e 0121     		movs	r1, #1
 833 0040 9954     		strb	r1, [r3, r2]
1182:Drivers/STM32F0xx_HAL_Driver/Src/stm32f0xx_hal_i2c.c **** 
1183:Drivers/STM32F0xx_HAL_Driver/Src/stm32f0xx_hal_i2c.c ****     /* Init tickstart for timeout management*/
1184:Drivers/STM32F0xx_HAL_Driver/Src/stm32f0xx_hal_i2c.c ****     tickstart = HAL_GetTick();
 834              		.loc 1 1184 17 is_stmt 1
 835 0042 FFF7FEFF 		bl	HAL_GetTick
 836 0046 0300     		movs	r3, r0
 837 0048 7B61     		str	r3, [r7, #20]
1185:Drivers/STM32F0xx_HAL_Driver/Src/stm32f0xx_hal_i2c.c **** 
1186:Drivers/STM32F0xx_HAL_Driver/Src/stm32f0xx_hal_i2c.c ****     if (I2C_WaitOnFlagUntilTimeout(hi2c, I2C_FLAG_BUSY, SET, I2C_TIMEOUT_BUSY, tickstart) != HAL_OK
 838              		.loc 1 1186 9
 839 004a 8023     		movs	r3, #128
 840 004c 1902     		lsls	r1, r3, #8
 841 004e F868     		ldr	r0, [r7, #12]
 842 0050 7B69     		ldr	r3, [r7, #20]
 843 0052 0093     		str	r3, [sp]
 844 0054 1923     		movs	r3, #25
 845 0056 0122     		movs	r2, #1
 846 0058 FFF7FEFF 		bl	I2C_WaitOnFlagUntilTimeout
 847 005c 031E     		subs	r3, r0, #0
 848              		.loc 1 1186 8 discriminator 1
 849 005e 01D0     		beq	.L35
1187:Drivers/STM32F0xx_HAL_Driver/Src/stm32f0xx_hal_i2c.c ****     {
1188:Drivers/STM32F0xx_HAL_Driver/Src/stm32f0xx_hal_i2c.c ****       return HAL_ERROR;
 850              		.loc 1 1188 14
 851 0060 0123     		movs	r3, #1
 852 0062 CDE0     		b	.L34
 853              	.L35:
1189:Drivers/STM32F0xx_HAL_Driver/Src/stm32f0xx_hal_i2c.c ****     }
1190:Drivers/STM32F0xx_HAL_Driver/Src/stm32f0xx_hal_i2c.c **** 
1191:Drivers/STM32F0xx_HAL_Driver/Src/stm32f0xx_hal_i2c.c ****     hi2c->State     = HAL_I2C_STATE_BUSY_RX;
 854              		.loc 1 1191 21
 855 0064 FB68     		ldr	r3, [r7, #12]
 856 0066 4122     		movs	r2, #65
 857 0068 2221     		movs	r1, #34
 858 006a 9954     		strb	r1, [r3, r2]
1192:Drivers/STM32F0xx_HAL_Driver/Src/stm32f0xx_hal_i2c.c ****     hi2c->Mode      = HAL_I2C_MODE_MASTER;
 859              		.loc 1 1192 21
 860 006c FB68     		ldr	r3, [r7, #12]
 861 006e 4222     		movs	r2, #66
 862 0070 1021     		movs	r1, #16
 863 0072 9954     		strb	r1, [r3, r2]
1193:Drivers/STM32F0xx_HAL_Driver/Src/stm32f0xx_hal_i2c.c ****     hi2c->ErrorCode = HAL_I2C_ERROR_NONE;
 864              		.loc 1 1193 21
 865 0074 FB68     		ldr	r3, [r7, #12]
 866 0076 0022     		movs	r2, #0
 867 0078 5A64     		str	r2, [r3, #68]
1194:Drivers/STM32F0xx_HAL_Driver/Src/stm32f0xx_hal_i2c.c **** 
ARM GAS  /tmp/ccVMOeEl.s 			page 37


1195:Drivers/STM32F0xx_HAL_Driver/Src/stm32f0xx_hal_i2c.c ****     /* Prepare transfer parameters */
1196:Drivers/STM32F0xx_HAL_Driver/Src/stm32f0xx_hal_i2c.c ****     hi2c->pBuffPtr  = pData;
 868              		.loc 1 1196 21
 869 007a FB68     		ldr	r3, [r7, #12]
 870 007c 7A68     		ldr	r2, [r7, #4]
 871 007e 5A62     		str	r2, [r3, #36]
1197:Drivers/STM32F0xx_HAL_Driver/Src/stm32f0xx_hal_i2c.c ****     hi2c->XferCount = Size;
 872              		.loc 1 1197 21
 873 0080 FB68     		ldr	r3, [r7, #12]
 874 0082 0822     		movs	r2, #8
 875 0084 BA18     		adds	r2, r7, r2
 876 0086 1288     		ldrh	r2, [r2]
 877 0088 5A85     		strh	r2, [r3, #42]
1198:Drivers/STM32F0xx_HAL_Driver/Src/stm32f0xx_hal_i2c.c ****     hi2c->XferISR   = NULL;
 878              		.loc 1 1198 21
 879 008a FB68     		ldr	r3, [r7, #12]
 880 008c 0022     		movs	r2, #0
 881 008e 5A63     		str	r2, [r3, #52]
1199:Drivers/STM32F0xx_HAL_Driver/Src/stm32f0xx_hal_i2c.c **** 
1200:Drivers/STM32F0xx_HAL_Driver/Src/stm32f0xx_hal_i2c.c ****     /* Send Slave Address */
1201:Drivers/STM32F0xx_HAL_Driver/Src/stm32f0xx_hal_i2c.c ****     /* Set NBYTES to write and reload if hi2c->XferCount > MAX_NBYTE_SIZE and generate RESTART */
1202:Drivers/STM32F0xx_HAL_Driver/Src/stm32f0xx_hal_i2c.c ****     if (hi2c->XferCount > MAX_NBYTE_SIZE)
 882              		.loc 1 1202 13
 883 0090 FB68     		ldr	r3, [r7, #12]
 884 0092 5B8D     		ldrh	r3, [r3, #42]
 885 0094 9BB2     		uxth	r3, r3
 886              		.loc 1 1202 8
 887 0096 FF2B     		cmp	r3, #255
 888 0098 11D9     		bls	.L36
1203:Drivers/STM32F0xx_HAL_Driver/Src/stm32f0xx_hal_i2c.c ****     {
1204:Drivers/STM32F0xx_HAL_Driver/Src/stm32f0xx_hal_i2c.c ****       hi2c->XferSize = MAX_NBYTE_SIZE;
 889              		.loc 1 1204 22
 890 009a FB68     		ldr	r3, [r7, #12]
 891 009c FF22     		movs	r2, #255
 892 009e 1A85     		strh	r2, [r3, #40]
1205:Drivers/STM32F0xx_HAL_Driver/Src/stm32f0xx_hal_i2c.c ****       I2C_TransferConfig(hi2c, DevAddress, (uint8_t)hi2c->XferSize, I2C_RELOAD_MODE, I2C_GENERATE_S
 893              		.loc 1 1205 57
 894 00a0 FB68     		ldr	r3, [r7, #12]
 895 00a2 1B8D     		ldrh	r3, [r3, #40]
 896              		.loc 1 1205 7
 897 00a4 DAB2     		uxtb	r2, r3
 898 00a6 8023     		movs	r3, #128
 899 00a8 5C04     		lsls	r4, r3, #17
 900 00aa 0A23     		movs	r3, #10
 901 00ac FB18     		adds	r3, r7, r3
 902 00ae 1988     		ldrh	r1, [r3]
 903 00b0 F868     		ldr	r0, [r7, #12]
 904 00b2 554B     		ldr	r3, .L45
 905 00b4 0093     		str	r3, [sp]
 906 00b6 2300     		movs	r3, r4
 907 00b8 FFF7FEFF 		bl	I2C_TransferConfig
 908 00bc 76E0     		b	.L38
 909              	.L36:
1206:Drivers/STM32F0xx_HAL_Driver/Src/stm32f0xx_hal_i2c.c ****     }
1207:Drivers/STM32F0xx_HAL_Driver/Src/stm32f0xx_hal_i2c.c ****     else
1208:Drivers/STM32F0xx_HAL_Driver/Src/stm32f0xx_hal_i2c.c ****     {
1209:Drivers/STM32F0xx_HAL_Driver/Src/stm32f0xx_hal_i2c.c ****       hi2c->XferSize = hi2c->XferCount;
ARM GAS  /tmp/ccVMOeEl.s 			page 38


 910              		.loc 1 1209 28
 911 00be FB68     		ldr	r3, [r7, #12]
 912 00c0 5B8D     		ldrh	r3, [r3, #42]
 913 00c2 9AB2     		uxth	r2, r3
 914              		.loc 1 1209 22
 915 00c4 FB68     		ldr	r3, [r7, #12]
 916 00c6 1A85     		strh	r2, [r3, #40]
1210:Drivers/STM32F0xx_HAL_Driver/Src/stm32f0xx_hal_i2c.c ****       I2C_TransferConfig(hi2c, DevAddress, (uint8_t)hi2c->XferSize, I2C_AUTOEND_MODE, I2C_GENERATE_
 917              		.loc 1 1210 57
 918 00c8 FB68     		ldr	r3, [r7, #12]
 919 00ca 1B8D     		ldrh	r3, [r3, #40]
 920              		.loc 1 1210 7
 921 00cc DAB2     		uxtb	r2, r3
 922 00ce 8023     		movs	r3, #128
 923 00d0 9C04     		lsls	r4, r3, #18
 924 00d2 0A23     		movs	r3, #10
 925 00d4 FB18     		adds	r3, r7, r3
 926 00d6 1988     		ldrh	r1, [r3]
 927 00d8 F868     		ldr	r0, [r7, #12]
 928 00da 4B4B     		ldr	r3, .L45
 929 00dc 0093     		str	r3, [sp]
 930 00de 2300     		movs	r3, r4
 931 00e0 FFF7FEFF 		bl	I2C_TransferConfig
1211:Drivers/STM32F0xx_HAL_Driver/Src/stm32f0xx_hal_i2c.c ****     }
1212:Drivers/STM32F0xx_HAL_Driver/Src/stm32f0xx_hal_i2c.c **** 
1213:Drivers/STM32F0xx_HAL_Driver/Src/stm32f0xx_hal_i2c.c ****     while (hi2c->XferCount > 0U)
 932              		.loc 1 1213 11
 933 00e4 62E0     		b	.L38
 934              	.L43:
1214:Drivers/STM32F0xx_HAL_Driver/Src/stm32f0xx_hal_i2c.c ****     {
1215:Drivers/STM32F0xx_HAL_Driver/Src/stm32f0xx_hal_i2c.c ****       /* Wait until RXNE flag is set */
1216:Drivers/STM32F0xx_HAL_Driver/Src/stm32f0xx_hal_i2c.c ****       if (I2C_WaitOnRXNEFlagUntilTimeout(hi2c, Timeout, tickstart) != HAL_OK)
 935              		.loc 1 1216 11
 936 00e6 7A69     		ldr	r2, [r7, #20]
 937 00e8 B96A     		ldr	r1, [r7, #40]
 938 00ea FB68     		ldr	r3, [r7, #12]
 939 00ec 1800     		movs	r0, r3
 940 00ee FFF7FEFF 		bl	I2C_WaitOnRXNEFlagUntilTimeout
 941 00f2 031E     		subs	r3, r0, #0
 942              		.loc 1 1216 10 discriminator 1
 943 00f4 01D0     		beq	.L39
1217:Drivers/STM32F0xx_HAL_Driver/Src/stm32f0xx_hal_i2c.c ****       {
1218:Drivers/STM32F0xx_HAL_Driver/Src/stm32f0xx_hal_i2c.c ****         return HAL_ERROR;
 944              		.loc 1 1218 16
 945 00f6 0123     		movs	r3, #1
 946 00f8 82E0     		b	.L34
 947              	.L39:
1219:Drivers/STM32F0xx_HAL_Driver/Src/stm32f0xx_hal_i2c.c ****       }
1220:Drivers/STM32F0xx_HAL_Driver/Src/stm32f0xx_hal_i2c.c **** 
1221:Drivers/STM32F0xx_HAL_Driver/Src/stm32f0xx_hal_i2c.c ****       /* Read data from RXDR */
1222:Drivers/STM32F0xx_HAL_Driver/Src/stm32f0xx_hal_i2c.c ****       *hi2c->pBuffPtr = (uint8_t)hi2c->Instance->RXDR;
 948              		.loc 1 1222 38
 949 00fa FB68     		ldr	r3, [r7, #12]
 950 00fc 1B68     		ldr	r3, [r3]
 951              		.loc 1 1222 48
 952 00fe 5A6A     		ldr	r2, [r3, #36]
 953              		.loc 1 1222 12
ARM GAS  /tmp/ccVMOeEl.s 			page 39


 954 0100 FB68     		ldr	r3, [r7, #12]
 955 0102 5B6A     		ldr	r3, [r3, #36]
 956              		.loc 1 1222 25
 957 0104 D2B2     		uxtb	r2, r2
 958              		.loc 1 1222 23
 959 0106 1A70     		strb	r2, [r3]
1223:Drivers/STM32F0xx_HAL_Driver/Src/stm32f0xx_hal_i2c.c **** 
1224:Drivers/STM32F0xx_HAL_Driver/Src/stm32f0xx_hal_i2c.c ****       /* Increment Buffer pointer */
1225:Drivers/STM32F0xx_HAL_Driver/Src/stm32f0xx_hal_i2c.c ****       hi2c->pBuffPtr++;
 960              		.loc 1 1225 11
 961 0108 FB68     		ldr	r3, [r7, #12]
 962 010a 5B6A     		ldr	r3, [r3, #36]
 963              		.loc 1 1225 21
 964 010c 5A1C     		adds	r2, r3, #1
 965 010e FB68     		ldr	r3, [r7, #12]
 966 0110 5A62     		str	r2, [r3, #36]
1226:Drivers/STM32F0xx_HAL_Driver/Src/stm32f0xx_hal_i2c.c **** 
1227:Drivers/STM32F0xx_HAL_Driver/Src/stm32f0xx_hal_i2c.c ****       hi2c->XferSize--;
 967              		.loc 1 1227 11
 968 0112 FB68     		ldr	r3, [r7, #12]
 969 0114 1B8D     		ldrh	r3, [r3, #40]
 970              		.loc 1 1227 21
 971 0116 013B     		subs	r3, r3, #1
 972 0118 9AB2     		uxth	r2, r3
 973 011a FB68     		ldr	r3, [r7, #12]
 974 011c 1A85     		strh	r2, [r3, #40]
1228:Drivers/STM32F0xx_HAL_Driver/Src/stm32f0xx_hal_i2c.c ****       hi2c->XferCount--;
 975              		.loc 1 1228 11
 976 011e FB68     		ldr	r3, [r7, #12]
 977 0120 5B8D     		ldrh	r3, [r3, #42]
 978 0122 9BB2     		uxth	r3, r3
 979              		.loc 1 1228 22
 980 0124 013B     		subs	r3, r3, #1
 981 0126 9AB2     		uxth	r2, r3
 982 0128 FB68     		ldr	r3, [r7, #12]
 983 012a 5A85     		strh	r2, [r3, #42]
1229:Drivers/STM32F0xx_HAL_Driver/Src/stm32f0xx_hal_i2c.c **** 
1230:Drivers/STM32F0xx_HAL_Driver/Src/stm32f0xx_hal_i2c.c ****       if ((hi2c->XferCount != 0U) && (hi2c->XferSize == 0U))
 984              		.loc 1 1230 16
 985 012c FB68     		ldr	r3, [r7, #12]
 986 012e 5B8D     		ldrh	r3, [r3, #42]
 987 0130 9BB2     		uxth	r3, r3
 988              		.loc 1 1230 10
 989 0132 002B     		cmp	r3, #0
 990 0134 3AD0     		beq	.L38
 991              		.loc 1 1230 43 discriminator 1
 992 0136 FB68     		ldr	r3, [r7, #12]
 993 0138 1B8D     		ldrh	r3, [r3, #40]
 994              		.loc 1 1230 35 discriminator 1
 995 013a 002B     		cmp	r3, #0
 996 013c 36D1     		bne	.L38
1231:Drivers/STM32F0xx_HAL_Driver/Src/stm32f0xx_hal_i2c.c ****       {
1232:Drivers/STM32F0xx_HAL_Driver/Src/stm32f0xx_hal_i2c.c ****         /* Wait until TCR flag is set */
1233:Drivers/STM32F0xx_HAL_Driver/Src/stm32f0xx_hal_i2c.c ****         if (I2C_WaitOnFlagUntilTimeout(hi2c, I2C_FLAG_TCR, RESET, Timeout, tickstart) != HAL_OK)
 997              		.loc 1 1233 13
 998 013e BA6A     		ldr	r2, [r7, #40]
 999 0140 F868     		ldr	r0, [r7, #12]
ARM GAS  /tmp/ccVMOeEl.s 			page 40


 1000 0142 7B69     		ldr	r3, [r7, #20]
 1001 0144 0093     		str	r3, [sp]
 1002 0146 1300     		movs	r3, r2
 1003 0148 0022     		movs	r2, #0
 1004 014a 8021     		movs	r1, #128
 1005 014c FFF7FEFF 		bl	I2C_WaitOnFlagUntilTimeout
 1006 0150 031E     		subs	r3, r0, #0
 1007              		.loc 1 1233 12 discriminator 1
 1008 0152 01D0     		beq	.L41
1234:Drivers/STM32F0xx_HAL_Driver/Src/stm32f0xx_hal_i2c.c ****         {
1235:Drivers/STM32F0xx_HAL_Driver/Src/stm32f0xx_hal_i2c.c ****           return HAL_ERROR;
 1009              		.loc 1 1235 18
 1010 0154 0123     		movs	r3, #1
 1011 0156 53E0     		b	.L34
 1012              	.L41:
1236:Drivers/STM32F0xx_HAL_Driver/Src/stm32f0xx_hal_i2c.c ****         }
1237:Drivers/STM32F0xx_HAL_Driver/Src/stm32f0xx_hal_i2c.c **** 
1238:Drivers/STM32F0xx_HAL_Driver/Src/stm32f0xx_hal_i2c.c ****         if (hi2c->XferCount > MAX_NBYTE_SIZE)
 1013              		.loc 1 1238 17
 1014 0158 FB68     		ldr	r3, [r7, #12]
 1015 015a 5B8D     		ldrh	r3, [r3, #42]
 1016 015c 9BB2     		uxth	r3, r3
 1017              		.loc 1 1238 12
 1018 015e FF2B     		cmp	r3, #255
 1019 0160 11D9     		bls	.L42
1239:Drivers/STM32F0xx_HAL_Driver/Src/stm32f0xx_hal_i2c.c ****         {
1240:Drivers/STM32F0xx_HAL_Driver/Src/stm32f0xx_hal_i2c.c ****           hi2c->XferSize = MAX_NBYTE_SIZE;
 1020              		.loc 1 1240 26
 1021 0162 FB68     		ldr	r3, [r7, #12]
 1022 0164 FF22     		movs	r2, #255
 1023 0166 1A85     		strh	r2, [r3, #40]
1241:Drivers/STM32F0xx_HAL_Driver/Src/stm32f0xx_hal_i2c.c ****           I2C_TransferConfig(hi2c, DevAddress, (uint8_t)hi2c->XferSize, I2C_RELOAD_MODE, I2C_NO_STA
 1024              		.loc 1 1241 61
 1025 0168 FB68     		ldr	r3, [r7, #12]
 1026 016a 1B8D     		ldrh	r3, [r3, #40]
 1027              		.loc 1 1241 11
 1028 016c DAB2     		uxtb	r2, r3
 1029 016e 8023     		movs	r3, #128
 1030 0170 5C04     		lsls	r4, r3, #17
 1031 0172 0A23     		movs	r3, #10
 1032 0174 FB18     		adds	r3, r7, r3
 1033 0176 1988     		ldrh	r1, [r3]
 1034 0178 F868     		ldr	r0, [r7, #12]
 1035 017a 0023     		movs	r3, #0
 1036 017c 0093     		str	r3, [sp]
 1037 017e 2300     		movs	r3, r4
 1038 0180 FFF7FEFF 		bl	I2C_TransferConfig
 1039 0184 12E0     		b	.L38
 1040              	.L42:
1242:Drivers/STM32F0xx_HAL_Driver/Src/stm32f0xx_hal_i2c.c ****         }
1243:Drivers/STM32F0xx_HAL_Driver/Src/stm32f0xx_hal_i2c.c ****         else
1244:Drivers/STM32F0xx_HAL_Driver/Src/stm32f0xx_hal_i2c.c ****         {
1245:Drivers/STM32F0xx_HAL_Driver/Src/stm32f0xx_hal_i2c.c ****           hi2c->XferSize = hi2c->XferCount;
 1041              		.loc 1 1245 32
 1042 0186 FB68     		ldr	r3, [r7, #12]
 1043 0188 5B8D     		ldrh	r3, [r3, #42]
 1044 018a 9AB2     		uxth	r2, r3
ARM GAS  /tmp/ccVMOeEl.s 			page 41


 1045              		.loc 1 1245 26
 1046 018c FB68     		ldr	r3, [r7, #12]
 1047 018e 1A85     		strh	r2, [r3, #40]
1246:Drivers/STM32F0xx_HAL_Driver/Src/stm32f0xx_hal_i2c.c ****           I2C_TransferConfig(hi2c, DevAddress, (uint8_t)hi2c->XferSize, I2C_AUTOEND_MODE, I2C_NO_ST
 1048              		.loc 1 1246 61
 1049 0190 FB68     		ldr	r3, [r7, #12]
 1050 0192 1B8D     		ldrh	r3, [r3, #40]
 1051              		.loc 1 1246 11
 1052 0194 DAB2     		uxtb	r2, r3
 1053 0196 8023     		movs	r3, #128
 1054 0198 9C04     		lsls	r4, r3, #18
 1055 019a 0A23     		movs	r3, #10
 1056 019c FB18     		adds	r3, r7, r3
 1057 019e 1988     		ldrh	r1, [r3]
 1058 01a0 F868     		ldr	r0, [r7, #12]
 1059 01a2 0023     		movs	r3, #0
 1060 01a4 0093     		str	r3, [sp]
 1061 01a6 2300     		movs	r3, r4
 1062 01a8 FFF7FEFF 		bl	I2C_TransferConfig
 1063              	.L38:
1213:Drivers/STM32F0xx_HAL_Driver/Src/stm32f0xx_hal_i2c.c ****     {
 1064              		.loc 1 1213 16
 1065 01ac FB68     		ldr	r3, [r7, #12]
 1066 01ae 5B8D     		ldrh	r3, [r3, #42]
 1067 01b0 9BB2     		uxth	r3, r3
1213:Drivers/STM32F0xx_HAL_Driver/Src/stm32f0xx_hal_i2c.c ****     {
 1068              		.loc 1 1213 28
 1069 01b2 002B     		cmp	r3, #0
 1070 01b4 97D1     		bne	.L43
1247:Drivers/STM32F0xx_HAL_Driver/Src/stm32f0xx_hal_i2c.c ****         }
1248:Drivers/STM32F0xx_HAL_Driver/Src/stm32f0xx_hal_i2c.c ****       }
1249:Drivers/STM32F0xx_HAL_Driver/Src/stm32f0xx_hal_i2c.c ****     }
1250:Drivers/STM32F0xx_HAL_Driver/Src/stm32f0xx_hal_i2c.c **** 
1251:Drivers/STM32F0xx_HAL_Driver/Src/stm32f0xx_hal_i2c.c ****     /* No need to Check TC flag, with AUTOEND mode the stop is automatically generated */
1252:Drivers/STM32F0xx_HAL_Driver/Src/stm32f0xx_hal_i2c.c ****     /* Wait until STOPF flag is set */
1253:Drivers/STM32F0xx_HAL_Driver/Src/stm32f0xx_hal_i2c.c ****     if (I2C_WaitOnSTOPFlagUntilTimeout(hi2c, Timeout, tickstart) != HAL_OK)
 1071              		.loc 1 1253 9
 1072 01b6 7A69     		ldr	r2, [r7, #20]
 1073 01b8 B96A     		ldr	r1, [r7, #40]
 1074 01ba FB68     		ldr	r3, [r7, #12]
 1075 01bc 1800     		movs	r0, r3
 1076 01be FFF7FEFF 		bl	I2C_WaitOnSTOPFlagUntilTimeout
 1077 01c2 031E     		subs	r3, r0, #0
 1078              		.loc 1 1253 8 discriminator 1
 1079 01c4 01D0     		beq	.L44
1254:Drivers/STM32F0xx_HAL_Driver/Src/stm32f0xx_hal_i2c.c ****     {
1255:Drivers/STM32F0xx_HAL_Driver/Src/stm32f0xx_hal_i2c.c ****       return HAL_ERROR;
 1080              		.loc 1 1255 14
 1081 01c6 0123     		movs	r3, #1
 1082 01c8 1AE0     		b	.L34
 1083              	.L44:
1256:Drivers/STM32F0xx_HAL_Driver/Src/stm32f0xx_hal_i2c.c ****     }
1257:Drivers/STM32F0xx_HAL_Driver/Src/stm32f0xx_hal_i2c.c **** 
1258:Drivers/STM32F0xx_HAL_Driver/Src/stm32f0xx_hal_i2c.c ****     /* Clear STOP Flag */
1259:Drivers/STM32F0xx_HAL_Driver/Src/stm32f0xx_hal_i2c.c ****     __HAL_I2C_CLEAR_FLAG(hi2c, I2C_FLAG_STOPF);
 1084              		.loc 1 1259 5
 1085 01ca FB68     		ldr	r3, [r7, #12]
ARM GAS  /tmp/ccVMOeEl.s 			page 42


 1086 01cc 1B68     		ldr	r3, [r3]
 1087 01ce 2022     		movs	r2, #32
 1088 01d0 DA61     		str	r2, [r3, #28]
1260:Drivers/STM32F0xx_HAL_Driver/Src/stm32f0xx_hal_i2c.c **** 
1261:Drivers/STM32F0xx_HAL_Driver/Src/stm32f0xx_hal_i2c.c ****     /* Clear Configuration Register 2 */
1262:Drivers/STM32F0xx_HAL_Driver/Src/stm32f0xx_hal_i2c.c ****     I2C_RESET_CR2(hi2c);
 1089              		.loc 1 1262 5
 1090 01d2 FB68     		ldr	r3, [r7, #12]
 1091 01d4 1B68     		ldr	r3, [r3]
 1092 01d6 5A68     		ldr	r2, [r3, #4]
 1093 01d8 FB68     		ldr	r3, [r7, #12]
 1094 01da 1B68     		ldr	r3, [r3]
 1095 01dc 0B49     		ldr	r1, .L45+4
 1096 01de 0A40     		ands	r2, r1
 1097 01e0 5A60     		str	r2, [r3, #4]
1263:Drivers/STM32F0xx_HAL_Driver/Src/stm32f0xx_hal_i2c.c **** 
1264:Drivers/STM32F0xx_HAL_Driver/Src/stm32f0xx_hal_i2c.c ****     hi2c->State = HAL_I2C_STATE_READY;
 1098              		.loc 1 1264 17
 1099 01e2 FB68     		ldr	r3, [r7, #12]
 1100 01e4 4122     		movs	r2, #65
 1101 01e6 2021     		movs	r1, #32
 1102 01e8 9954     		strb	r1, [r3, r2]
1265:Drivers/STM32F0xx_HAL_Driver/Src/stm32f0xx_hal_i2c.c ****     hi2c->Mode  = HAL_I2C_MODE_NONE;
 1103              		.loc 1 1265 17
 1104 01ea FB68     		ldr	r3, [r7, #12]
 1105 01ec 4222     		movs	r2, #66
 1106 01ee 0021     		movs	r1, #0
 1107 01f0 9954     		strb	r1, [r3, r2]
1266:Drivers/STM32F0xx_HAL_Driver/Src/stm32f0xx_hal_i2c.c **** 
1267:Drivers/STM32F0xx_HAL_Driver/Src/stm32f0xx_hal_i2c.c ****     /* Process Unlocked */
1268:Drivers/STM32F0xx_HAL_Driver/Src/stm32f0xx_hal_i2c.c ****     __HAL_UNLOCK(hi2c);
 1108              		.loc 1 1268 5
 1109 01f2 FB68     		ldr	r3, [r7, #12]
 1110 01f4 4022     		movs	r2, #64
 1111 01f6 0021     		movs	r1, #0
 1112 01f8 9954     		strb	r1, [r3, r2]
1269:Drivers/STM32F0xx_HAL_Driver/Src/stm32f0xx_hal_i2c.c **** 
1270:Drivers/STM32F0xx_HAL_Driver/Src/stm32f0xx_hal_i2c.c ****     return HAL_OK;
 1113              		.loc 1 1270 12
 1114 01fa 0023     		movs	r3, #0
 1115 01fc 00E0     		b	.L34
 1116              	.L32:
1271:Drivers/STM32F0xx_HAL_Driver/Src/stm32f0xx_hal_i2c.c ****   }
1272:Drivers/STM32F0xx_HAL_Driver/Src/stm32f0xx_hal_i2c.c ****   else
1273:Drivers/STM32F0xx_HAL_Driver/Src/stm32f0xx_hal_i2c.c ****   {
1274:Drivers/STM32F0xx_HAL_Driver/Src/stm32f0xx_hal_i2c.c ****     return HAL_BUSY;
 1117              		.loc 1 1274 12
 1118 01fe 0223     		movs	r3, #2
 1119              	.L34:
1275:Drivers/STM32F0xx_HAL_Driver/Src/stm32f0xx_hal_i2c.c ****   }
1276:Drivers/STM32F0xx_HAL_Driver/Src/stm32f0xx_hal_i2c.c **** }
 1120              		.loc 1 1276 1
 1121 0200 1800     		movs	r0, r3
 1122 0202 BD46     		mov	sp, r7
 1123 0204 07B0     		add	sp, sp, #28
 1124              		@ sp needed
 1125 0206 90BD     		pop	{r4, r7, pc}
ARM GAS  /tmp/ccVMOeEl.s 			page 43


 1126              	.L46:
 1127              		.align	2
 1128              	.L45:
 1129 0208 00240080 		.word	-2147474432
 1130 020c 00E800FE 		.word	-33495040
 1131              		.cfi_endproc
 1132              	.LFE45:
 1134              		.section	.text.HAL_I2C_Slave_Transmit,"ax",%progbits
 1135              		.align	1
 1136              		.global	HAL_I2C_Slave_Transmit
 1137              		.syntax unified
 1138              		.code	16
 1139              		.thumb_func
 1141              	HAL_I2C_Slave_Transmit:
 1142              	.LFB46:
1277:Drivers/STM32F0xx_HAL_Driver/Src/stm32f0xx_hal_i2c.c **** 
1278:Drivers/STM32F0xx_HAL_Driver/Src/stm32f0xx_hal_i2c.c **** /**
1279:Drivers/STM32F0xx_HAL_Driver/Src/stm32f0xx_hal_i2c.c ****   * @brief  Transmits in slave mode an amount of data in blocking mode.
1280:Drivers/STM32F0xx_HAL_Driver/Src/stm32f0xx_hal_i2c.c ****   * @param  hi2c Pointer to a I2C_HandleTypeDef structure that contains
1281:Drivers/STM32F0xx_HAL_Driver/Src/stm32f0xx_hal_i2c.c ****   *                the configuration information for the specified I2C.
1282:Drivers/STM32F0xx_HAL_Driver/Src/stm32f0xx_hal_i2c.c ****   * @param  pData Pointer to data buffer
1283:Drivers/STM32F0xx_HAL_Driver/Src/stm32f0xx_hal_i2c.c ****   * @param  Size Amount of data to be sent
1284:Drivers/STM32F0xx_HAL_Driver/Src/stm32f0xx_hal_i2c.c ****   * @param  Timeout Timeout duration
1285:Drivers/STM32F0xx_HAL_Driver/Src/stm32f0xx_hal_i2c.c ****   * @retval HAL status
1286:Drivers/STM32F0xx_HAL_Driver/Src/stm32f0xx_hal_i2c.c ****   */
1287:Drivers/STM32F0xx_HAL_Driver/Src/stm32f0xx_hal_i2c.c **** HAL_StatusTypeDef HAL_I2C_Slave_Transmit(I2C_HandleTypeDef *hi2c, uint8_t *pData, uint16_t Size, ui
1288:Drivers/STM32F0xx_HAL_Driver/Src/stm32f0xx_hal_i2c.c **** {
 1143              		.loc 1 1288 1
 1144              		.cfi_startproc
 1145              		@ args = 0, pretend = 0, frame = 24
 1146              		@ frame_needed = 1, uses_anonymous_args = 0
 1147 0000 80B5     		push	{r7, lr}
 1148              	.LCFI18:
 1149              		.cfi_def_cfa_offset 8
 1150              		.cfi_offset 7, -8
 1151              		.cfi_offset 14, -4
 1152 0002 88B0     		sub	sp, sp, #32
 1153              	.LCFI19:
 1154              		.cfi_def_cfa_offset 40
 1155 0004 02AF     		add	r7, sp, #8
 1156              	.LCFI20:
 1157              		.cfi_def_cfa 7, 32
 1158 0006 F860     		str	r0, [r7, #12]
 1159 0008 B960     		str	r1, [r7, #8]
 1160 000a 3B60     		str	r3, [r7]
 1161 000c BB1D     		adds	r3, r7, #6
 1162 000e 1A80     		strh	r2, [r3]
1289:Drivers/STM32F0xx_HAL_Driver/Src/stm32f0xx_hal_i2c.c ****   uint32_t tickstart;
1290:Drivers/STM32F0xx_HAL_Driver/Src/stm32f0xx_hal_i2c.c **** 
1291:Drivers/STM32F0xx_HAL_Driver/Src/stm32f0xx_hal_i2c.c ****   if (hi2c->State == HAL_I2C_STATE_READY)
 1163              		.loc 1 1291 11
 1164 0010 FB68     		ldr	r3, [r7, #12]
 1165 0012 4122     		movs	r2, #65
 1166 0014 9B5C     		ldrb	r3, [r3, r2]
 1167 0016 DBB2     		uxtb	r3, r3
 1168              		.loc 1 1291 6
 1169 0018 202B     		cmp	r3, #32
ARM GAS  /tmp/ccVMOeEl.s 			page 44


 1170 001a 00D0     		beq	.LCB959
 1171 001c FEE0     		b	.L48	@long jump
 1172              	.LCB959:
1292:Drivers/STM32F0xx_HAL_Driver/Src/stm32f0xx_hal_i2c.c ****   {
1293:Drivers/STM32F0xx_HAL_Driver/Src/stm32f0xx_hal_i2c.c ****     if ((pData == NULL) || (Size == 0U))
 1173              		.loc 1 1293 8
 1174 001e BB68     		ldr	r3, [r7, #8]
 1175 0020 002B     		cmp	r3, #0
 1176 0022 03D0     		beq	.L49
 1177              		.loc 1 1293 25 discriminator 1
 1178 0024 BB1D     		adds	r3, r7, #6
 1179 0026 1B88     		ldrh	r3, [r3]
 1180 0028 002B     		cmp	r3, #0
 1181 002a 05D1     		bne	.L50
 1182              	.L49:
1294:Drivers/STM32F0xx_HAL_Driver/Src/stm32f0xx_hal_i2c.c ****     {
1295:Drivers/STM32F0xx_HAL_Driver/Src/stm32f0xx_hal_i2c.c ****       hi2c->ErrorCode = HAL_I2C_ERROR_INVALID_PARAM;
 1183              		.loc 1 1295 23
 1184 002c FB68     		ldr	r3, [r7, #12]
 1185 002e 8022     		movs	r2, #128
 1186 0030 9200     		lsls	r2, r2, #2
 1187 0032 5A64     		str	r2, [r3, #68]
1296:Drivers/STM32F0xx_HAL_Driver/Src/stm32f0xx_hal_i2c.c ****       return  HAL_ERROR;
 1188              		.loc 1 1296 15
 1189 0034 0123     		movs	r3, #1
 1190 0036 F2E0     		b	.L51
 1191              	.L50:
1297:Drivers/STM32F0xx_HAL_Driver/Src/stm32f0xx_hal_i2c.c ****     }
1298:Drivers/STM32F0xx_HAL_Driver/Src/stm32f0xx_hal_i2c.c ****     /* Process Locked */
1299:Drivers/STM32F0xx_HAL_Driver/Src/stm32f0xx_hal_i2c.c ****     __HAL_LOCK(hi2c);
 1192              		.loc 1 1299 5
 1193 0038 FB68     		ldr	r3, [r7, #12]
 1194 003a 4022     		movs	r2, #64
 1195 003c 9B5C     		ldrb	r3, [r3, r2]
 1196 003e 012B     		cmp	r3, #1
 1197 0040 01D1     		bne	.L52
 1198              		.loc 1 1299 5 is_stmt 0 discriminator 1
 1199 0042 0223     		movs	r3, #2
 1200              		.loc 1 1299 5
 1201 0044 EBE0     		b	.L51
 1202              	.L52:
 1203              		.loc 1 1299 5 discriminator 2
 1204 0046 FB68     		ldr	r3, [r7, #12]
 1205 0048 4022     		movs	r2, #64
 1206 004a 0121     		movs	r1, #1
 1207 004c 9954     		strb	r1, [r3, r2]
1300:Drivers/STM32F0xx_HAL_Driver/Src/stm32f0xx_hal_i2c.c **** 
1301:Drivers/STM32F0xx_HAL_Driver/Src/stm32f0xx_hal_i2c.c ****     /* Init tickstart for timeout management*/
1302:Drivers/STM32F0xx_HAL_Driver/Src/stm32f0xx_hal_i2c.c ****     tickstart = HAL_GetTick();
 1208              		.loc 1 1302 17 is_stmt 1
 1209 004e FFF7FEFF 		bl	HAL_GetTick
 1210 0052 0300     		movs	r3, r0
 1211 0054 7B61     		str	r3, [r7, #20]
1303:Drivers/STM32F0xx_HAL_Driver/Src/stm32f0xx_hal_i2c.c **** 
1304:Drivers/STM32F0xx_HAL_Driver/Src/stm32f0xx_hal_i2c.c ****     hi2c->State     = HAL_I2C_STATE_BUSY_TX;
 1212              		.loc 1 1304 21
 1213 0056 FB68     		ldr	r3, [r7, #12]
ARM GAS  /tmp/ccVMOeEl.s 			page 45


 1214 0058 4122     		movs	r2, #65
 1215 005a 2121     		movs	r1, #33
 1216 005c 9954     		strb	r1, [r3, r2]
1305:Drivers/STM32F0xx_HAL_Driver/Src/stm32f0xx_hal_i2c.c ****     hi2c->Mode      = HAL_I2C_MODE_SLAVE;
 1217              		.loc 1 1305 21
 1218 005e FB68     		ldr	r3, [r7, #12]
 1219 0060 4222     		movs	r2, #66
 1220 0062 2021     		movs	r1, #32
 1221 0064 9954     		strb	r1, [r3, r2]
1306:Drivers/STM32F0xx_HAL_Driver/Src/stm32f0xx_hal_i2c.c ****     hi2c->ErrorCode = HAL_I2C_ERROR_NONE;
 1222              		.loc 1 1306 21
 1223 0066 FB68     		ldr	r3, [r7, #12]
 1224 0068 0022     		movs	r2, #0
 1225 006a 5A64     		str	r2, [r3, #68]
1307:Drivers/STM32F0xx_HAL_Driver/Src/stm32f0xx_hal_i2c.c **** 
1308:Drivers/STM32F0xx_HAL_Driver/Src/stm32f0xx_hal_i2c.c ****     /* Prepare transfer parameters */
1309:Drivers/STM32F0xx_HAL_Driver/Src/stm32f0xx_hal_i2c.c ****     hi2c->pBuffPtr  = pData;
 1226              		.loc 1 1309 21
 1227 006c FB68     		ldr	r3, [r7, #12]
 1228 006e BA68     		ldr	r2, [r7, #8]
 1229 0070 5A62     		str	r2, [r3, #36]
1310:Drivers/STM32F0xx_HAL_Driver/Src/stm32f0xx_hal_i2c.c ****     hi2c->XferCount = Size;
 1230              		.loc 1 1310 21
 1231 0072 FB68     		ldr	r3, [r7, #12]
 1232 0074 BA1D     		adds	r2, r7, #6
 1233 0076 1288     		ldrh	r2, [r2]
 1234 0078 5A85     		strh	r2, [r3, #42]
1311:Drivers/STM32F0xx_HAL_Driver/Src/stm32f0xx_hal_i2c.c ****     hi2c->XferISR   = NULL;
 1235              		.loc 1 1311 21
 1236 007a FB68     		ldr	r3, [r7, #12]
 1237 007c 0022     		movs	r2, #0
 1238 007e 5A63     		str	r2, [r3, #52]
1312:Drivers/STM32F0xx_HAL_Driver/Src/stm32f0xx_hal_i2c.c **** 
1313:Drivers/STM32F0xx_HAL_Driver/Src/stm32f0xx_hal_i2c.c ****     /* Enable Address Acknowledge */
1314:Drivers/STM32F0xx_HAL_Driver/Src/stm32f0xx_hal_i2c.c ****     hi2c->Instance->CR2 &= ~I2C_CR2_NACK;
 1239              		.loc 1 1314 9
 1240 0080 FB68     		ldr	r3, [r7, #12]
 1241 0082 1B68     		ldr	r3, [r3]
 1242              		.loc 1 1314 19
 1243 0084 5A68     		ldr	r2, [r3, #4]
 1244              		.loc 1 1314 9
 1245 0086 FB68     		ldr	r3, [r7, #12]
 1246 0088 1B68     		ldr	r3, [r3]
 1247              		.loc 1 1314 25
 1248 008a 6749     		ldr	r1, .L63
 1249 008c 0A40     		ands	r2, r1
 1250 008e 5A60     		str	r2, [r3, #4]
1315:Drivers/STM32F0xx_HAL_Driver/Src/stm32f0xx_hal_i2c.c **** 
1316:Drivers/STM32F0xx_HAL_Driver/Src/stm32f0xx_hal_i2c.c ****     /* Wait until ADDR flag is set */
1317:Drivers/STM32F0xx_HAL_Driver/Src/stm32f0xx_hal_i2c.c ****     if (I2C_WaitOnFlagUntilTimeout(hi2c, I2C_FLAG_ADDR, RESET, Timeout, tickstart) != HAL_OK)
 1251              		.loc 1 1317 9
 1252 0090 3A68     		ldr	r2, [r7]
 1253 0092 F868     		ldr	r0, [r7, #12]
 1254 0094 7B69     		ldr	r3, [r7, #20]
 1255 0096 0093     		str	r3, [sp]
 1256 0098 1300     		movs	r3, r2
 1257 009a 0022     		movs	r2, #0
ARM GAS  /tmp/ccVMOeEl.s 			page 46


 1258 009c 0821     		movs	r1, #8
 1259 009e FFF7FEFF 		bl	I2C_WaitOnFlagUntilTimeout
 1260 00a2 031E     		subs	r3, r0, #0
 1261              		.loc 1 1317 8 discriminator 1
 1262 00a4 0AD0     		beq	.L53
1318:Drivers/STM32F0xx_HAL_Driver/Src/stm32f0xx_hal_i2c.c ****     {
1319:Drivers/STM32F0xx_HAL_Driver/Src/stm32f0xx_hal_i2c.c ****       /* Disable Address Acknowledge */
1320:Drivers/STM32F0xx_HAL_Driver/Src/stm32f0xx_hal_i2c.c ****       hi2c->Instance->CR2 |= I2C_CR2_NACK;
 1263              		.loc 1 1320 11
 1264 00a6 FB68     		ldr	r3, [r7, #12]
 1265 00a8 1B68     		ldr	r3, [r3]
 1266              		.loc 1 1320 21
 1267 00aa 5A68     		ldr	r2, [r3, #4]
 1268              		.loc 1 1320 11
 1269 00ac FB68     		ldr	r3, [r7, #12]
 1270 00ae 1B68     		ldr	r3, [r3]
 1271              		.loc 1 1320 27
 1272 00b0 8021     		movs	r1, #128
 1273 00b2 0902     		lsls	r1, r1, #8
 1274 00b4 0A43     		orrs	r2, r1
 1275 00b6 5A60     		str	r2, [r3, #4]
1321:Drivers/STM32F0xx_HAL_Driver/Src/stm32f0xx_hal_i2c.c ****       return HAL_ERROR;
 1276              		.loc 1 1321 14
 1277 00b8 0123     		movs	r3, #1
 1278 00ba B0E0     		b	.L51
 1279              	.L53:
1322:Drivers/STM32F0xx_HAL_Driver/Src/stm32f0xx_hal_i2c.c ****     }
1323:Drivers/STM32F0xx_HAL_Driver/Src/stm32f0xx_hal_i2c.c **** 
1324:Drivers/STM32F0xx_HAL_Driver/Src/stm32f0xx_hal_i2c.c ****     /* Clear ADDR flag */
1325:Drivers/STM32F0xx_HAL_Driver/Src/stm32f0xx_hal_i2c.c ****     __HAL_I2C_CLEAR_FLAG(hi2c, I2C_FLAG_ADDR);
 1280              		.loc 1 1325 5
 1281 00bc FB68     		ldr	r3, [r7, #12]
 1282 00be 1B68     		ldr	r3, [r3]
 1283 00c0 0822     		movs	r2, #8
 1284 00c2 DA61     		str	r2, [r3, #28]
1326:Drivers/STM32F0xx_HAL_Driver/Src/stm32f0xx_hal_i2c.c **** 
1327:Drivers/STM32F0xx_HAL_Driver/Src/stm32f0xx_hal_i2c.c ****     /* If 10bit addressing mode is selected */
1328:Drivers/STM32F0xx_HAL_Driver/Src/stm32f0xx_hal_i2c.c ****     if (hi2c->Init.AddressingMode == I2C_ADDRESSINGMODE_10BIT)
 1285              		.loc 1 1328 19
 1286 00c4 FB68     		ldr	r3, [r7, #12]
 1287 00c6 DB68     		ldr	r3, [r3, #12]
 1288              		.loc 1 1328 8
 1289 00c8 022B     		cmp	r3, #2
 1290 00ca 19D1     		bne	.L54
1329:Drivers/STM32F0xx_HAL_Driver/Src/stm32f0xx_hal_i2c.c ****     {
1330:Drivers/STM32F0xx_HAL_Driver/Src/stm32f0xx_hal_i2c.c ****       /* Wait until ADDR flag is set */
1331:Drivers/STM32F0xx_HAL_Driver/Src/stm32f0xx_hal_i2c.c ****       if (I2C_WaitOnFlagUntilTimeout(hi2c, I2C_FLAG_ADDR, RESET, Timeout, tickstart) != HAL_OK)
 1291              		.loc 1 1331 11
 1292 00cc 3A68     		ldr	r2, [r7]
 1293 00ce F868     		ldr	r0, [r7, #12]
 1294 00d0 7B69     		ldr	r3, [r7, #20]
 1295 00d2 0093     		str	r3, [sp]
 1296 00d4 1300     		movs	r3, r2
 1297 00d6 0022     		movs	r2, #0
 1298 00d8 0821     		movs	r1, #8
 1299 00da FFF7FEFF 		bl	I2C_WaitOnFlagUntilTimeout
 1300 00de 031E     		subs	r3, r0, #0
ARM GAS  /tmp/ccVMOeEl.s 			page 47


 1301              		.loc 1 1331 10 discriminator 1
 1302 00e0 0AD0     		beq	.L55
1332:Drivers/STM32F0xx_HAL_Driver/Src/stm32f0xx_hal_i2c.c ****       {
1333:Drivers/STM32F0xx_HAL_Driver/Src/stm32f0xx_hal_i2c.c ****         /* Disable Address Acknowledge */
1334:Drivers/STM32F0xx_HAL_Driver/Src/stm32f0xx_hal_i2c.c ****         hi2c->Instance->CR2 |= I2C_CR2_NACK;
 1303              		.loc 1 1334 13
 1304 00e2 FB68     		ldr	r3, [r7, #12]
 1305 00e4 1B68     		ldr	r3, [r3]
 1306              		.loc 1 1334 23
 1307 00e6 5A68     		ldr	r2, [r3, #4]
 1308              		.loc 1 1334 13
 1309 00e8 FB68     		ldr	r3, [r7, #12]
 1310 00ea 1B68     		ldr	r3, [r3]
 1311              		.loc 1 1334 29
 1312 00ec 8021     		movs	r1, #128
 1313 00ee 0902     		lsls	r1, r1, #8
 1314 00f0 0A43     		orrs	r2, r1
 1315 00f2 5A60     		str	r2, [r3, #4]
1335:Drivers/STM32F0xx_HAL_Driver/Src/stm32f0xx_hal_i2c.c ****         return HAL_ERROR;
 1316              		.loc 1 1335 16
 1317 00f4 0123     		movs	r3, #1
 1318 00f6 92E0     		b	.L51
 1319              	.L55:
1336:Drivers/STM32F0xx_HAL_Driver/Src/stm32f0xx_hal_i2c.c ****       }
1337:Drivers/STM32F0xx_HAL_Driver/Src/stm32f0xx_hal_i2c.c **** 
1338:Drivers/STM32F0xx_HAL_Driver/Src/stm32f0xx_hal_i2c.c ****       /* Clear ADDR flag */
1339:Drivers/STM32F0xx_HAL_Driver/Src/stm32f0xx_hal_i2c.c ****       __HAL_I2C_CLEAR_FLAG(hi2c, I2C_FLAG_ADDR);
 1320              		.loc 1 1339 7
 1321 00f8 FB68     		ldr	r3, [r7, #12]
 1322 00fa 1B68     		ldr	r3, [r3]
 1323 00fc 0822     		movs	r2, #8
 1324 00fe DA61     		str	r2, [r3, #28]
 1325              	.L54:
1340:Drivers/STM32F0xx_HAL_Driver/Src/stm32f0xx_hal_i2c.c ****     }
1341:Drivers/STM32F0xx_HAL_Driver/Src/stm32f0xx_hal_i2c.c **** 
1342:Drivers/STM32F0xx_HAL_Driver/Src/stm32f0xx_hal_i2c.c ****     /* Wait until DIR flag is set Transmitter mode */
1343:Drivers/STM32F0xx_HAL_Driver/Src/stm32f0xx_hal_i2c.c ****     if (I2C_WaitOnFlagUntilTimeout(hi2c, I2C_FLAG_DIR, RESET, Timeout, tickstart) != HAL_OK)
 1326              		.loc 1 1343 9
 1327 0100 3A68     		ldr	r2, [r7]
 1328 0102 8023     		movs	r3, #128
 1329 0104 5902     		lsls	r1, r3, #9
 1330 0106 F868     		ldr	r0, [r7, #12]
 1331 0108 7B69     		ldr	r3, [r7, #20]
 1332 010a 0093     		str	r3, [sp]
 1333 010c 1300     		movs	r3, r2
 1334 010e 0022     		movs	r2, #0
 1335 0110 FFF7FEFF 		bl	I2C_WaitOnFlagUntilTimeout
 1336 0114 031E     		subs	r3, r0, #0
 1337              		.loc 1 1343 8 discriminator 1
 1338 0116 2FD0     		beq	.L57
1344:Drivers/STM32F0xx_HAL_Driver/Src/stm32f0xx_hal_i2c.c ****     {
1345:Drivers/STM32F0xx_HAL_Driver/Src/stm32f0xx_hal_i2c.c ****       /* Disable Address Acknowledge */
1346:Drivers/STM32F0xx_HAL_Driver/Src/stm32f0xx_hal_i2c.c ****       hi2c->Instance->CR2 |= I2C_CR2_NACK;
 1339              		.loc 1 1346 11
 1340 0118 FB68     		ldr	r3, [r7, #12]
 1341 011a 1B68     		ldr	r3, [r3]
 1342              		.loc 1 1346 21
ARM GAS  /tmp/ccVMOeEl.s 			page 48


 1343 011c 5A68     		ldr	r2, [r3, #4]
 1344              		.loc 1 1346 11
 1345 011e FB68     		ldr	r3, [r7, #12]
 1346 0120 1B68     		ldr	r3, [r3]
 1347              		.loc 1 1346 27
 1348 0122 8021     		movs	r1, #128
 1349 0124 0902     		lsls	r1, r1, #8
 1350 0126 0A43     		orrs	r2, r1
 1351 0128 5A60     		str	r2, [r3, #4]
1347:Drivers/STM32F0xx_HAL_Driver/Src/stm32f0xx_hal_i2c.c ****       return HAL_ERROR;
 1352              		.loc 1 1347 14
 1353 012a 0123     		movs	r3, #1
 1354 012c 77E0     		b	.L51
 1355              	.L59:
1348:Drivers/STM32F0xx_HAL_Driver/Src/stm32f0xx_hal_i2c.c ****     }
1349:Drivers/STM32F0xx_HAL_Driver/Src/stm32f0xx_hal_i2c.c **** 
1350:Drivers/STM32F0xx_HAL_Driver/Src/stm32f0xx_hal_i2c.c ****     while (hi2c->XferCount > 0U)
1351:Drivers/STM32F0xx_HAL_Driver/Src/stm32f0xx_hal_i2c.c ****     {
1352:Drivers/STM32F0xx_HAL_Driver/Src/stm32f0xx_hal_i2c.c ****       /* Wait until TXIS flag is set */
1353:Drivers/STM32F0xx_HAL_Driver/Src/stm32f0xx_hal_i2c.c ****       if (I2C_WaitOnTXISFlagUntilTimeout(hi2c, Timeout, tickstart) != HAL_OK)
 1356              		.loc 1 1353 11
 1357 012e 7A69     		ldr	r2, [r7, #20]
 1358 0130 3968     		ldr	r1, [r7]
 1359 0132 FB68     		ldr	r3, [r7, #12]
 1360 0134 1800     		movs	r0, r3
 1361 0136 FFF7FEFF 		bl	I2C_WaitOnTXISFlagUntilTimeout
 1362 013a 031E     		subs	r3, r0, #0
 1363              		.loc 1 1353 10 discriminator 1
 1364 013c 0AD0     		beq	.L58
1354:Drivers/STM32F0xx_HAL_Driver/Src/stm32f0xx_hal_i2c.c ****       {
1355:Drivers/STM32F0xx_HAL_Driver/Src/stm32f0xx_hal_i2c.c ****         /* Disable Address Acknowledge */
1356:Drivers/STM32F0xx_HAL_Driver/Src/stm32f0xx_hal_i2c.c ****         hi2c->Instance->CR2 |= I2C_CR2_NACK;
 1365              		.loc 1 1356 13
 1366 013e FB68     		ldr	r3, [r7, #12]
 1367 0140 1B68     		ldr	r3, [r3]
 1368              		.loc 1 1356 23
 1369 0142 5A68     		ldr	r2, [r3, #4]
 1370              		.loc 1 1356 13
 1371 0144 FB68     		ldr	r3, [r7, #12]
 1372 0146 1B68     		ldr	r3, [r3]
 1373              		.loc 1 1356 29
 1374 0148 8021     		movs	r1, #128
 1375 014a 0902     		lsls	r1, r1, #8
 1376 014c 0A43     		orrs	r2, r1
 1377 014e 5A60     		str	r2, [r3, #4]
1357:Drivers/STM32F0xx_HAL_Driver/Src/stm32f0xx_hal_i2c.c ****         return HAL_ERROR;
 1378              		.loc 1 1357 16
 1379 0150 0123     		movs	r3, #1
 1380 0152 64E0     		b	.L51
 1381              	.L58:
1358:Drivers/STM32F0xx_HAL_Driver/Src/stm32f0xx_hal_i2c.c ****       }
1359:Drivers/STM32F0xx_HAL_Driver/Src/stm32f0xx_hal_i2c.c **** 
1360:Drivers/STM32F0xx_HAL_Driver/Src/stm32f0xx_hal_i2c.c ****       /* Write data to TXDR */
1361:Drivers/STM32F0xx_HAL_Driver/Src/stm32f0xx_hal_i2c.c ****       hi2c->Instance->TXDR = *hi2c->pBuffPtr;
 1382              		.loc 1 1361 35
 1383 0154 FB68     		ldr	r3, [r7, #12]
 1384 0156 5B6A     		ldr	r3, [r3, #36]
ARM GAS  /tmp/ccVMOeEl.s 			page 49


 1385              		.loc 1 1361 30
 1386 0158 1A78     		ldrb	r2, [r3]
 1387              		.loc 1 1361 11
 1388 015a FB68     		ldr	r3, [r7, #12]
 1389 015c 1B68     		ldr	r3, [r3]
 1390              		.loc 1 1361 28
 1391 015e 9A62     		str	r2, [r3, #40]
1362:Drivers/STM32F0xx_HAL_Driver/Src/stm32f0xx_hal_i2c.c **** 
1363:Drivers/STM32F0xx_HAL_Driver/Src/stm32f0xx_hal_i2c.c ****       /* Increment Buffer pointer */
1364:Drivers/STM32F0xx_HAL_Driver/Src/stm32f0xx_hal_i2c.c ****       hi2c->pBuffPtr++;
 1392              		.loc 1 1364 11
 1393 0160 FB68     		ldr	r3, [r7, #12]
 1394 0162 5B6A     		ldr	r3, [r3, #36]
 1395              		.loc 1 1364 21
 1396 0164 5A1C     		adds	r2, r3, #1
 1397 0166 FB68     		ldr	r3, [r7, #12]
 1398 0168 5A62     		str	r2, [r3, #36]
1365:Drivers/STM32F0xx_HAL_Driver/Src/stm32f0xx_hal_i2c.c **** 
1366:Drivers/STM32F0xx_HAL_Driver/Src/stm32f0xx_hal_i2c.c ****       hi2c->XferCount--;
 1399              		.loc 1 1366 11
 1400 016a FB68     		ldr	r3, [r7, #12]
 1401 016c 5B8D     		ldrh	r3, [r3, #42]
 1402 016e 9BB2     		uxth	r3, r3
 1403              		.loc 1 1366 22
 1404 0170 013B     		subs	r3, r3, #1
 1405 0172 9AB2     		uxth	r2, r3
 1406 0174 FB68     		ldr	r3, [r7, #12]
 1407 0176 5A85     		strh	r2, [r3, #42]
 1408              	.L57:
1350:Drivers/STM32F0xx_HAL_Driver/Src/stm32f0xx_hal_i2c.c ****     {
 1409              		.loc 1 1350 16
 1410 0178 FB68     		ldr	r3, [r7, #12]
 1411 017a 5B8D     		ldrh	r3, [r3, #42]
 1412 017c 9BB2     		uxth	r3, r3
1350:Drivers/STM32F0xx_HAL_Driver/Src/stm32f0xx_hal_i2c.c ****     {
 1413              		.loc 1 1350 28
 1414 017e 002B     		cmp	r3, #0
 1415 0180 D5D1     		bne	.L59
1367:Drivers/STM32F0xx_HAL_Driver/Src/stm32f0xx_hal_i2c.c ****     }
1368:Drivers/STM32F0xx_HAL_Driver/Src/stm32f0xx_hal_i2c.c **** 
1369:Drivers/STM32F0xx_HAL_Driver/Src/stm32f0xx_hal_i2c.c ****     /* Wait until STOP flag is set */
1370:Drivers/STM32F0xx_HAL_Driver/Src/stm32f0xx_hal_i2c.c ****     if (I2C_WaitOnSTOPFlagUntilTimeout(hi2c, Timeout, tickstart) != HAL_OK)
 1416              		.loc 1 1370 9
 1417 0182 7A69     		ldr	r2, [r7, #20]
 1418 0184 3968     		ldr	r1, [r7]
 1419 0186 FB68     		ldr	r3, [r7, #12]
 1420 0188 1800     		movs	r0, r3
 1421 018a FFF7FEFF 		bl	I2C_WaitOnSTOPFlagUntilTimeout
 1422 018e 031E     		subs	r3, r0, #0
 1423              		.loc 1 1370 8 discriminator 1
 1424 0190 12D0     		beq	.L60
1371:Drivers/STM32F0xx_HAL_Driver/Src/stm32f0xx_hal_i2c.c ****     {
1372:Drivers/STM32F0xx_HAL_Driver/Src/stm32f0xx_hal_i2c.c ****       /* Disable Address Acknowledge */
1373:Drivers/STM32F0xx_HAL_Driver/Src/stm32f0xx_hal_i2c.c ****       hi2c->Instance->CR2 |= I2C_CR2_NACK;
 1425              		.loc 1 1373 11
 1426 0192 FB68     		ldr	r3, [r7, #12]
 1427 0194 1B68     		ldr	r3, [r3]
ARM GAS  /tmp/ccVMOeEl.s 			page 50


 1428              		.loc 1 1373 21
 1429 0196 5A68     		ldr	r2, [r3, #4]
 1430              		.loc 1 1373 11
 1431 0198 FB68     		ldr	r3, [r7, #12]
 1432 019a 1B68     		ldr	r3, [r3]
 1433              		.loc 1 1373 27
 1434 019c 8021     		movs	r1, #128
 1435 019e 0902     		lsls	r1, r1, #8
 1436 01a0 0A43     		orrs	r2, r1
 1437 01a2 5A60     		str	r2, [r3, #4]
1374:Drivers/STM32F0xx_HAL_Driver/Src/stm32f0xx_hal_i2c.c **** 
1375:Drivers/STM32F0xx_HAL_Driver/Src/stm32f0xx_hal_i2c.c ****       if (hi2c->ErrorCode == HAL_I2C_ERROR_AF)
 1438              		.loc 1 1375 15
 1439 01a4 FB68     		ldr	r3, [r7, #12]
 1440 01a6 5B6C     		ldr	r3, [r3, #68]
 1441              		.loc 1 1375 10
 1442 01a8 042B     		cmp	r3, #4
 1443 01aa 03D1     		bne	.L61
1376:Drivers/STM32F0xx_HAL_Driver/Src/stm32f0xx_hal_i2c.c ****       {
1377:Drivers/STM32F0xx_HAL_Driver/Src/stm32f0xx_hal_i2c.c ****         /* Normal use case for Transmitter mode */
1378:Drivers/STM32F0xx_HAL_Driver/Src/stm32f0xx_hal_i2c.c ****         /* A NACK is generated to confirm the end of transfer */
1379:Drivers/STM32F0xx_HAL_Driver/Src/stm32f0xx_hal_i2c.c ****         hi2c->ErrorCode = HAL_I2C_ERROR_NONE;
 1444              		.loc 1 1379 25
 1445 01ac FB68     		ldr	r3, [r7, #12]
 1446 01ae 0022     		movs	r2, #0
 1447 01b0 5A64     		str	r2, [r3, #68]
 1448 01b2 01E0     		b	.L60
 1449              	.L61:
1380:Drivers/STM32F0xx_HAL_Driver/Src/stm32f0xx_hal_i2c.c ****       }
1381:Drivers/STM32F0xx_HAL_Driver/Src/stm32f0xx_hal_i2c.c ****       else
1382:Drivers/STM32F0xx_HAL_Driver/Src/stm32f0xx_hal_i2c.c ****       {
1383:Drivers/STM32F0xx_HAL_Driver/Src/stm32f0xx_hal_i2c.c ****         return HAL_ERROR;
 1450              		.loc 1 1383 16
 1451 01b4 0123     		movs	r3, #1
 1452 01b6 32E0     		b	.L51
 1453              	.L60:
1384:Drivers/STM32F0xx_HAL_Driver/Src/stm32f0xx_hal_i2c.c ****       }
1385:Drivers/STM32F0xx_HAL_Driver/Src/stm32f0xx_hal_i2c.c ****     }
1386:Drivers/STM32F0xx_HAL_Driver/Src/stm32f0xx_hal_i2c.c **** 
1387:Drivers/STM32F0xx_HAL_Driver/Src/stm32f0xx_hal_i2c.c ****     /* Clear STOP flag */
1388:Drivers/STM32F0xx_HAL_Driver/Src/stm32f0xx_hal_i2c.c ****     __HAL_I2C_CLEAR_FLAG(hi2c, I2C_FLAG_STOPF);
 1454              		.loc 1 1388 5
 1455 01b8 FB68     		ldr	r3, [r7, #12]
 1456 01ba 1B68     		ldr	r3, [r3]
 1457 01bc 2022     		movs	r2, #32
 1458 01be DA61     		str	r2, [r3, #28]
1389:Drivers/STM32F0xx_HAL_Driver/Src/stm32f0xx_hal_i2c.c **** 
1390:Drivers/STM32F0xx_HAL_Driver/Src/stm32f0xx_hal_i2c.c ****     /* Wait until BUSY flag is reset */
1391:Drivers/STM32F0xx_HAL_Driver/Src/stm32f0xx_hal_i2c.c ****     if (I2C_WaitOnFlagUntilTimeout(hi2c, I2C_FLAG_BUSY, SET, Timeout, tickstart) != HAL_OK)
 1459              		.loc 1 1391 9
 1460 01c0 3A68     		ldr	r2, [r7]
 1461 01c2 8023     		movs	r3, #128
 1462 01c4 1902     		lsls	r1, r3, #8
 1463 01c6 F868     		ldr	r0, [r7, #12]
 1464 01c8 7B69     		ldr	r3, [r7, #20]
 1465 01ca 0093     		str	r3, [sp]
 1466 01cc 1300     		movs	r3, r2
ARM GAS  /tmp/ccVMOeEl.s 			page 51


 1467 01ce 0122     		movs	r2, #1
 1468 01d0 FFF7FEFF 		bl	I2C_WaitOnFlagUntilTimeout
 1469 01d4 031E     		subs	r3, r0, #0
 1470              		.loc 1 1391 8 discriminator 1
 1471 01d6 0AD0     		beq	.L62
1392:Drivers/STM32F0xx_HAL_Driver/Src/stm32f0xx_hal_i2c.c ****     {
1393:Drivers/STM32F0xx_HAL_Driver/Src/stm32f0xx_hal_i2c.c ****       /* Disable Address Acknowledge */
1394:Drivers/STM32F0xx_HAL_Driver/Src/stm32f0xx_hal_i2c.c ****       hi2c->Instance->CR2 |= I2C_CR2_NACK;
 1472              		.loc 1 1394 11
 1473 01d8 FB68     		ldr	r3, [r7, #12]
 1474 01da 1B68     		ldr	r3, [r3]
 1475              		.loc 1 1394 21
 1476 01dc 5A68     		ldr	r2, [r3, #4]
 1477              		.loc 1 1394 11
 1478 01de FB68     		ldr	r3, [r7, #12]
 1479 01e0 1B68     		ldr	r3, [r3]
 1480              		.loc 1 1394 27
 1481 01e2 8021     		movs	r1, #128
 1482 01e4 0902     		lsls	r1, r1, #8
 1483 01e6 0A43     		orrs	r2, r1
 1484 01e8 5A60     		str	r2, [r3, #4]
1395:Drivers/STM32F0xx_HAL_Driver/Src/stm32f0xx_hal_i2c.c ****       return HAL_ERROR;
 1485              		.loc 1 1395 14
 1486 01ea 0123     		movs	r3, #1
 1487 01ec 17E0     		b	.L51
 1488              	.L62:
1396:Drivers/STM32F0xx_HAL_Driver/Src/stm32f0xx_hal_i2c.c ****     }
1397:Drivers/STM32F0xx_HAL_Driver/Src/stm32f0xx_hal_i2c.c **** 
1398:Drivers/STM32F0xx_HAL_Driver/Src/stm32f0xx_hal_i2c.c ****     /* Disable Address Acknowledge */
1399:Drivers/STM32F0xx_HAL_Driver/Src/stm32f0xx_hal_i2c.c ****     hi2c->Instance->CR2 |= I2C_CR2_NACK;
 1489              		.loc 1 1399 9
 1490 01ee FB68     		ldr	r3, [r7, #12]
 1491 01f0 1B68     		ldr	r3, [r3]
 1492              		.loc 1 1399 19
 1493 01f2 5A68     		ldr	r2, [r3, #4]
 1494              		.loc 1 1399 9
 1495 01f4 FB68     		ldr	r3, [r7, #12]
 1496 01f6 1B68     		ldr	r3, [r3]
 1497              		.loc 1 1399 25
 1498 01f8 8021     		movs	r1, #128
 1499 01fa 0902     		lsls	r1, r1, #8
 1500 01fc 0A43     		orrs	r2, r1
 1501 01fe 5A60     		str	r2, [r3, #4]
1400:Drivers/STM32F0xx_HAL_Driver/Src/stm32f0xx_hal_i2c.c **** 
1401:Drivers/STM32F0xx_HAL_Driver/Src/stm32f0xx_hal_i2c.c ****     hi2c->State = HAL_I2C_STATE_READY;
 1502              		.loc 1 1401 17
 1503 0200 FB68     		ldr	r3, [r7, #12]
 1504 0202 4122     		movs	r2, #65
 1505 0204 2021     		movs	r1, #32
 1506 0206 9954     		strb	r1, [r3, r2]
1402:Drivers/STM32F0xx_HAL_Driver/Src/stm32f0xx_hal_i2c.c ****     hi2c->Mode  = HAL_I2C_MODE_NONE;
 1507              		.loc 1 1402 17
 1508 0208 FB68     		ldr	r3, [r7, #12]
 1509 020a 4222     		movs	r2, #66
 1510 020c 0021     		movs	r1, #0
 1511 020e 9954     		strb	r1, [r3, r2]
1403:Drivers/STM32F0xx_HAL_Driver/Src/stm32f0xx_hal_i2c.c **** 
ARM GAS  /tmp/ccVMOeEl.s 			page 52


1404:Drivers/STM32F0xx_HAL_Driver/Src/stm32f0xx_hal_i2c.c ****     /* Process Unlocked */
1405:Drivers/STM32F0xx_HAL_Driver/Src/stm32f0xx_hal_i2c.c ****     __HAL_UNLOCK(hi2c);
 1512              		.loc 1 1405 5
 1513 0210 FB68     		ldr	r3, [r7, #12]
 1514 0212 4022     		movs	r2, #64
 1515 0214 0021     		movs	r1, #0
 1516 0216 9954     		strb	r1, [r3, r2]
1406:Drivers/STM32F0xx_HAL_Driver/Src/stm32f0xx_hal_i2c.c **** 
1407:Drivers/STM32F0xx_HAL_Driver/Src/stm32f0xx_hal_i2c.c ****     return HAL_OK;
 1517              		.loc 1 1407 12
 1518 0218 0023     		movs	r3, #0
 1519 021a 00E0     		b	.L51
 1520              	.L48:
1408:Drivers/STM32F0xx_HAL_Driver/Src/stm32f0xx_hal_i2c.c ****   }
1409:Drivers/STM32F0xx_HAL_Driver/Src/stm32f0xx_hal_i2c.c ****   else
1410:Drivers/STM32F0xx_HAL_Driver/Src/stm32f0xx_hal_i2c.c ****   {
1411:Drivers/STM32F0xx_HAL_Driver/Src/stm32f0xx_hal_i2c.c ****     return HAL_BUSY;
 1521              		.loc 1 1411 12
 1522 021c 0223     		movs	r3, #2
 1523              	.L51:
1412:Drivers/STM32F0xx_HAL_Driver/Src/stm32f0xx_hal_i2c.c ****   }
1413:Drivers/STM32F0xx_HAL_Driver/Src/stm32f0xx_hal_i2c.c **** }
 1524              		.loc 1 1413 1
 1525 021e 1800     		movs	r0, r3
 1526 0220 BD46     		mov	sp, r7
 1527 0222 06B0     		add	sp, sp, #24
 1528              		@ sp needed
 1529 0224 80BD     		pop	{r7, pc}
 1530              	.L64:
 1531 0226 C046     		.align	2
 1532              	.L63:
 1533 0228 FF7FFFFF 		.word	-32769
 1534              		.cfi_endproc
 1535              	.LFE46:
 1537              		.section	.text.HAL_I2C_Slave_Receive,"ax",%progbits
 1538              		.align	1
 1539              		.global	HAL_I2C_Slave_Receive
 1540              		.syntax unified
 1541              		.code	16
 1542              		.thumb_func
 1544              	HAL_I2C_Slave_Receive:
 1545              	.LFB47:
1414:Drivers/STM32F0xx_HAL_Driver/Src/stm32f0xx_hal_i2c.c **** 
1415:Drivers/STM32F0xx_HAL_Driver/Src/stm32f0xx_hal_i2c.c **** /**
1416:Drivers/STM32F0xx_HAL_Driver/Src/stm32f0xx_hal_i2c.c ****   * @brief  Receive in slave mode an amount of data in blocking mode
1417:Drivers/STM32F0xx_HAL_Driver/Src/stm32f0xx_hal_i2c.c ****   * @param  hi2c Pointer to a I2C_HandleTypeDef structure that contains
1418:Drivers/STM32F0xx_HAL_Driver/Src/stm32f0xx_hal_i2c.c ****   *                the configuration information for the specified I2C.
1419:Drivers/STM32F0xx_HAL_Driver/Src/stm32f0xx_hal_i2c.c ****   * @param  pData Pointer to data buffer
1420:Drivers/STM32F0xx_HAL_Driver/Src/stm32f0xx_hal_i2c.c ****   * @param  Size Amount of data to be sent
1421:Drivers/STM32F0xx_HAL_Driver/Src/stm32f0xx_hal_i2c.c ****   * @param  Timeout Timeout duration
1422:Drivers/STM32F0xx_HAL_Driver/Src/stm32f0xx_hal_i2c.c ****   * @retval HAL status
1423:Drivers/STM32F0xx_HAL_Driver/Src/stm32f0xx_hal_i2c.c ****   */
1424:Drivers/STM32F0xx_HAL_Driver/Src/stm32f0xx_hal_i2c.c **** HAL_StatusTypeDef HAL_I2C_Slave_Receive(I2C_HandleTypeDef *hi2c, uint8_t *pData, uint16_t Size, uin
1425:Drivers/STM32F0xx_HAL_Driver/Src/stm32f0xx_hal_i2c.c **** {
 1546              		.loc 1 1425 1
 1547              		.cfi_startproc
 1548              		@ args = 0, pretend = 0, frame = 24
ARM GAS  /tmp/ccVMOeEl.s 			page 53


 1549              		@ frame_needed = 1, uses_anonymous_args = 0
 1550 0000 80B5     		push	{r7, lr}
 1551              	.LCFI21:
 1552              		.cfi_def_cfa_offset 8
 1553              		.cfi_offset 7, -8
 1554              		.cfi_offset 14, -4
 1555 0002 88B0     		sub	sp, sp, #32
 1556              	.LCFI22:
 1557              		.cfi_def_cfa_offset 40
 1558 0004 02AF     		add	r7, sp, #8
 1559              	.LCFI23:
 1560              		.cfi_def_cfa 7, 32
 1561 0006 F860     		str	r0, [r7, #12]
 1562 0008 B960     		str	r1, [r7, #8]
 1563 000a 3B60     		str	r3, [r7]
 1564 000c BB1D     		adds	r3, r7, #6
 1565 000e 1A80     		strh	r2, [r3]
1426:Drivers/STM32F0xx_HAL_Driver/Src/stm32f0xx_hal_i2c.c ****   uint32_t tickstart;
1427:Drivers/STM32F0xx_HAL_Driver/Src/stm32f0xx_hal_i2c.c **** 
1428:Drivers/STM32F0xx_HAL_Driver/Src/stm32f0xx_hal_i2c.c ****   if (hi2c->State == HAL_I2C_STATE_READY)
 1566              		.loc 1 1428 11
 1567 0010 FB68     		ldr	r3, [r7, #12]
 1568 0012 4122     		movs	r2, #65
 1569 0014 9B5C     		ldrb	r3, [r3, r2]
 1570 0016 DBB2     		uxtb	r3, r3
 1571              		.loc 1 1428 6
 1572 0018 202B     		cmp	r3, #32
 1573 001a 00D0     		beq	.LCB1294
 1574 001c F3E0     		b	.L66	@long jump
 1575              	.LCB1294:
1429:Drivers/STM32F0xx_HAL_Driver/Src/stm32f0xx_hal_i2c.c ****   {
1430:Drivers/STM32F0xx_HAL_Driver/Src/stm32f0xx_hal_i2c.c ****     if ((pData == NULL) || (Size == 0U))
 1576              		.loc 1 1430 8
 1577 001e BB68     		ldr	r3, [r7, #8]
 1578 0020 002B     		cmp	r3, #0
 1579 0022 03D0     		beq	.L67
 1580              		.loc 1 1430 25 discriminator 1
 1581 0024 BB1D     		adds	r3, r7, #6
 1582 0026 1B88     		ldrh	r3, [r3]
 1583 0028 002B     		cmp	r3, #0
 1584 002a 05D1     		bne	.L68
 1585              	.L67:
1431:Drivers/STM32F0xx_HAL_Driver/Src/stm32f0xx_hal_i2c.c ****     {
1432:Drivers/STM32F0xx_HAL_Driver/Src/stm32f0xx_hal_i2c.c ****       hi2c->ErrorCode = HAL_I2C_ERROR_INVALID_PARAM;
 1586              		.loc 1 1432 23
 1587 002c FB68     		ldr	r3, [r7, #12]
 1588 002e 8022     		movs	r2, #128
 1589 0030 9200     		lsls	r2, r2, #2
 1590 0032 5A64     		str	r2, [r3, #68]
1433:Drivers/STM32F0xx_HAL_Driver/Src/stm32f0xx_hal_i2c.c ****       return  HAL_ERROR;
 1591              		.loc 1 1433 15
 1592 0034 0123     		movs	r3, #1
 1593 0036 E7E0     		b	.L69
 1594              	.L68:
1434:Drivers/STM32F0xx_HAL_Driver/Src/stm32f0xx_hal_i2c.c ****     }
1435:Drivers/STM32F0xx_HAL_Driver/Src/stm32f0xx_hal_i2c.c ****     /* Process Locked */
1436:Drivers/STM32F0xx_HAL_Driver/Src/stm32f0xx_hal_i2c.c ****     __HAL_LOCK(hi2c);
ARM GAS  /tmp/ccVMOeEl.s 			page 54


 1595              		.loc 1 1436 5
 1596 0038 FB68     		ldr	r3, [r7, #12]
 1597 003a 4022     		movs	r2, #64
 1598 003c 9B5C     		ldrb	r3, [r3, r2]
 1599 003e 012B     		cmp	r3, #1
 1600 0040 01D1     		bne	.L70
 1601              		.loc 1 1436 5 is_stmt 0 discriminator 1
 1602 0042 0223     		movs	r3, #2
 1603              		.loc 1 1436 5
 1604 0044 E0E0     		b	.L69
 1605              	.L70:
 1606              		.loc 1 1436 5 discriminator 2
 1607 0046 FB68     		ldr	r3, [r7, #12]
 1608 0048 4022     		movs	r2, #64
 1609 004a 0121     		movs	r1, #1
 1610 004c 9954     		strb	r1, [r3, r2]
1437:Drivers/STM32F0xx_HAL_Driver/Src/stm32f0xx_hal_i2c.c **** 
1438:Drivers/STM32F0xx_HAL_Driver/Src/stm32f0xx_hal_i2c.c ****     /* Init tickstart for timeout management*/
1439:Drivers/STM32F0xx_HAL_Driver/Src/stm32f0xx_hal_i2c.c ****     tickstart = HAL_GetTick();
 1611              		.loc 1 1439 17 is_stmt 1
 1612 004e FFF7FEFF 		bl	HAL_GetTick
 1613 0052 0300     		movs	r3, r0
 1614 0054 7B61     		str	r3, [r7, #20]
1440:Drivers/STM32F0xx_HAL_Driver/Src/stm32f0xx_hal_i2c.c **** 
1441:Drivers/STM32F0xx_HAL_Driver/Src/stm32f0xx_hal_i2c.c ****     hi2c->State     = HAL_I2C_STATE_BUSY_RX;
 1615              		.loc 1 1441 21
 1616 0056 FB68     		ldr	r3, [r7, #12]
 1617 0058 4122     		movs	r2, #65
 1618 005a 2221     		movs	r1, #34
 1619 005c 9954     		strb	r1, [r3, r2]
1442:Drivers/STM32F0xx_HAL_Driver/Src/stm32f0xx_hal_i2c.c ****     hi2c->Mode      = HAL_I2C_MODE_SLAVE;
 1620              		.loc 1 1442 21
 1621 005e FB68     		ldr	r3, [r7, #12]
 1622 0060 4222     		movs	r2, #66
 1623 0062 2021     		movs	r1, #32
 1624 0064 9954     		strb	r1, [r3, r2]
1443:Drivers/STM32F0xx_HAL_Driver/Src/stm32f0xx_hal_i2c.c ****     hi2c->ErrorCode = HAL_I2C_ERROR_NONE;
 1625              		.loc 1 1443 21
 1626 0066 FB68     		ldr	r3, [r7, #12]
 1627 0068 0022     		movs	r2, #0
 1628 006a 5A64     		str	r2, [r3, #68]
1444:Drivers/STM32F0xx_HAL_Driver/Src/stm32f0xx_hal_i2c.c **** 
1445:Drivers/STM32F0xx_HAL_Driver/Src/stm32f0xx_hal_i2c.c ****     /* Prepare transfer parameters */
1446:Drivers/STM32F0xx_HAL_Driver/Src/stm32f0xx_hal_i2c.c ****     hi2c->pBuffPtr  = pData;
 1629              		.loc 1 1446 21
 1630 006c FB68     		ldr	r3, [r7, #12]
 1631 006e BA68     		ldr	r2, [r7, #8]
 1632 0070 5A62     		str	r2, [r3, #36]
1447:Drivers/STM32F0xx_HAL_Driver/Src/stm32f0xx_hal_i2c.c ****     hi2c->XferCount = Size;
 1633              		.loc 1 1447 21
 1634 0072 FB68     		ldr	r3, [r7, #12]
 1635 0074 BA1D     		adds	r2, r7, #6
 1636 0076 1288     		ldrh	r2, [r2]
 1637 0078 5A85     		strh	r2, [r3, #42]
1448:Drivers/STM32F0xx_HAL_Driver/Src/stm32f0xx_hal_i2c.c ****     hi2c->XferISR   = NULL;
 1638              		.loc 1 1448 21
 1639 007a FB68     		ldr	r3, [r7, #12]
ARM GAS  /tmp/ccVMOeEl.s 			page 55


 1640 007c 0022     		movs	r2, #0
 1641 007e 5A63     		str	r2, [r3, #52]
1449:Drivers/STM32F0xx_HAL_Driver/Src/stm32f0xx_hal_i2c.c **** 
1450:Drivers/STM32F0xx_HAL_Driver/Src/stm32f0xx_hal_i2c.c ****     /* Enable Address Acknowledge */
1451:Drivers/STM32F0xx_HAL_Driver/Src/stm32f0xx_hal_i2c.c ****     hi2c->Instance->CR2 &= ~I2C_CR2_NACK;
 1642              		.loc 1 1451 9
 1643 0080 FB68     		ldr	r3, [r7, #12]
 1644 0082 1B68     		ldr	r3, [r3]
 1645              		.loc 1 1451 19
 1646 0084 5A68     		ldr	r2, [r3, #4]
 1647              		.loc 1 1451 9
 1648 0086 FB68     		ldr	r3, [r7, #12]
 1649 0088 1B68     		ldr	r3, [r3]
 1650              		.loc 1 1451 25
 1651 008a 6149     		ldr	r1, .L79
 1652 008c 0A40     		ands	r2, r1
 1653 008e 5A60     		str	r2, [r3, #4]
1452:Drivers/STM32F0xx_HAL_Driver/Src/stm32f0xx_hal_i2c.c **** 
1453:Drivers/STM32F0xx_HAL_Driver/Src/stm32f0xx_hal_i2c.c ****     /* Wait until ADDR flag is set */
1454:Drivers/STM32F0xx_HAL_Driver/Src/stm32f0xx_hal_i2c.c ****     if (I2C_WaitOnFlagUntilTimeout(hi2c, I2C_FLAG_ADDR, RESET, Timeout, tickstart) != HAL_OK)
 1654              		.loc 1 1454 9
 1655 0090 3A68     		ldr	r2, [r7]
 1656 0092 F868     		ldr	r0, [r7, #12]
 1657 0094 7B69     		ldr	r3, [r7, #20]
 1658 0096 0093     		str	r3, [sp]
 1659 0098 1300     		movs	r3, r2
 1660 009a 0022     		movs	r2, #0
 1661 009c 0821     		movs	r1, #8
 1662 009e FFF7FEFF 		bl	I2C_WaitOnFlagUntilTimeout
 1663 00a2 031E     		subs	r3, r0, #0
 1664              		.loc 1 1454 8 discriminator 1
 1665 00a4 0AD0     		beq	.L71
1455:Drivers/STM32F0xx_HAL_Driver/Src/stm32f0xx_hal_i2c.c ****     {
1456:Drivers/STM32F0xx_HAL_Driver/Src/stm32f0xx_hal_i2c.c ****       /* Disable Address Acknowledge */
1457:Drivers/STM32F0xx_HAL_Driver/Src/stm32f0xx_hal_i2c.c ****       hi2c->Instance->CR2 |= I2C_CR2_NACK;
 1666              		.loc 1 1457 11
 1667 00a6 FB68     		ldr	r3, [r7, #12]
 1668 00a8 1B68     		ldr	r3, [r3]
 1669              		.loc 1 1457 21
 1670 00aa 5A68     		ldr	r2, [r3, #4]
 1671              		.loc 1 1457 11
 1672 00ac FB68     		ldr	r3, [r7, #12]
 1673 00ae 1B68     		ldr	r3, [r3]
 1674              		.loc 1 1457 27
 1675 00b0 8021     		movs	r1, #128
 1676 00b2 0902     		lsls	r1, r1, #8
 1677 00b4 0A43     		orrs	r2, r1
 1678 00b6 5A60     		str	r2, [r3, #4]
1458:Drivers/STM32F0xx_HAL_Driver/Src/stm32f0xx_hal_i2c.c ****       return HAL_ERROR;
 1679              		.loc 1 1458 14
 1680 00b8 0123     		movs	r3, #1
 1681 00ba A5E0     		b	.L69
 1682              	.L71:
1459:Drivers/STM32F0xx_HAL_Driver/Src/stm32f0xx_hal_i2c.c ****     }
1460:Drivers/STM32F0xx_HAL_Driver/Src/stm32f0xx_hal_i2c.c **** 
1461:Drivers/STM32F0xx_HAL_Driver/Src/stm32f0xx_hal_i2c.c ****     /* Clear ADDR flag */
1462:Drivers/STM32F0xx_HAL_Driver/Src/stm32f0xx_hal_i2c.c ****     __HAL_I2C_CLEAR_FLAG(hi2c, I2C_FLAG_ADDR);
ARM GAS  /tmp/ccVMOeEl.s 			page 56


 1683              		.loc 1 1462 5
 1684 00bc FB68     		ldr	r3, [r7, #12]
 1685 00be 1B68     		ldr	r3, [r3]
 1686 00c0 0822     		movs	r2, #8
 1687 00c2 DA61     		str	r2, [r3, #28]
1463:Drivers/STM32F0xx_HAL_Driver/Src/stm32f0xx_hal_i2c.c **** 
1464:Drivers/STM32F0xx_HAL_Driver/Src/stm32f0xx_hal_i2c.c ****     /* Wait until DIR flag is reset Receiver mode */
1465:Drivers/STM32F0xx_HAL_Driver/Src/stm32f0xx_hal_i2c.c ****     if (I2C_WaitOnFlagUntilTimeout(hi2c, I2C_FLAG_DIR, SET, Timeout, tickstart) != HAL_OK)
 1688              		.loc 1 1465 9
 1689 00c4 3A68     		ldr	r2, [r7]
 1690 00c6 8023     		movs	r3, #128
 1691 00c8 5902     		lsls	r1, r3, #9
 1692 00ca F868     		ldr	r0, [r7, #12]
 1693 00cc 7B69     		ldr	r3, [r7, #20]
 1694 00ce 0093     		str	r3, [sp]
 1695 00d0 1300     		movs	r3, r2
 1696 00d2 0122     		movs	r2, #1
 1697 00d4 FFF7FEFF 		bl	I2C_WaitOnFlagUntilTimeout
 1698 00d8 031E     		subs	r3, r0, #0
 1699              		.loc 1 1465 8 discriminator 1
 1700 00da 4AD0     		beq	.L73
1466:Drivers/STM32F0xx_HAL_Driver/Src/stm32f0xx_hal_i2c.c ****     {
1467:Drivers/STM32F0xx_HAL_Driver/Src/stm32f0xx_hal_i2c.c ****       /* Disable Address Acknowledge */
1468:Drivers/STM32F0xx_HAL_Driver/Src/stm32f0xx_hal_i2c.c ****       hi2c->Instance->CR2 |= I2C_CR2_NACK;
 1701              		.loc 1 1468 11
 1702 00dc FB68     		ldr	r3, [r7, #12]
 1703 00de 1B68     		ldr	r3, [r3]
 1704              		.loc 1 1468 21
 1705 00e0 5A68     		ldr	r2, [r3, #4]
 1706              		.loc 1 1468 11
 1707 00e2 FB68     		ldr	r3, [r7, #12]
 1708 00e4 1B68     		ldr	r3, [r3]
 1709              		.loc 1 1468 27
 1710 00e6 8021     		movs	r1, #128
 1711 00e8 0902     		lsls	r1, r1, #8
 1712 00ea 0A43     		orrs	r2, r1
 1713 00ec 5A60     		str	r2, [r3, #4]
1469:Drivers/STM32F0xx_HAL_Driver/Src/stm32f0xx_hal_i2c.c ****       return HAL_ERROR;
 1714              		.loc 1 1469 14
 1715 00ee 0123     		movs	r3, #1
 1716 00f0 8AE0     		b	.L69
 1717              	.L76:
1470:Drivers/STM32F0xx_HAL_Driver/Src/stm32f0xx_hal_i2c.c ****     }
1471:Drivers/STM32F0xx_HAL_Driver/Src/stm32f0xx_hal_i2c.c **** 
1472:Drivers/STM32F0xx_HAL_Driver/Src/stm32f0xx_hal_i2c.c ****     while (hi2c->XferCount > 0U)
1473:Drivers/STM32F0xx_HAL_Driver/Src/stm32f0xx_hal_i2c.c ****     {
1474:Drivers/STM32F0xx_HAL_Driver/Src/stm32f0xx_hal_i2c.c ****       /* Wait until RXNE flag is set */
1475:Drivers/STM32F0xx_HAL_Driver/Src/stm32f0xx_hal_i2c.c ****       if (I2C_WaitOnRXNEFlagUntilTimeout(hi2c, Timeout, tickstart) != HAL_OK)
 1718              		.loc 1 1475 11
 1719 00f2 7A69     		ldr	r2, [r7, #20]
 1720 00f4 3968     		ldr	r1, [r7]
 1721 00f6 FB68     		ldr	r3, [r7, #12]
 1722 00f8 1800     		movs	r0, r3
 1723 00fa FFF7FEFF 		bl	I2C_WaitOnRXNEFlagUntilTimeout
 1724 00fe 031E     		subs	r3, r0, #0
 1725              		.loc 1 1475 10 discriminator 1
 1726 0100 24D0     		beq	.L74
ARM GAS  /tmp/ccVMOeEl.s 			page 57


1476:Drivers/STM32F0xx_HAL_Driver/Src/stm32f0xx_hal_i2c.c ****       {
1477:Drivers/STM32F0xx_HAL_Driver/Src/stm32f0xx_hal_i2c.c ****         /* Disable Address Acknowledge */
1478:Drivers/STM32F0xx_HAL_Driver/Src/stm32f0xx_hal_i2c.c ****         hi2c->Instance->CR2 |= I2C_CR2_NACK;
 1727              		.loc 1 1478 13
 1728 0102 FB68     		ldr	r3, [r7, #12]
 1729 0104 1B68     		ldr	r3, [r3]
 1730              		.loc 1 1478 23
 1731 0106 5A68     		ldr	r2, [r3, #4]
 1732              		.loc 1 1478 13
 1733 0108 FB68     		ldr	r3, [r7, #12]
 1734 010a 1B68     		ldr	r3, [r3]
 1735              		.loc 1 1478 29
 1736 010c 8021     		movs	r1, #128
 1737 010e 0902     		lsls	r1, r1, #8
 1738 0110 0A43     		orrs	r2, r1
 1739 0112 5A60     		str	r2, [r3, #4]
1479:Drivers/STM32F0xx_HAL_Driver/Src/stm32f0xx_hal_i2c.c **** 
1480:Drivers/STM32F0xx_HAL_Driver/Src/stm32f0xx_hal_i2c.c ****         /* Store Last receive data if any */
1481:Drivers/STM32F0xx_HAL_Driver/Src/stm32f0xx_hal_i2c.c ****         if (__HAL_I2C_GET_FLAG(hi2c, I2C_FLAG_RXNE) == SET)
 1740              		.loc 1 1481 13
 1741 0114 FB68     		ldr	r3, [r7, #12]
 1742 0116 1B68     		ldr	r3, [r3]
 1743 0118 9B69     		ldr	r3, [r3, #24]
 1744 011a 0422     		movs	r2, #4
 1745 011c 1340     		ands	r3, r2
 1746              		.loc 1 1481 12
 1747 011e 042B     		cmp	r3, #4
 1748 0120 12D1     		bne	.L75
1482:Drivers/STM32F0xx_HAL_Driver/Src/stm32f0xx_hal_i2c.c ****         {
1483:Drivers/STM32F0xx_HAL_Driver/Src/stm32f0xx_hal_i2c.c ****           /* Read data from RXDR */
1484:Drivers/STM32F0xx_HAL_Driver/Src/stm32f0xx_hal_i2c.c ****           *hi2c->pBuffPtr = (uint8_t)hi2c->Instance->RXDR;
 1749              		.loc 1 1484 42
 1750 0122 FB68     		ldr	r3, [r7, #12]
 1751 0124 1B68     		ldr	r3, [r3]
 1752              		.loc 1 1484 52
 1753 0126 5A6A     		ldr	r2, [r3, #36]
 1754              		.loc 1 1484 16
 1755 0128 FB68     		ldr	r3, [r7, #12]
 1756 012a 5B6A     		ldr	r3, [r3, #36]
 1757              		.loc 1 1484 29
 1758 012c D2B2     		uxtb	r2, r2
 1759              		.loc 1 1484 27
 1760 012e 1A70     		strb	r2, [r3]
1485:Drivers/STM32F0xx_HAL_Driver/Src/stm32f0xx_hal_i2c.c **** 
1486:Drivers/STM32F0xx_HAL_Driver/Src/stm32f0xx_hal_i2c.c ****           /* Increment Buffer pointer */
1487:Drivers/STM32F0xx_HAL_Driver/Src/stm32f0xx_hal_i2c.c ****           hi2c->pBuffPtr++;
 1761              		.loc 1 1487 15
 1762 0130 FB68     		ldr	r3, [r7, #12]
 1763 0132 5B6A     		ldr	r3, [r3, #36]
 1764              		.loc 1 1487 25
 1765 0134 5A1C     		adds	r2, r3, #1
 1766 0136 FB68     		ldr	r3, [r7, #12]
 1767 0138 5A62     		str	r2, [r3, #36]
1488:Drivers/STM32F0xx_HAL_Driver/Src/stm32f0xx_hal_i2c.c **** 
1489:Drivers/STM32F0xx_HAL_Driver/Src/stm32f0xx_hal_i2c.c ****           hi2c->XferCount--;
 1768              		.loc 1 1489 15
 1769 013a FB68     		ldr	r3, [r7, #12]
ARM GAS  /tmp/ccVMOeEl.s 			page 58


 1770 013c 5B8D     		ldrh	r3, [r3, #42]
 1771 013e 9BB2     		uxth	r3, r3
 1772              		.loc 1 1489 26
 1773 0140 013B     		subs	r3, r3, #1
 1774 0142 9AB2     		uxth	r2, r3
 1775 0144 FB68     		ldr	r3, [r7, #12]
 1776 0146 5A85     		strh	r2, [r3, #42]
 1777              	.L75:
1490:Drivers/STM32F0xx_HAL_Driver/Src/stm32f0xx_hal_i2c.c ****         }
1491:Drivers/STM32F0xx_HAL_Driver/Src/stm32f0xx_hal_i2c.c **** 
1492:Drivers/STM32F0xx_HAL_Driver/Src/stm32f0xx_hal_i2c.c ****         return HAL_ERROR;
 1778              		.loc 1 1492 16
 1779 0148 0123     		movs	r3, #1
 1780 014a 5DE0     		b	.L69
 1781              	.L74:
1493:Drivers/STM32F0xx_HAL_Driver/Src/stm32f0xx_hal_i2c.c ****       }
1494:Drivers/STM32F0xx_HAL_Driver/Src/stm32f0xx_hal_i2c.c **** 
1495:Drivers/STM32F0xx_HAL_Driver/Src/stm32f0xx_hal_i2c.c ****       /* Read data from RXDR */
1496:Drivers/STM32F0xx_HAL_Driver/Src/stm32f0xx_hal_i2c.c ****       *hi2c->pBuffPtr = (uint8_t)hi2c->Instance->RXDR;
 1782              		.loc 1 1496 38
 1783 014c FB68     		ldr	r3, [r7, #12]
 1784 014e 1B68     		ldr	r3, [r3]
 1785              		.loc 1 1496 48
 1786 0150 5A6A     		ldr	r2, [r3, #36]
 1787              		.loc 1 1496 12
 1788 0152 FB68     		ldr	r3, [r7, #12]
 1789 0154 5B6A     		ldr	r3, [r3, #36]
 1790              		.loc 1 1496 25
 1791 0156 D2B2     		uxtb	r2, r2
 1792              		.loc 1 1496 23
 1793 0158 1A70     		strb	r2, [r3]
1497:Drivers/STM32F0xx_HAL_Driver/Src/stm32f0xx_hal_i2c.c **** 
1498:Drivers/STM32F0xx_HAL_Driver/Src/stm32f0xx_hal_i2c.c ****       /* Increment Buffer pointer */
1499:Drivers/STM32F0xx_HAL_Driver/Src/stm32f0xx_hal_i2c.c ****       hi2c->pBuffPtr++;
 1794              		.loc 1 1499 11
 1795 015a FB68     		ldr	r3, [r7, #12]
 1796 015c 5B6A     		ldr	r3, [r3, #36]
 1797              		.loc 1 1499 21
 1798 015e 5A1C     		adds	r2, r3, #1
 1799 0160 FB68     		ldr	r3, [r7, #12]
 1800 0162 5A62     		str	r2, [r3, #36]
1500:Drivers/STM32F0xx_HAL_Driver/Src/stm32f0xx_hal_i2c.c **** 
1501:Drivers/STM32F0xx_HAL_Driver/Src/stm32f0xx_hal_i2c.c ****       hi2c->XferCount--;
 1801              		.loc 1 1501 11
 1802 0164 FB68     		ldr	r3, [r7, #12]
 1803 0166 5B8D     		ldrh	r3, [r3, #42]
 1804 0168 9BB2     		uxth	r3, r3
 1805              		.loc 1 1501 22
 1806 016a 013B     		subs	r3, r3, #1
 1807 016c 9AB2     		uxth	r2, r3
 1808 016e FB68     		ldr	r3, [r7, #12]
 1809 0170 5A85     		strh	r2, [r3, #42]
 1810              	.L73:
1472:Drivers/STM32F0xx_HAL_Driver/Src/stm32f0xx_hal_i2c.c ****     {
 1811              		.loc 1 1472 16
 1812 0172 FB68     		ldr	r3, [r7, #12]
 1813 0174 5B8D     		ldrh	r3, [r3, #42]
ARM GAS  /tmp/ccVMOeEl.s 			page 59


 1814 0176 9BB2     		uxth	r3, r3
1472:Drivers/STM32F0xx_HAL_Driver/Src/stm32f0xx_hal_i2c.c ****     {
 1815              		.loc 1 1472 28
 1816 0178 002B     		cmp	r3, #0
 1817 017a BAD1     		bne	.L76
1502:Drivers/STM32F0xx_HAL_Driver/Src/stm32f0xx_hal_i2c.c ****     }
1503:Drivers/STM32F0xx_HAL_Driver/Src/stm32f0xx_hal_i2c.c **** 
1504:Drivers/STM32F0xx_HAL_Driver/Src/stm32f0xx_hal_i2c.c ****     /* Wait until STOP flag is set */
1505:Drivers/STM32F0xx_HAL_Driver/Src/stm32f0xx_hal_i2c.c ****     if (I2C_WaitOnSTOPFlagUntilTimeout(hi2c, Timeout, tickstart) != HAL_OK)
 1818              		.loc 1 1505 9
 1819 017c 7A69     		ldr	r2, [r7, #20]
 1820 017e 3968     		ldr	r1, [r7]
 1821 0180 FB68     		ldr	r3, [r7, #12]
 1822 0182 1800     		movs	r0, r3
 1823 0184 FFF7FEFF 		bl	I2C_WaitOnSTOPFlagUntilTimeout
 1824 0188 031E     		subs	r3, r0, #0
 1825              		.loc 1 1505 8 discriminator 1
 1826 018a 0AD0     		beq	.L77
1506:Drivers/STM32F0xx_HAL_Driver/Src/stm32f0xx_hal_i2c.c ****     {
1507:Drivers/STM32F0xx_HAL_Driver/Src/stm32f0xx_hal_i2c.c ****       /* Disable Address Acknowledge */
1508:Drivers/STM32F0xx_HAL_Driver/Src/stm32f0xx_hal_i2c.c ****       hi2c->Instance->CR2 |= I2C_CR2_NACK;
 1827              		.loc 1 1508 11
 1828 018c FB68     		ldr	r3, [r7, #12]
 1829 018e 1B68     		ldr	r3, [r3]
 1830              		.loc 1 1508 21
 1831 0190 5A68     		ldr	r2, [r3, #4]
 1832              		.loc 1 1508 11
 1833 0192 FB68     		ldr	r3, [r7, #12]
 1834 0194 1B68     		ldr	r3, [r3]
 1835              		.loc 1 1508 27
 1836 0196 8021     		movs	r1, #128
 1837 0198 0902     		lsls	r1, r1, #8
 1838 019a 0A43     		orrs	r2, r1
 1839 019c 5A60     		str	r2, [r3, #4]
1509:Drivers/STM32F0xx_HAL_Driver/Src/stm32f0xx_hal_i2c.c ****       return HAL_ERROR;
 1840              		.loc 1 1509 14
 1841 019e 0123     		movs	r3, #1
 1842 01a0 32E0     		b	.L69
 1843              	.L77:
1510:Drivers/STM32F0xx_HAL_Driver/Src/stm32f0xx_hal_i2c.c ****     }
1511:Drivers/STM32F0xx_HAL_Driver/Src/stm32f0xx_hal_i2c.c **** 
1512:Drivers/STM32F0xx_HAL_Driver/Src/stm32f0xx_hal_i2c.c ****     /* Clear STOP flag */
1513:Drivers/STM32F0xx_HAL_Driver/Src/stm32f0xx_hal_i2c.c ****     __HAL_I2C_CLEAR_FLAG(hi2c, I2C_FLAG_STOPF);
 1844              		.loc 1 1513 5
 1845 01a2 FB68     		ldr	r3, [r7, #12]
 1846 01a4 1B68     		ldr	r3, [r3]
 1847 01a6 2022     		movs	r2, #32
 1848 01a8 DA61     		str	r2, [r3, #28]
1514:Drivers/STM32F0xx_HAL_Driver/Src/stm32f0xx_hal_i2c.c **** 
1515:Drivers/STM32F0xx_HAL_Driver/Src/stm32f0xx_hal_i2c.c ****     /* Wait until BUSY flag is reset */
1516:Drivers/STM32F0xx_HAL_Driver/Src/stm32f0xx_hal_i2c.c ****     if (I2C_WaitOnFlagUntilTimeout(hi2c, I2C_FLAG_BUSY, SET, Timeout, tickstart) != HAL_OK)
 1849              		.loc 1 1516 9
 1850 01aa 3A68     		ldr	r2, [r7]
 1851 01ac 8023     		movs	r3, #128
 1852 01ae 1902     		lsls	r1, r3, #8
 1853 01b0 F868     		ldr	r0, [r7, #12]
 1854 01b2 7B69     		ldr	r3, [r7, #20]
ARM GAS  /tmp/ccVMOeEl.s 			page 60


 1855 01b4 0093     		str	r3, [sp]
 1856 01b6 1300     		movs	r3, r2
 1857 01b8 0122     		movs	r2, #1
 1858 01ba FFF7FEFF 		bl	I2C_WaitOnFlagUntilTimeout
 1859 01be 031E     		subs	r3, r0, #0
 1860              		.loc 1 1516 8 discriminator 1
 1861 01c0 0AD0     		beq	.L78
1517:Drivers/STM32F0xx_HAL_Driver/Src/stm32f0xx_hal_i2c.c ****     {
1518:Drivers/STM32F0xx_HAL_Driver/Src/stm32f0xx_hal_i2c.c ****       /* Disable Address Acknowledge */
1519:Drivers/STM32F0xx_HAL_Driver/Src/stm32f0xx_hal_i2c.c ****       hi2c->Instance->CR2 |= I2C_CR2_NACK;
 1862              		.loc 1 1519 11
 1863 01c2 FB68     		ldr	r3, [r7, #12]
 1864 01c4 1B68     		ldr	r3, [r3]
 1865              		.loc 1 1519 21
 1866 01c6 5A68     		ldr	r2, [r3, #4]
 1867              		.loc 1 1519 11
 1868 01c8 FB68     		ldr	r3, [r7, #12]
 1869 01ca 1B68     		ldr	r3, [r3]
 1870              		.loc 1 1519 27
 1871 01cc 8021     		movs	r1, #128
 1872 01ce 0902     		lsls	r1, r1, #8
 1873 01d0 0A43     		orrs	r2, r1
 1874 01d2 5A60     		str	r2, [r3, #4]
1520:Drivers/STM32F0xx_HAL_Driver/Src/stm32f0xx_hal_i2c.c ****       return HAL_ERROR;
 1875              		.loc 1 1520 14
 1876 01d4 0123     		movs	r3, #1
 1877 01d6 17E0     		b	.L69
 1878              	.L78:
1521:Drivers/STM32F0xx_HAL_Driver/Src/stm32f0xx_hal_i2c.c ****     }
1522:Drivers/STM32F0xx_HAL_Driver/Src/stm32f0xx_hal_i2c.c **** 
1523:Drivers/STM32F0xx_HAL_Driver/Src/stm32f0xx_hal_i2c.c ****     /* Disable Address Acknowledge */
1524:Drivers/STM32F0xx_HAL_Driver/Src/stm32f0xx_hal_i2c.c ****     hi2c->Instance->CR2 |= I2C_CR2_NACK;
 1879              		.loc 1 1524 9
 1880 01d8 FB68     		ldr	r3, [r7, #12]
 1881 01da 1B68     		ldr	r3, [r3]
 1882              		.loc 1 1524 19
 1883 01dc 5A68     		ldr	r2, [r3, #4]
 1884              		.loc 1 1524 9
 1885 01de FB68     		ldr	r3, [r7, #12]
 1886 01e0 1B68     		ldr	r3, [r3]
 1887              		.loc 1 1524 25
 1888 01e2 8021     		movs	r1, #128
 1889 01e4 0902     		lsls	r1, r1, #8
 1890 01e6 0A43     		orrs	r2, r1
 1891 01e8 5A60     		str	r2, [r3, #4]
1525:Drivers/STM32F0xx_HAL_Driver/Src/stm32f0xx_hal_i2c.c **** 
1526:Drivers/STM32F0xx_HAL_Driver/Src/stm32f0xx_hal_i2c.c ****     hi2c->State = HAL_I2C_STATE_READY;
 1892              		.loc 1 1526 17
 1893 01ea FB68     		ldr	r3, [r7, #12]
 1894 01ec 4122     		movs	r2, #65
 1895 01ee 2021     		movs	r1, #32
 1896 01f0 9954     		strb	r1, [r3, r2]
1527:Drivers/STM32F0xx_HAL_Driver/Src/stm32f0xx_hal_i2c.c ****     hi2c->Mode  = HAL_I2C_MODE_NONE;
 1897              		.loc 1 1527 17
 1898 01f2 FB68     		ldr	r3, [r7, #12]
 1899 01f4 4222     		movs	r2, #66
 1900 01f6 0021     		movs	r1, #0
ARM GAS  /tmp/ccVMOeEl.s 			page 61


 1901 01f8 9954     		strb	r1, [r3, r2]
1528:Drivers/STM32F0xx_HAL_Driver/Src/stm32f0xx_hal_i2c.c **** 
1529:Drivers/STM32F0xx_HAL_Driver/Src/stm32f0xx_hal_i2c.c ****     /* Process Unlocked */
1530:Drivers/STM32F0xx_HAL_Driver/Src/stm32f0xx_hal_i2c.c ****     __HAL_UNLOCK(hi2c);
 1902              		.loc 1 1530 5
 1903 01fa FB68     		ldr	r3, [r7, #12]
 1904 01fc 4022     		movs	r2, #64
 1905 01fe 0021     		movs	r1, #0
 1906 0200 9954     		strb	r1, [r3, r2]
1531:Drivers/STM32F0xx_HAL_Driver/Src/stm32f0xx_hal_i2c.c **** 
1532:Drivers/STM32F0xx_HAL_Driver/Src/stm32f0xx_hal_i2c.c ****     return HAL_OK;
 1907              		.loc 1 1532 12
 1908 0202 0023     		movs	r3, #0
 1909 0204 00E0     		b	.L69
 1910              	.L66:
1533:Drivers/STM32F0xx_HAL_Driver/Src/stm32f0xx_hal_i2c.c ****   }
1534:Drivers/STM32F0xx_HAL_Driver/Src/stm32f0xx_hal_i2c.c ****   else
1535:Drivers/STM32F0xx_HAL_Driver/Src/stm32f0xx_hal_i2c.c ****   {
1536:Drivers/STM32F0xx_HAL_Driver/Src/stm32f0xx_hal_i2c.c ****     return HAL_BUSY;
 1911              		.loc 1 1536 12
 1912 0206 0223     		movs	r3, #2
 1913              	.L69:
1537:Drivers/STM32F0xx_HAL_Driver/Src/stm32f0xx_hal_i2c.c ****   }
1538:Drivers/STM32F0xx_HAL_Driver/Src/stm32f0xx_hal_i2c.c **** }
 1914              		.loc 1 1538 1
 1915 0208 1800     		movs	r0, r3
 1916 020a BD46     		mov	sp, r7
 1917 020c 06B0     		add	sp, sp, #24
 1918              		@ sp needed
 1919 020e 80BD     		pop	{r7, pc}
 1920              	.L80:
 1921              		.align	2
 1922              	.L79:
 1923 0210 FF7FFFFF 		.word	-32769
 1924              		.cfi_endproc
 1925              	.LFE47:
 1927              		.section	.text.HAL_I2C_Master_Transmit_IT,"ax",%progbits
 1928              		.align	1
 1929              		.global	HAL_I2C_Master_Transmit_IT
 1930              		.syntax unified
 1931              		.code	16
 1932              		.thumb_func
 1934              	HAL_I2C_Master_Transmit_IT:
 1935              	.LFB48:
1539:Drivers/STM32F0xx_HAL_Driver/Src/stm32f0xx_hal_i2c.c **** 
1540:Drivers/STM32F0xx_HAL_Driver/Src/stm32f0xx_hal_i2c.c **** /**
1541:Drivers/STM32F0xx_HAL_Driver/Src/stm32f0xx_hal_i2c.c ****   * @brief  Transmit in master mode an amount of data in non-blocking mode with Interrupt
1542:Drivers/STM32F0xx_HAL_Driver/Src/stm32f0xx_hal_i2c.c ****   * @param  hi2c Pointer to a I2C_HandleTypeDef structure that contains
1543:Drivers/STM32F0xx_HAL_Driver/Src/stm32f0xx_hal_i2c.c ****   *                the configuration information for the specified I2C.
1544:Drivers/STM32F0xx_HAL_Driver/Src/stm32f0xx_hal_i2c.c ****   * @param  DevAddress Target device address: The device 7 bits address value
1545:Drivers/STM32F0xx_HAL_Driver/Src/stm32f0xx_hal_i2c.c ****   *         in datasheet must be shifted to the left before calling the interface
1546:Drivers/STM32F0xx_HAL_Driver/Src/stm32f0xx_hal_i2c.c ****   * @param  pData Pointer to data buffer
1547:Drivers/STM32F0xx_HAL_Driver/Src/stm32f0xx_hal_i2c.c ****   * @param  Size Amount of data to be sent
1548:Drivers/STM32F0xx_HAL_Driver/Src/stm32f0xx_hal_i2c.c ****   * @retval HAL status
1549:Drivers/STM32F0xx_HAL_Driver/Src/stm32f0xx_hal_i2c.c ****   */
1550:Drivers/STM32F0xx_HAL_Driver/Src/stm32f0xx_hal_i2c.c **** HAL_StatusTypeDef HAL_I2C_Master_Transmit_IT(I2C_HandleTypeDef *hi2c, uint16_t DevAddress, uint8_t 
1551:Drivers/STM32F0xx_HAL_Driver/Src/stm32f0xx_hal_i2c.c **** {
ARM GAS  /tmp/ccVMOeEl.s 			page 62


 1936              		.loc 1 1551 1
 1937              		.cfi_startproc
 1938              		@ args = 0, pretend = 0, frame = 24
 1939              		@ frame_needed = 1, uses_anonymous_args = 0
 1940 0000 90B5     		push	{r4, r7, lr}
 1941              	.LCFI24:
 1942              		.cfi_def_cfa_offset 12
 1943              		.cfi_offset 4, -12
 1944              		.cfi_offset 7, -8
 1945              		.cfi_offset 14, -4
 1946 0002 89B0     		sub	sp, sp, #36
 1947              	.LCFI25:
 1948              		.cfi_def_cfa_offset 48
 1949 0004 02AF     		add	r7, sp, #8
 1950              	.LCFI26:
 1951              		.cfi_def_cfa 7, 40
 1952 0006 F860     		str	r0, [r7, #12]
 1953 0008 0800     		movs	r0, r1
 1954 000a 7A60     		str	r2, [r7, #4]
 1955 000c 1900     		movs	r1, r3
 1956 000e 0A23     		movs	r3, #10
 1957 0010 FB18     		adds	r3, r7, r3
 1958 0012 021C     		adds	r2, r0, #0
 1959 0014 1A80     		strh	r2, [r3]
 1960 0016 0823     		movs	r3, #8
 1961 0018 FB18     		adds	r3, r7, r3
 1962 001a 0A1C     		adds	r2, r1, #0
 1963 001c 1A80     		strh	r2, [r3]
1552:Drivers/STM32F0xx_HAL_Driver/Src/stm32f0xx_hal_i2c.c ****   uint32_t xfermode;
1553:Drivers/STM32F0xx_HAL_Driver/Src/stm32f0xx_hal_i2c.c **** 
1554:Drivers/STM32F0xx_HAL_Driver/Src/stm32f0xx_hal_i2c.c ****   if (hi2c->State == HAL_I2C_STATE_READY)
 1964              		.loc 1 1554 11
 1965 001e FB68     		ldr	r3, [r7, #12]
 1966 0020 4122     		movs	r2, #65
 1967 0022 9B5C     		ldrb	r3, [r3, r2]
 1968 0024 DBB2     		uxtb	r3, r3
 1969              		.loc 1 1554 6
 1970 0026 202B     		cmp	r3, #32
 1971 0028 5BD1     		bne	.L82
1555:Drivers/STM32F0xx_HAL_Driver/Src/stm32f0xx_hal_i2c.c ****   {
1556:Drivers/STM32F0xx_HAL_Driver/Src/stm32f0xx_hal_i2c.c ****     if (__HAL_I2C_GET_FLAG(hi2c, I2C_FLAG_BUSY) == SET)
 1972              		.loc 1 1556 9
 1973 002a FB68     		ldr	r3, [r7, #12]
 1974 002c 1B68     		ldr	r3, [r3]
 1975 002e 9A69     		ldr	r2, [r3, #24]
 1976 0030 8023     		movs	r3, #128
 1977 0032 1B02     		lsls	r3, r3, #8
 1978 0034 1A40     		ands	r2, r3
 1979              		.loc 1 1556 8
 1980 0036 8023     		movs	r3, #128
 1981 0038 1B02     		lsls	r3, r3, #8
 1982 003a 9A42     		cmp	r2, r3
 1983 003c 01D1     		bne	.L83
1557:Drivers/STM32F0xx_HAL_Driver/Src/stm32f0xx_hal_i2c.c ****     {
1558:Drivers/STM32F0xx_HAL_Driver/Src/stm32f0xx_hal_i2c.c ****       return HAL_BUSY;
 1984              		.loc 1 1558 14
 1985 003e 0223     		movs	r3, #2
ARM GAS  /tmp/ccVMOeEl.s 			page 63


 1986 0040 50E0     		b	.L84
 1987              	.L83:
1559:Drivers/STM32F0xx_HAL_Driver/Src/stm32f0xx_hal_i2c.c ****     }
1560:Drivers/STM32F0xx_HAL_Driver/Src/stm32f0xx_hal_i2c.c **** 
1561:Drivers/STM32F0xx_HAL_Driver/Src/stm32f0xx_hal_i2c.c ****     /* Process Locked */
1562:Drivers/STM32F0xx_HAL_Driver/Src/stm32f0xx_hal_i2c.c ****     __HAL_LOCK(hi2c);
 1988              		.loc 1 1562 5
 1989 0042 FB68     		ldr	r3, [r7, #12]
 1990 0044 4022     		movs	r2, #64
 1991 0046 9B5C     		ldrb	r3, [r3, r2]
 1992 0048 012B     		cmp	r3, #1
 1993 004a 01D1     		bne	.L85
 1994              		.loc 1 1562 5 is_stmt 0 discriminator 1
 1995 004c 0223     		movs	r3, #2
 1996              		.loc 1 1562 5
 1997 004e 49E0     		b	.L84
 1998              	.L85:
 1999              		.loc 1 1562 5 discriminator 2
 2000 0050 FB68     		ldr	r3, [r7, #12]
 2001 0052 4022     		movs	r2, #64
 2002 0054 0121     		movs	r1, #1
 2003 0056 9954     		strb	r1, [r3, r2]
1563:Drivers/STM32F0xx_HAL_Driver/Src/stm32f0xx_hal_i2c.c **** 
1564:Drivers/STM32F0xx_HAL_Driver/Src/stm32f0xx_hal_i2c.c ****     hi2c->State       = HAL_I2C_STATE_BUSY_TX;
 2004              		.loc 1 1564 23 is_stmt 1
 2005 0058 FB68     		ldr	r3, [r7, #12]
 2006 005a 4122     		movs	r2, #65
 2007 005c 2121     		movs	r1, #33
 2008 005e 9954     		strb	r1, [r3, r2]
1565:Drivers/STM32F0xx_HAL_Driver/Src/stm32f0xx_hal_i2c.c ****     hi2c->Mode        = HAL_I2C_MODE_MASTER;
 2009              		.loc 1 1565 23
 2010 0060 FB68     		ldr	r3, [r7, #12]
 2011 0062 4222     		movs	r2, #66
 2012 0064 1021     		movs	r1, #16
 2013 0066 9954     		strb	r1, [r3, r2]
1566:Drivers/STM32F0xx_HAL_Driver/Src/stm32f0xx_hal_i2c.c ****     hi2c->ErrorCode   = HAL_I2C_ERROR_NONE;
 2014              		.loc 1 1566 23
 2015 0068 FB68     		ldr	r3, [r7, #12]
 2016 006a 0022     		movs	r2, #0
 2017 006c 5A64     		str	r2, [r3, #68]
1567:Drivers/STM32F0xx_HAL_Driver/Src/stm32f0xx_hal_i2c.c **** 
1568:Drivers/STM32F0xx_HAL_Driver/Src/stm32f0xx_hal_i2c.c ****     /* Prepare transfer parameters */
1569:Drivers/STM32F0xx_HAL_Driver/Src/stm32f0xx_hal_i2c.c ****     hi2c->pBuffPtr    = pData;
 2018              		.loc 1 1569 23
 2019 006e FB68     		ldr	r3, [r7, #12]
 2020 0070 7A68     		ldr	r2, [r7, #4]
 2021 0072 5A62     		str	r2, [r3, #36]
1570:Drivers/STM32F0xx_HAL_Driver/Src/stm32f0xx_hal_i2c.c ****     hi2c->XferCount   = Size;
 2022              		.loc 1 1570 23
 2023 0074 FB68     		ldr	r3, [r7, #12]
 2024 0076 0822     		movs	r2, #8
 2025 0078 BA18     		adds	r2, r7, r2
 2026 007a 1288     		ldrh	r2, [r2]
 2027 007c 5A85     		strh	r2, [r3, #42]
1571:Drivers/STM32F0xx_HAL_Driver/Src/stm32f0xx_hal_i2c.c ****     hi2c->XferOptions = I2C_NO_OPTION_FRAME;
 2028              		.loc 1 1571 23
 2029 007e FB68     		ldr	r3, [r7, #12]
ARM GAS  /tmp/ccVMOeEl.s 			page 64


 2030 0080 1A4A     		ldr	r2, .L88
 2031 0082 DA62     		str	r2, [r3, #44]
1572:Drivers/STM32F0xx_HAL_Driver/Src/stm32f0xx_hal_i2c.c ****     hi2c->XferISR     = I2C_Master_ISR_IT;
 2032              		.loc 1 1572 23
 2033 0084 FB68     		ldr	r3, [r7, #12]
 2034 0086 1A4A     		ldr	r2, .L88+4
 2035 0088 5A63     		str	r2, [r3, #52]
1573:Drivers/STM32F0xx_HAL_Driver/Src/stm32f0xx_hal_i2c.c **** 
1574:Drivers/STM32F0xx_HAL_Driver/Src/stm32f0xx_hal_i2c.c ****     if (hi2c->XferCount > MAX_NBYTE_SIZE)
 2036              		.loc 1 1574 13
 2037 008a FB68     		ldr	r3, [r7, #12]
 2038 008c 5B8D     		ldrh	r3, [r3, #42]
 2039 008e 9BB2     		uxth	r3, r3
 2040              		.loc 1 1574 8
 2041 0090 FF2B     		cmp	r3, #255
 2042 0092 06D9     		bls	.L86
1575:Drivers/STM32F0xx_HAL_Driver/Src/stm32f0xx_hal_i2c.c ****     {
1576:Drivers/STM32F0xx_HAL_Driver/Src/stm32f0xx_hal_i2c.c ****       hi2c->XferSize = MAX_NBYTE_SIZE;
 2043              		.loc 1 1576 22
 2044 0094 FB68     		ldr	r3, [r7, #12]
 2045 0096 FF22     		movs	r2, #255
 2046 0098 1A85     		strh	r2, [r3, #40]
1577:Drivers/STM32F0xx_HAL_Driver/Src/stm32f0xx_hal_i2c.c ****       xfermode = I2C_RELOAD_MODE;
 2047              		.loc 1 1577 16
 2048 009a 8023     		movs	r3, #128
 2049 009c 5B04     		lsls	r3, r3, #17
 2050 009e 7B61     		str	r3, [r7, #20]
 2051 00a0 07E0     		b	.L87
 2052              	.L86:
1578:Drivers/STM32F0xx_HAL_Driver/Src/stm32f0xx_hal_i2c.c ****     }
1579:Drivers/STM32F0xx_HAL_Driver/Src/stm32f0xx_hal_i2c.c ****     else
1580:Drivers/STM32F0xx_HAL_Driver/Src/stm32f0xx_hal_i2c.c ****     {
1581:Drivers/STM32F0xx_HAL_Driver/Src/stm32f0xx_hal_i2c.c ****       hi2c->XferSize = hi2c->XferCount;
 2053              		.loc 1 1581 28
 2054 00a2 FB68     		ldr	r3, [r7, #12]
 2055 00a4 5B8D     		ldrh	r3, [r3, #42]
 2056 00a6 9AB2     		uxth	r2, r3
 2057              		.loc 1 1581 22
 2058 00a8 FB68     		ldr	r3, [r7, #12]
 2059 00aa 1A85     		strh	r2, [r3, #40]
1582:Drivers/STM32F0xx_HAL_Driver/Src/stm32f0xx_hal_i2c.c ****       xfermode = I2C_AUTOEND_MODE;
 2060              		.loc 1 1582 16
 2061 00ac 8023     		movs	r3, #128
 2062 00ae 9B04     		lsls	r3, r3, #18
 2063 00b0 7B61     		str	r3, [r7, #20]
 2064              	.L87:
1583:Drivers/STM32F0xx_HAL_Driver/Src/stm32f0xx_hal_i2c.c ****     }
1584:Drivers/STM32F0xx_HAL_Driver/Src/stm32f0xx_hal_i2c.c **** 
1585:Drivers/STM32F0xx_HAL_Driver/Src/stm32f0xx_hal_i2c.c ****     /* Send Slave Address */
1586:Drivers/STM32F0xx_HAL_Driver/Src/stm32f0xx_hal_i2c.c ****     /* Set NBYTES to write and reload if hi2c->XferCount > MAX_NBYTE_SIZE */
1587:Drivers/STM32F0xx_HAL_Driver/Src/stm32f0xx_hal_i2c.c ****     I2C_TransferConfig(hi2c, DevAddress, (uint8_t)hi2c->XferSize, xfermode, I2C_GENERATE_START_WRIT
 2065              		.loc 1 1587 55
 2066 00b2 FB68     		ldr	r3, [r7, #12]
 2067 00b4 1B8D     		ldrh	r3, [r3, #40]
 2068              		.loc 1 1587 5
 2069 00b6 DAB2     		uxtb	r2, r3
 2070 00b8 7C69     		ldr	r4, [r7, #20]
ARM GAS  /tmp/ccVMOeEl.s 			page 65


 2071 00ba 0A23     		movs	r3, #10
 2072 00bc FB18     		adds	r3, r7, r3
 2073 00be 1988     		ldrh	r1, [r3]
 2074 00c0 F868     		ldr	r0, [r7, #12]
 2075 00c2 0C4B     		ldr	r3, .L88+8
 2076 00c4 0093     		str	r3, [sp]
 2077 00c6 2300     		movs	r3, r4
 2078 00c8 FFF7FEFF 		bl	I2C_TransferConfig
1588:Drivers/STM32F0xx_HAL_Driver/Src/stm32f0xx_hal_i2c.c **** 
1589:Drivers/STM32F0xx_HAL_Driver/Src/stm32f0xx_hal_i2c.c ****     /* Process Unlocked */
1590:Drivers/STM32F0xx_HAL_Driver/Src/stm32f0xx_hal_i2c.c ****     __HAL_UNLOCK(hi2c);
 2079              		.loc 1 1590 5
 2080 00cc FB68     		ldr	r3, [r7, #12]
 2081 00ce 4022     		movs	r2, #64
 2082 00d0 0021     		movs	r1, #0
 2083 00d2 9954     		strb	r1, [r3, r2]
1591:Drivers/STM32F0xx_HAL_Driver/Src/stm32f0xx_hal_i2c.c **** 
1592:Drivers/STM32F0xx_HAL_Driver/Src/stm32f0xx_hal_i2c.c ****     /* Note : The I2C interrupts must be enabled after unlocking current process
1593:Drivers/STM32F0xx_HAL_Driver/Src/stm32f0xx_hal_i2c.c ****               to avoid the risk of I2C interrupt handle execution before current
1594:Drivers/STM32F0xx_HAL_Driver/Src/stm32f0xx_hal_i2c.c ****               process unlock */
1595:Drivers/STM32F0xx_HAL_Driver/Src/stm32f0xx_hal_i2c.c **** 
1596:Drivers/STM32F0xx_HAL_Driver/Src/stm32f0xx_hal_i2c.c ****     /* Enable ERR, TC, STOP, NACK, TXI interrupt */
1597:Drivers/STM32F0xx_HAL_Driver/Src/stm32f0xx_hal_i2c.c ****     /* possible to enable all of these */
1598:Drivers/STM32F0xx_HAL_Driver/Src/stm32f0xx_hal_i2c.c ****     /* I2C_IT_ERRI | I2C_IT_TCI| I2C_IT_STOPI| I2C_IT_NACKI | I2C_IT_ADDRI | I2C_IT_RXI | I2C_IT_TX
1599:Drivers/STM32F0xx_HAL_Driver/Src/stm32f0xx_hal_i2c.c ****     I2C_Enable_IRQ(hi2c, I2C_XFER_TX_IT);
 2084              		.loc 1 1599 5
 2085 00d4 FB68     		ldr	r3, [r7, #12]
 2086 00d6 0121     		movs	r1, #1
 2087 00d8 1800     		movs	r0, r3
 2088 00da FFF7FEFF 		bl	I2C_Enable_IRQ
1600:Drivers/STM32F0xx_HAL_Driver/Src/stm32f0xx_hal_i2c.c **** 
1601:Drivers/STM32F0xx_HAL_Driver/Src/stm32f0xx_hal_i2c.c ****     return HAL_OK;
 2089              		.loc 1 1601 12
 2090 00de 0023     		movs	r3, #0
 2091 00e0 00E0     		b	.L84
 2092              	.L82:
1602:Drivers/STM32F0xx_HAL_Driver/Src/stm32f0xx_hal_i2c.c ****   }
1603:Drivers/STM32F0xx_HAL_Driver/Src/stm32f0xx_hal_i2c.c ****   else
1604:Drivers/STM32F0xx_HAL_Driver/Src/stm32f0xx_hal_i2c.c ****   {
1605:Drivers/STM32F0xx_HAL_Driver/Src/stm32f0xx_hal_i2c.c ****     return HAL_BUSY;
 2093              		.loc 1 1605 12
 2094 00e2 0223     		movs	r3, #2
 2095              	.L84:
1606:Drivers/STM32F0xx_HAL_Driver/Src/stm32f0xx_hal_i2c.c ****   }
1607:Drivers/STM32F0xx_HAL_Driver/Src/stm32f0xx_hal_i2c.c **** }
 2096              		.loc 1 1607 1
 2097 00e4 1800     		movs	r0, r3
 2098 00e6 BD46     		mov	sp, r7
 2099 00e8 07B0     		add	sp, sp, #28
 2100              		@ sp needed
 2101 00ea 90BD     		pop	{r4, r7, pc}
 2102              	.L89:
 2103              		.align	2
 2104              	.L88:
 2105 00ec 0000FFFF 		.word	-65536
 2106 00f0 00000000 		.word	I2C_Master_ISR_IT
 2107 00f4 00200080 		.word	-2147475456
ARM GAS  /tmp/ccVMOeEl.s 			page 66


 2108              		.cfi_endproc
 2109              	.LFE48:
 2111              		.section	.text.HAL_I2C_Master_Receive_IT,"ax",%progbits
 2112              		.align	1
 2113              		.global	HAL_I2C_Master_Receive_IT
 2114              		.syntax unified
 2115              		.code	16
 2116              		.thumb_func
 2118              	HAL_I2C_Master_Receive_IT:
 2119              	.LFB49:
1608:Drivers/STM32F0xx_HAL_Driver/Src/stm32f0xx_hal_i2c.c **** 
1609:Drivers/STM32F0xx_HAL_Driver/Src/stm32f0xx_hal_i2c.c **** /**
1610:Drivers/STM32F0xx_HAL_Driver/Src/stm32f0xx_hal_i2c.c ****   * @brief  Receive in master mode an amount of data in non-blocking mode with Interrupt
1611:Drivers/STM32F0xx_HAL_Driver/Src/stm32f0xx_hal_i2c.c ****   * @param  hi2c Pointer to a I2C_HandleTypeDef structure that contains
1612:Drivers/STM32F0xx_HAL_Driver/Src/stm32f0xx_hal_i2c.c ****   *                the configuration information for the specified I2C.
1613:Drivers/STM32F0xx_HAL_Driver/Src/stm32f0xx_hal_i2c.c ****   * @param  DevAddress Target device address: The device 7 bits address value
1614:Drivers/STM32F0xx_HAL_Driver/Src/stm32f0xx_hal_i2c.c ****   *         in datasheet must be shifted to the left before calling the interface
1615:Drivers/STM32F0xx_HAL_Driver/Src/stm32f0xx_hal_i2c.c ****   * @param  pData Pointer to data buffer
1616:Drivers/STM32F0xx_HAL_Driver/Src/stm32f0xx_hal_i2c.c ****   * @param  Size Amount of data to be sent
1617:Drivers/STM32F0xx_HAL_Driver/Src/stm32f0xx_hal_i2c.c ****   * @retval HAL status
1618:Drivers/STM32F0xx_HAL_Driver/Src/stm32f0xx_hal_i2c.c ****   */
1619:Drivers/STM32F0xx_HAL_Driver/Src/stm32f0xx_hal_i2c.c **** HAL_StatusTypeDef HAL_I2C_Master_Receive_IT(I2C_HandleTypeDef *hi2c, uint16_t DevAddress, uint8_t *
1620:Drivers/STM32F0xx_HAL_Driver/Src/stm32f0xx_hal_i2c.c **** {
 2120              		.loc 1 1620 1
 2121              		.cfi_startproc
 2122              		@ args = 0, pretend = 0, frame = 24
 2123              		@ frame_needed = 1, uses_anonymous_args = 0
 2124 0000 90B5     		push	{r4, r7, lr}
 2125              	.LCFI27:
 2126              		.cfi_def_cfa_offset 12
 2127              		.cfi_offset 4, -12
 2128              		.cfi_offset 7, -8
 2129              		.cfi_offset 14, -4
 2130 0002 89B0     		sub	sp, sp, #36
 2131              	.LCFI28:
 2132              		.cfi_def_cfa_offset 48
 2133 0004 02AF     		add	r7, sp, #8
 2134              	.LCFI29:
 2135              		.cfi_def_cfa 7, 40
 2136 0006 F860     		str	r0, [r7, #12]
 2137 0008 0800     		movs	r0, r1
 2138 000a 7A60     		str	r2, [r7, #4]
 2139 000c 1900     		movs	r1, r3
 2140 000e 0A23     		movs	r3, #10
 2141 0010 FB18     		adds	r3, r7, r3
 2142 0012 021C     		adds	r2, r0, #0
 2143 0014 1A80     		strh	r2, [r3]
 2144 0016 0823     		movs	r3, #8
 2145 0018 FB18     		adds	r3, r7, r3
 2146 001a 0A1C     		adds	r2, r1, #0
 2147 001c 1A80     		strh	r2, [r3]
1621:Drivers/STM32F0xx_HAL_Driver/Src/stm32f0xx_hal_i2c.c ****   uint32_t xfermode;
1622:Drivers/STM32F0xx_HAL_Driver/Src/stm32f0xx_hal_i2c.c **** 
1623:Drivers/STM32F0xx_HAL_Driver/Src/stm32f0xx_hal_i2c.c ****   if (hi2c->State == HAL_I2C_STATE_READY)
 2148              		.loc 1 1623 11
 2149 001e FB68     		ldr	r3, [r7, #12]
 2150 0020 4122     		movs	r2, #65
ARM GAS  /tmp/ccVMOeEl.s 			page 67


 2151 0022 9B5C     		ldrb	r3, [r3, r2]
 2152 0024 DBB2     		uxtb	r3, r3
 2153              		.loc 1 1623 6
 2154 0026 202B     		cmp	r3, #32
 2155 0028 5BD1     		bne	.L91
1624:Drivers/STM32F0xx_HAL_Driver/Src/stm32f0xx_hal_i2c.c ****   {
1625:Drivers/STM32F0xx_HAL_Driver/Src/stm32f0xx_hal_i2c.c ****     if (__HAL_I2C_GET_FLAG(hi2c, I2C_FLAG_BUSY) == SET)
 2156              		.loc 1 1625 9
 2157 002a FB68     		ldr	r3, [r7, #12]
 2158 002c 1B68     		ldr	r3, [r3]
 2159 002e 9A69     		ldr	r2, [r3, #24]
 2160 0030 8023     		movs	r3, #128
 2161 0032 1B02     		lsls	r3, r3, #8
 2162 0034 1A40     		ands	r2, r3
 2163              		.loc 1 1625 8
 2164 0036 8023     		movs	r3, #128
 2165 0038 1B02     		lsls	r3, r3, #8
 2166 003a 9A42     		cmp	r2, r3
 2167 003c 01D1     		bne	.L92
1626:Drivers/STM32F0xx_HAL_Driver/Src/stm32f0xx_hal_i2c.c ****     {
1627:Drivers/STM32F0xx_HAL_Driver/Src/stm32f0xx_hal_i2c.c ****       return HAL_BUSY;
 2168              		.loc 1 1627 14
 2169 003e 0223     		movs	r3, #2
 2170 0040 50E0     		b	.L93
 2171              	.L92:
1628:Drivers/STM32F0xx_HAL_Driver/Src/stm32f0xx_hal_i2c.c ****     }
1629:Drivers/STM32F0xx_HAL_Driver/Src/stm32f0xx_hal_i2c.c **** 
1630:Drivers/STM32F0xx_HAL_Driver/Src/stm32f0xx_hal_i2c.c ****     /* Process Locked */
1631:Drivers/STM32F0xx_HAL_Driver/Src/stm32f0xx_hal_i2c.c ****     __HAL_LOCK(hi2c);
 2172              		.loc 1 1631 5
 2173 0042 FB68     		ldr	r3, [r7, #12]
 2174 0044 4022     		movs	r2, #64
 2175 0046 9B5C     		ldrb	r3, [r3, r2]
 2176 0048 012B     		cmp	r3, #1
 2177 004a 01D1     		bne	.L94
 2178              		.loc 1 1631 5 is_stmt 0 discriminator 1
 2179 004c 0223     		movs	r3, #2
 2180              		.loc 1 1631 5
 2181 004e 49E0     		b	.L93
 2182              	.L94:
 2183              		.loc 1 1631 5 discriminator 2
 2184 0050 FB68     		ldr	r3, [r7, #12]
 2185 0052 4022     		movs	r2, #64
 2186 0054 0121     		movs	r1, #1
 2187 0056 9954     		strb	r1, [r3, r2]
1632:Drivers/STM32F0xx_HAL_Driver/Src/stm32f0xx_hal_i2c.c **** 
1633:Drivers/STM32F0xx_HAL_Driver/Src/stm32f0xx_hal_i2c.c ****     hi2c->State       = HAL_I2C_STATE_BUSY_RX;
 2188              		.loc 1 1633 23 is_stmt 1
 2189 0058 FB68     		ldr	r3, [r7, #12]
 2190 005a 4122     		movs	r2, #65
 2191 005c 2221     		movs	r1, #34
 2192 005e 9954     		strb	r1, [r3, r2]
1634:Drivers/STM32F0xx_HAL_Driver/Src/stm32f0xx_hal_i2c.c ****     hi2c->Mode        = HAL_I2C_MODE_MASTER;
 2193              		.loc 1 1634 23
 2194 0060 FB68     		ldr	r3, [r7, #12]
 2195 0062 4222     		movs	r2, #66
 2196 0064 1021     		movs	r1, #16
ARM GAS  /tmp/ccVMOeEl.s 			page 68


 2197 0066 9954     		strb	r1, [r3, r2]
1635:Drivers/STM32F0xx_HAL_Driver/Src/stm32f0xx_hal_i2c.c ****     hi2c->ErrorCode   = HAL_I2C_ERROR_NONE;
 2198              		.loc 1 1635 23
 2199 0068 FB68     		ldr	r3, [r7, #12]
 2200 006a 0022     		movs	r2, #0
 2201 006c 5A64     		str	r2, [r3, #68]
