ARM GAS  /tmp/ccONmmGL.s 			page 1


   1              		.cpu cortex-m0
   2              		.arch armv6s-m
   3              		.fpu softvfp
   4              		.eabi_attribute 20, 1
   5              		.eabi_attribute 21, 1
   6              		.eabi_attribute 23, 3
   7              		.eabi_attribute 24, 1
   8              		.eabi_attribute 25, 1
   9              		.eabi_attribute 26, 1
  10              		.eabi_attribute 30, 6
  11              		.eabi_attribute 34, 0
  12              		.eabi_attribute 18, 4
  13              		.file	"sysmem.c"
  14              		.text
  15              	.Ltext0:
  16              		.cfi_sections	.debug_frame
  17              		.file 1 "Src/sysmem.c"
  18              		.section	.bss.__sbrk_heap_end,"aw",%nobits
  19              		.align	2
  22              	__sbrk_heap_end:
  23 0000 00000000 		.space	4
  24              		.section	.text._sbrk,"ax",%progbits
  25              		.align	1
  26              		.global	_sbrk
  27              		.syntax unified
  28              		.code	16
  29              		.thumb_func
  31              	_sbrk:
  32              	.LFB0:
   1:Src/sysmem.c  **** /**
   2:Src/sysmem.c  ****  ******************************************************************************
   3:Src/sysmem.c  ****  * @file      sysmem.c
   4:Src/sysmem.c  ****  * @author    Generated by STM32CubeMX
   5:Src/sysmem.c  ****  * @brief     System Memory calls file
   6:Src/sysmem.c  ****  *
   7:Src/sysmem.c  ****  *            For more information about which C functions
   8:Src/sysmem.c  ****  *            need which of these lowlevel functions
   9:Src/sysmem.c  ****  *            please consult the newlib libc manual
  10:Src/sysmem.c  ****  ******************************************************************************
  11:Src/sysmem.c  ****  * @attention
  12:Src/sysmem.c  ****  *
  13:Src/sysmem.c  ****  * Copyright (c) 2024 STMicroelectronics.
  14:Src/sysmem.c  ****  * All rights reserved.
  15:Src/sysmem.c  ****  *
  16:Src/sysmem.c  ****  * This software is licensed under terms that can be found in the LICENSE file
  17:Src/sysmem.c  ****  * in the root directory of this software component.
  18:Src/sysmem.c  ****  * If no LICENSE file comes with this software, it is provided AS-IS.
  19:Src/sysmem.c  ****  *
  20:Src/sysmem.c  ****  ******************************************************************************
  21:Src/sysmem.c  ****  */
  22:Src/sysmem.c  **** 
  23:Src/sysmem.c  **** /* Includes */
  24:Src/sysmem.c  **** #include <errno.h>
  25:Src/sysmem.c  **** #include <stdint.h>
  26:Src/sysmem.c  **** 
  27:Src/sysmem.c  **** /**
  28:Src/sysmem.c  ****  * Pointer to the current high watermark of the heap usage
ARM GAS  /tmp/ccONmmGL.s 			page 2


  29:Src/sysmem.c  ****  */
  30:Src/sysmem.c  **** static uint8_t *__sbrk_heap_end = NULL;
  31:Src/sysmem.c  **** 
  32:Src/sysmem.c  **** /**
  33:Src/sysmem.c  ****  * @brief _sbrk() allocates memory to the newlib heap and is used by malloc
  34:Src/sysmem.c  ****  *        and others from the C library
  35:Src/sysmem.c  ****  *
  36:Src/sysmem.c  ****  * @verbatim
  37:Src/sysmem.c  ****  * ############################################################################
  38:Src/sysmem.c  ****  * #  .data  #  .bss  #       newlib heap       #          MSP stack          #
  39:Src/sysmem.c  ****  * #         #        #                         # Reserved by _Min_Stack_Size #
  40:Src/sysmem.c  ****  * ############################################################################
  41:Src/sysmem.c  ****  * ^-- RAM start      ^-- _end                             _estack, RAM end --^
  42:Src/sysmem.c  ****  * @endverbatim
  43:Src/sysmem.c  ****  *
  44:Src/sysmem.c  ****  * This implementation starts allocating at the '_end' linker symbol
  45:Src/sysmem.c  ****  * The '_Min_Stack_Size' linker symbol reserves a memory for the MSP stack
  46:Src/sysmem.c  ****  * The implementation considers '_estack' linker symbol to be RAM end
  47:Src/sysmem.c  ****  * NOTE: If the MSP stack, at any point during execution, grows larger than the
  48:Src/sysmem.c  ****  * reserved size, please increase the '_Min_Stack_Size'.
  49:Src/sysmem.c  ****  *
  50:Src/sysmem.c  ****  * @param incr Memory size
  51:Src/sysmem.c  ****  * @return Pointer to allocated memory
  52:Src/sysmem.c  ****  */
  53:Src/sysmem.c  **** void *_sbrk(ptrdiff_t incr)
  54:Src/sysmem.c  **** {
  33              		.loc 1 54 1
  34              		.cfi_startproc
  35              		@ args = 0, pretend = 0, frame = 24
  36              		@ frame_needed = 1, uses_anonymous_args = 0
  37 0000 80B5     		push	{r7, lr}
  38              	.LCFI0:
  39              		.cfi_def_cfa_offset 8
  40              		.cfi_offset 7, -8
  41              		.cfi_offset 14, -4
  42 0002 86B0     		sub	sp, sp, #24
  43              	.LCFI1:
  44              		.cfi_def_cfa_offset 32
  45 0004 00AF     		add	r7, sp, #0
  46              	.LCFI2:
  47              		.cfi_def_cfa_register 7
  48 0006 7860     		str	r0, [r7, #4]
  55:Src/sysmem.c  ****   extern uint8_t _end; /* Symbol defined in the linker script */
  56:Src/sysmem.c  ****   extern uint8_t _estack; /* Symbol defined in the linker script */
  57:Src/sysmem.c  ****   extern uint32_t _Min_Stack_Size; /* Symbol defined in the linker script */
  58:Src/sysmem.c  ****   const uint32_t stack_limit = (uint32_t)&_estack - (uint32_t)&_Min_Stack_Size;
  49              		.loc 1 58 32
  50 0008 144A     		ldr	r2, .L5
  51              		.loc 1 58 53
  52 000a 154B     		ldr	r3, .L5+4
  53              		.loc 1 58 18
  54 000c D31A     		subs	r3, r2, r3
  55 000e 7B61     		str	r3, [r7, #20]
  59:Src/sysmem.c  ****   const uint8_t *max_heap = (uint8_t *)stack_limit;
  56              		.loc 1 59 18
  57 0010 7B69     		ldr	r3, [r7, #20]
  58 0012 3B61     		str	r3, [r7, #16]
ARM GAS  /tmp/ccONmmGL.s 			page 3


  60:Src/sysmem.c  ****   uint8_t *prev_heap_end;
  61:Src/sysmem.c  **** 
  62:Src/sysmem.c  ****   /* Initialize heap end at first call */
  63:Src/sysmem.c  ****   if (NULL == __sbrk_heap_end)
  59              		.loc 1 63 12
  60 0014 134B     		ldr	r3, .L5+8
  61 0016 1B68     		ldr	r3, [r3]
  62              		.loc 1 63 6
  63 0018 002B     		cmp	r3, #0
  64 001a 02D1     		bne	.L2
  64:Src/sysmem.c  ****   {
  65:Src/sysmem.c  ****     __sbrk_heap_end = &_end;
  65              		.loc 1 65 21
  66 001c 114B     		ldr	r3, .L5+8
  67 001e 124A     		ldr	r2, .L5+12
  68 0020 1A60     		str	r2, [r3]
  69              	.L2:
  66:Src/sysmem.c  ****   }
  67:Src/sysmem.c  **** 
  68:Src/sysmem.c  ****   /* Protect heap from growing into the reserved MSP stack */
  69:Src/sysmem.c  ****   if (__sbrk_heap_end + incr > max_heap)
  70              		.loc 1 69 23
  71 0022 104B     		ldr	r3, .L5+8
  72 0024 1A68     		ldr	r2, [r3]
  73 0026 7B68     		ldr	r3, [r7, #4]
  74 0028 D318     		adds	r3, r2, r3
  75              		.loc 1 69 6
  76 002a 3A69     		ldr	r2, [r7, #16]
  77 002c 9A42     		cmp	r2, r3
  78 002e 07D2     		bcs	.L3
  70:Src/sysmem.c  ****   {
  71:Src/sysmem.c  ****     errno = ENOMEM;
  79              		.loc 1 71 5
  80 0030 FFF7FEFF 		bl	__errno
  81 0034 0300     		movs	r3, r0
  82              		.loc 1 71 11 discriminator 1
  83 0036 0C22     		movs	r2, #12
  84 0038 1A60     		str	r2, [r3]
  72:Src/sysmem.c  ****     return (void *)-1;
  85              		.loc 1 72 12
  86 003a 0123     		movs	r3, #1
  87 003c 5B42     		rsbs	r3, r3, #0
  88 003e 09E0     		b	.L4
  89              	.L3:
  73:Src/sysmem.c  ****   }
  74:Src/sysmem.c  **** 
  75:Src/sysmem.c  ****   prev_heap_end = __sbrk_heap_end;
  90              		.loc 1 75 17
  91 0040 084B     		ldr	r3, .L5+8
  92 0042 1B68     		ldr	r3, [r3]
  93 0044 FB60     		str	r3, [r7, #12]
  76:Src/sysmem.c  ****   __sbrk_heap_end += incr;
  94              		.loc 1 76 19
  95 0046 074B     		ldr	r3, .L5+8
  96 0048 1A68     		ldr	r2, [r3]
  97 004a 7B68     		ldr	r3, [r7, #4]
  98 004c D218     		adds	r2, r2, r3
ARM GAS  /tmp/ccONmmGL.s 			page 4


  99 004e 054B     		ldr	r3, .L5+8
 100 0050 1A60     		str	r2, [r3]
  77:Src/sysmem.c  **** 
  78:Src/sysmem.c  ****   return (void *)prev_heap_end;
 101              		.loc 1 78 10
 102 0052 FB68     		ldr	r3, [r7, #12]
 103              	.L4:
  79:Src/sysmem.c  **** }
 104              		.loc 1 79 1
 105 0054 1800     		movs	r0, r3
 106 0056 BD46     		mov	sp, r7
 107 0058 06B0     		add	sp, sp, #24
 108              		@ sp needed
 109 005a 80BD     		pop	{r7, pc}
 110              	.L6:
 111              		.align	2
 112              	.L5:
 113 005c 00000000 		.word	_estack
 114 0060 00000000 		.word	_Min_Stack_Size
 115 0064 00000000 		.word	__sbrk_heap_end
 116 0068 00000000 		.word	_end
 117              		.cfi_endproc
 118              	.LFE0:
 120              		.text
 121              	.Letext0:
 122              		.file 2 "/usr/lib/gcc/arm-none-eabi/14.1.0/include/stddef.h"
 123              		.file 3 "/usr/arm-none-eabi/include/machine/_default_types.h"
 124              		.file 4 "/usr/arm-none-eabi/include/sys/_stdint.h"
 125              		.file 5 "/usr/arm-none-eabi/include/sys/errno.h"
ARM GAS  /tmp/ccONmmGL.s 			page 5

